ccopy_reg
_reconstructor
p0
(cnetworkx.classes.graph
Graph
p1
c__builtin__
object
p2
Ntp3
Rp4
(dp5
S'node'
p6
(dp7
V289771
p8
(dp9
S'is_target'
p10
I0
sS'language'
p11
cnumpy.core.multiarray
scalar
p12
(cnumpy
dtype
p13
(S'S62'
p14
I0
I1
tp15
Rp16
(I3
S'|'
p17
NNNI62
I1
I0
tp18
bS'anglicky, nemecky, taliansky, spanielsky, hello,ciao,halo,ola,'
p19
tp20
Rp21
sS'gender'
p22
g12
(g13
(S'S1'
p23
I0
I1
tp24
Rp25
(I3
S'|'
p26
NNNI1
I1
I0
tp27
bS'0'
p28
tp29
Rp30
sS'region'
p31
g12
(g13
(S'S43'
p32
I0
I1
tp33
Rp34
(I3
S'|'
p35
NNNI43
I1
I0
tp36
bS'bratislavsky kraj, bratislava - karlova ves'
p37
tp38
Rp39
sS'hobbies'
p40
g12
(g13
(S'S132'
p41
I0
I1
tp42
Rp43
(I3
S'|'
p44
NNNI132
I1
I0
tp45
bS'sportovanie, pocuvanie hudby, pozeranie filmov, tancovanie, diskoteky, jedlo, party, priatelia, spanie, nakupovanie, sex, stanovanie'
p46
tp47
Rp48
sS'is_start'
p49
I0
sS'public_rand'
p50
I0
sS'age'
p51
g12
(g13
(S'S2'
p52
I0
I1
tp53
Rp54
(I3
S'|'
p55
NNNI2
I1
I0
tp56
bS'22'
p57
tp58
Rp59
sS'comp_edu'
p60
g12
(g13
(S'S4'
p61
I0
I1
tp62
Rp63
(I3
S'|'
p64
NNNI4
I1
I0
tp65
bS'null'
p66
tp67
Rp68
sS'pets'
p69
g12
(g13
(S'S99'
p70
I0
I1
tp71
Rp72
(I3
S'|'
p73
NNNI99
I1
I0
tp74
bS'v dobrej restauracii, v posteli, z partnerovho bruska, no jasne z pupku a aj z wajec ,,,,,,,,,,,,,,'
p75
tp76
Rp77
sS'edu'
p78
g12
(g13
(S'S4'
p79
I0
I1
tp80
Rp81
(I3
S'|'
p82
NNNI4
I1
I0
tp83
bS'null'
p84
tp85
Rp86
sS'public'
p87
g12
(g13
(S'S1'
p88
I0
I1
tp89
Rp90
(I3
S'|'
p91
NNNI1
I1
I0
tp92
bS'1'
p93
tp94
Rp95
ssS'238245'
p96
(dp97
g10
I0
sg11
g12
(g13
(S'S31'
p98
I0
I1
tp99
Rp100
(I3
S'|'
p101
NNNI31
I1
I0
tp102
bS'anglicky, par japnskych slov xd'
p103
tp104
Rp105
sg22
g12
(g13
(S'S1'
p106
I0
I1
tp107
Rp108
(I3
S'|'
p109
NNNI1
I1
I0
tp110
bg93
tp111
Rp112
sg31
g12
(g13
(S'S43'
p113
I0
I1
tp114
Rp115
(I3
S'|'
p116
NNNI43
I1
I0
tp117
bS'bratislavsky kraj, bratislava - karlova ves'
p118
tp119
Rp120
sg40
g12
(g13
(S'S61'
p121
I0
I1
tp122
Rp123
(I3
S'|'
p124
NNNI61
I1
I0
tp125
bS'pozeranie filmov, kino, priatelia, mam rad anime a mangu !!!!'
p126
tp127
Rp128
sg49
I0
sg50
I1
sg51
g12
(g13
(S'S2'
p129
I0
I1
tp130
Rp131
(I3
S'|'
p132
NNNI2
I1
I0
tp133
bS'19'
p134
tp135
Rp136
sg60
g12
(g13
(S'S4'
p137
I0
I1
tp138
Rp139
(I3
S'|'
p140
NNNI4
I1
I0
tp141
bS'null'
p142
tp143
Rp144
sg69
g12
(g13
(S'S31'
p145
I0
I1
tp146
Rp147
(I3
S'|'
p148
NNNI31
I1
I0
tp149
bS'pri telke, v dobrej restauracii'
p150
tp151
Rp152
sg78
g12
(g13
(S'S4'
p153
I0
I1
tp154
Rp155
(I3
S'|'
p156
NNNI4
I1
I0
tp157
bS'null'
p158
tp159
Rp160
sg87
g12
(g13
(S'S1'
p161
I0
I1
tp162
Rp163
(I3
S'|'
p164
NNNI1
I1
I0
tp165
bg93
tp166
Rp167
ssV312388
p168
(dp169
g10
I0
sg11
g12
(g13
(S'S4'
p170
I0
I1
tp171
Rp172
(I3
S'|'
p173
NNNI4
I1
I0
tp174
bS'null'
p175
tp176
Rp177
sg22
g12
(g13
(S'S1'
p178
I0
I1
tp179
Rp180
(I3
S'|'
p181
NNNI1
I1
I0
tp182
bg28
tp183
Rp184
sg31
g12
(g13
(S'S43'
p185
I0
I1
tp186
Rp187
(I3
S'|'
p188
NNNI43
I1
I0
tp189
bS'bratislavsky kraj, bratislava - karlova ves'
p190
tp191
Rp192
sg40
g12
(g13
(S'S4'
p193
I0
I1
tp194
Rp195
(I3
S'|'
p196
NNNI4
I1
I0
tp197
bS'null'
p198
tp199
Rp200
sg49
I0
sg50
I0
sg51
g12
(g13
(S'S2'
p201
I0
I1
tp202
Rp203
(I3
S'|'
p204
NNNI2
I1
I0
tp205
bS'19'
p206
tp207
Rp208
sg60
g12
(g13
(S'S4'
p209
I0
I1
tp210
Rp211
(I3
S'|'
p212
NNNI4
I1
I0
tp213
bS'null'
p214
tp215
Rp216
sg69
g12
(g13
(S'S4'
p217
I0
I1
tp218
Rp219
(I3
S'|'
p220
NNNI4
I1
I0
tp221
bS'null'
p222
tp223
Rp224
sg78
g12
(g13
(S'S4'
p225
I0
I1
tp226
Rp227
(I3
S'|'
p228
NNNI4
I1
I0
tp229
bS'null'
p230
tp231
Rp232
sg87
g12
(g13
(S'S1'
p233
I0
I1
tp234
Rp235
(I3
S'|'
p236
NNNI1
I1
I0
tp237
bg93
tp238
Rp239
ssV231413
p240
(dp241
g10
I0
sg11
g12
(g13
(S'S4'
p242
I0
I1
tp243
Rp244
(I3
S'|'
p245
NNNI4
I1
I0
tp246
bS'null'
p247
tp248
Rp249
sg22
g12
(g13
(S'S1'
p250
I0
I1
tp251
Rp252
(I3
S'|'
p253
NNNI1
I1
I0
tp254
bg93
tp255
Rp256
sg31
g12
(g13
(S'S43'
p257
I0
I1
tp258
Rp259
(I3
S'|'
p260
NNNI43
I1
I0
tp261
bS'bratislavsky kraj, bratislava - karlova ves'
p262
tp263
Rp264
sg40
g12
(g13
(S'S4'
p265
I0
I1
tp266
Rp267
(I3
S'|'
p268
NNNI4
I1
I0
tp269
bS'null'
p270
tp271
Rp272
sg49
I0
sg50
I0
sg51
g12
(g13
(S'S1'
p273
I0
I1
tp274
Rp275
(I3
S'|'
p276
NNNI1
I1
I0
tp277
bg28
tp278
Rp279
sg60
g12
(g13
(S'S13'
p280
I0
I1
tp281
Rp282
(I3
S'|'
p283
NNNI13
I1
I0
tp284
bS'vysokoskolske'
p285
tp286
Rp287
sg69
g12
(g13
(S'S4'
p288
I0
I1
tp289
Rp290
(I3
S'|'
p291
NNNI4
I1
I0
tp292
bS'null'
p293
tp294
Rp295
sg78
g12
(g13
(S'S4'
p296
I0
I1
tp297
Rp298
(I3
S'|'
p299
NNNI4
I1
I0
tp300
bS'null'
p301
tp302
Rp303
sg87
g12
(g13
(S'S1'
p304
I0
I1
tp305
Rp306
(I3
S'|'
p307
NNNI1
I1
I0
tp308
bg28
tp309
Rp310
ssV109086
p311
(dp312
g10
I0
sg11
g12
(g13
(S'S75'
p313
I0
I1
tp314
Rp315
(I3
S'|'
p316
NNNI75
I1
I0
tp317
bS'anglicky, ale chcel by som aj spanielsky.no a samozrejme ze aj ten svoj :-p'
p318
tp319
Rp320
sg22
g12
(g13
(S'S1'
p321
I0
I1
tp322
Rp323
(I3
S'|'
p324
NNNI1
I1
I0
tp325
bg93
tp326
Rp327
sg31
g12
(g13
(S'S43'
p328
I0
I1
tp329
Rp330
(I3
S'|'
p331
NNNI43
I1
I0
tp332
bS'bratislavsky kraj, bratislava - karlova ves'
p333
tp334
Rp335
sg40
g12
(g13
(S'S258'
p336
I0
I1
tp337
Rp338
(I3
S'|'
p339
NNNI258
I1
I0
tp340
bS'sportovanie, cestovanie, turistika, prace v zahrade, praca s pc, pc hry, surfovanie po webe, citanie, pocuvanie hudby, pozeranie filmov, kupalisko, varenie, jedlo, kino, party, priatelia, spanie, nakupovanie, sex, stanovanie, samozrejme este vela inych veci.'
p341
tp342
Rp343
sg49
I0
sg50
I0
sg51
g12
(g13
(S'S2'
p344
I0
I1
tp345
Rp346
(I3
S'|'
p347
NNNI2
I1
I0
tp348
bS'21'
p349
tp350
Rp351
sg60
g12
(g13
(S'S33'
p352
I0
I1
tp353
Rp354
(I3
S'|'
p355
NNNI33
I1
I0
tp356
bS'stredoskolske odborne s maturitou'
p357
tp358
Rp359
sg69
g12
(g13
(S'S72'
p360
I0
I1
tp361
Rp362
(I3
S'|'
p363
NNNI72
I1
I0
tp364
bS'to je jedno kde. (nechapem to ze z partnerovho bruska ale inak v pohode)'
p365
tp366
Rp367
sg78
g12
(g13
(S'S4'
p368
I0
I1
tp369
Rp370
(I3
S'|'
p371
NNNI4
I1
I0
tp372
bS'null'
p373
tp374
Rp375
sg87
g12
(g13
(S'S1'
p376
I0
I1
tp377
Rp378
(I3
S'|'
p379
NNNI1
I1
I0
tp380
bg93
tp381
Rp382
ssS'522116'
p383
(dp384
g10
I0
sg11
g12
(g13
(S'S29'
p385
I0
I1
tp386
Rp387
(I3
S'|'
p388
NNNI29
I1
I0
tp389
bS'anglicky, nemecky, spanielsky'
p390
tp391
Rp392
sg22
g12
(g13
(S'S1'
p393
I0
I1
tp394
Rp395
(I3
S'|'
p396
NNNI1
I1
I0
tp397
bg28
tp398
Rp399
sg31
g12
(g13
(S'S43'
p400
I0
I1
tp401
Rp402
(I3
S'|'
p403
NNNI43
I1
I0
tp404
bS'bratislavsky kraj, bratislava - karlova ves'
p405
tp406
Rp407
sg40
g12
(g13
(S'S4'
p408
I0
I1
tp409
Rp410
(I3
S'|'
p411
NNNI4
I1
I0
tp412
bS'null'
p413
tp414
Rp415
sg49
I0
sg50
I1
sg51
g12
(g13
(S'S1'
p416
I0
I1
tp417
Rp418
(I3
S'|'
p419
NNNI1
I1
I0
tp420
bg28
tp421
Rp422
sg60
g12
(g13
(S'S4'
p423
I0
I1
tp424
Rp425
(I3
S'|'
p426
NNNI4
I1
I0
tp427
bS'null'
p428
tp429
Rp430
sg69
g12
(g13
(S'S4'
p431
I0
I1
tp432
Rp433
(I3
S'|'
p434
NNNI4
I1
I0
tp435
bS'null'
p436
tp437
Rp438
sg78
g12
(g13
(S'S4'
p439
I0
I1
tp440
Rp441
(I3
S'|'
p442
NNNI4
I1
I0
tp443
bS'null'
p444
tp445
Rp446
sg87
g12
(g13
(S'S1'
p447
I0
I1
tp448
Rp449
(I3
S'|'
p450
NNNI1
I1
I0
tp451
bg93
tp452
Rp453
ssV515047
p454
(dp455
g10
I0
sg11
g12
(g13
(S'S20'
p456
I0
I1
tp457
Rp458
(I3
S'|'
p459
NNNI20
I1
I0
tp460
bS'anglicky, francuzsky'
p461
tp462
Rp463
sg22
g12
(g13
(S'S1'
p464
I0
I1
tp465
Rp466
(I3
S'|'
p467
NNNI1
I1
I0
tp468
bg93
tp469
Rp470
sg31
g12
(g13
(S'S43'
p471
I0
I1
tp472
Rp473
(I3
S'|'
p474
NNNI43
I1
I0
tp475
bS'bratislavsky kraj, bratislava - karlova ves'
p476
tp477
Rp478
sg40
g12
(g13
(S'S16'
p479
I0
I1
tp480
Rp481
(I3
S'|'
p482
NNNI16
I1
I0
tp483
bS'hokej, bicie, pc'
p484
tp485
Rp486
sg49
I0
sg50
I1
sg51
g12
(g13
(S'S2'
p487
I0
I1
tp488
Rp489
(I3
S'|'
p490
NNNI2
I1
I0
tp491
bS'25'
p492
tp493
Rp494
sg60
g12
(g13
(S'S13'
p495
I0
I1
tp496
Rp497
(I3
S'|'
p498
NNNI13
I1
I0
tp499
bS'vysokoskolske'
p500
tp501
Rp502
sg69
g12
(g13
(S'S19'
p503
I0
I1
tp504
Rp505
(I3
S'|'
p506
NNNI19
I1
I0
tp507
bS'v kuchyni pri stole'
p508
tp509
Rp510
sg78
g12
(g13
(S'S4'
p511
I0
I1
tp512
Rp513
(I3
S'|'
p514
NNNI4
I1
I0
tp515
bS'null'
p516
tp517
Rp518
sg87
g12
(g13
(S'S1'
p519
I0
I1
tp520
Rp521
(I3
S'|'
p522
NNNI1
I1
I0
tp523
bg93
tp524
Rp525
ssV156334
p526
(dp527
g10
I0
sg11
g12
(g13
(S'S45'
p528
I0
I1
tp529
Rp530
(I3
S'|'
p531
NNNI45
I1
I0
tp532
bS'anglicky, svoj, taliansky by som chcel vediet'
p533
tp534
Rp535
sg22
g12
(g13
(S'S1'
p536
I0
I1
tp537
Rp538
(I3
S'|'
p539
NNNI1
I1
I0
tp540
bg93
tp541
Rp542
sg31
g12
(g13
(S'S43'
p543
I0
I1
tp544
Rp545
(I3
S'|'
p546
NNNI43
I1
I0
tp547
bS'bratislavsky kraj, bratislava - karlova ves'
p548
tp549
Rp550
sg40
g12
(g13
(S'S134'
p551
I0
I1
tp552
Rp553
(I3
S'|'
p554
NNNI134
I1
I0
tp555
bS'pc hry, pozeranie filmov, party, nakupovanie, surfovanie po webe, pocuvanie hudby, varenie, kino, priatelia, divadlo, sex,tenis,futbal'
p556
tp557
Rp558
sg49
I0
sg50
I0
sg51
g12
(g13
(S'S2'
p559
I0
I1
tp560
Rp561
(I3
S'|'
p562
NNNI2
I1
I0
tp563
bS'34'
p564
tp565
Rp566
sg60
g12
(g13
(S'S4'
p567
I0
I1
tp568
Rp569
(I3
S'|'
p570
NNNI4
I1
I0
tp571
bS'null'
p572
tp573
Rp574
sg69
g12
(g13
(S'S9'
p575
I0
I1
tp576
Rp577
(I3
S'|'
p578
NNNI9
I1
I0
tp579
bS'pri telke'
p580
tp581
Rp582
sg78
g12
(g13
(S'S4'
p583
I0
I1
tp584
Rp585
(I3
S'|'
p586
NNNI4
I1
I0
tp587
bS'null'
p588
tp589
Rp590
sg87
g12
(g13
(S'S1'
p591
I0
I1
tp592
Rp593
(I3
S'|'
p594
NNNI1
I1
I0
tp595
bg28
tp596
Rp597
ssV92786
p598
(dp599
g10
I0
sg11
g12
(g13
(S'S21'
p600
I0
I1
tp601
Rp602
(I3
S'|'
p603
NNNI21
I1
I0
tp604
bS'anglicky, a ten svoj!'
p605
tp606
Rp607
sg22
g12
(g13
(S'S1'
p608
I0
I1
tp609
Rp610
(I3
S'|'
p611
NNNI1
I1
I0
tp612
bg28
tp613
Rp614
sg31
g12
(g13
(S'S43'
p615
I0
I1
tp616
Rp617
(I3
S'|'
p618
NNNI43
I1
I0
tp619
bS'bratislavsky kraj, bratislava - karlova ves'
p620
tp621
Rp622
sg40
g12
(g13
(S'S238'
p623
I0
I1
tp624
Rp625
(I3
S'|'
p626
NNNI238
I1
I0
tp627
bS'sportovanie, fotografovanie, cestovanie, surfovanie po webe, citanie, pocuvanie hudby, pozeranie filmov, tancovanie, kupalisko, varenie, kino, party, priatelia, spanie, nakupovanie, sex, stanovanie, mrteee ale 100percentne moji friends!!!'
p628
tp629
Rp630
sg49
I0
sg50
I1
sg51
g12
(g13
(S'S2'
p631
I0
I1
tp632
Rp633
(I3
S'|'
p634
NNNI2
I1
I0
tp635
bS'21'
p636
tp637
Rp638
sg60
g12
(g13
(S'S13'
p639
I0
I1
tp640
Rp641
(I3
S'|'
p642
NNNI13
I1
I0
tp643
bS'stredoskolske'
p644
tp645
Rp646
sg69
g12
(g13
(S'S118'
p647
I0
I1
tp648
Rp649
(I3
S'|'
p650
NNNI118
I1
I0
tp651
bS'pri svieckach s partnerom, v dobrej restauracii, v prirode, v posteli, z partnerovho bruska, a s tym koho mam rada..:)'
p652
tp653
Rp654
sg78
g12
(g13
(S'S4'
p655
I0
I1
tp656
Rp657
(I3
S'|'
p658
NNNI4
I1
I0
tp659
bS'null'
p660
tp661
Rp662
sg87
g12
(g13
(S'S1'
p663
I0
I1
tp664
Rp665
(I3
S'|'
p666
NNNI1
I1
I0
tp667
bg93
tp668
Rp669
ssV609274
p670
(dp671
g10
I0
sg11
g12
(g13
(S'S4'
p672
I0
I1
tp673
Rp674
(I3
S'|'
p675
NNNI4
I1
I0
tp676
bS'null'
p677
tp678
Rp679
sg22
g12
(g13
(S'S1'
p680
I0
I1
tp681
Rp682
(I3
S'|'
p683
NNNI1
I1
I0
tp684
bg93
tp685
Rp686
sg31
g12
(g13
(S'S43'
p687
I0
I1
tp688
Rp689
(I3
S'|'
p690
NNNI43
I1
I0
tp691
bS'bratislavsky kraj, bratislava - karlova ves'
p692
tp693
Rp694
sg40
g12
(g13
(S'S7'
p695
I0
I1
tp696
Rp697
(I3
S'|'
p698
NNNI7
I1
I0
tp699
bS'varenie'
p700
tp701
Rp702
sg49
I0
sg50
I1
sg51
g12
(g13
(S'S1'
p703
I0
I1
tp704
Rp705
(I3
S'|'
p706
NNNI1
I1
I0
tp707
bg28
tp708
Rp709
sg60
g12
(g13
(S'S4'
p710
I0
I1
tp711
Rp712
(I3
S'|'
p713
NNNI4
I1
I0
tp714
bS'null'
p715
tp716
Rp717
sg69
g12
(g13
(S'S4'
p718
I0
I1
tp719
Rp720
(I3
S'|'
p721
NNNI4
I1
I0
tp722
bS'null'
p723
tp724
Rp725
sg78
g12
(g13
(S'S4'
p726
I0
I1
tp727
Rp728
(I3
S'|'
p729
NNNI4
I1
I0
tp730
bS'null'
p731
tp732
Rp733
sg87
g12
(g13
(S'S1'
p734
I0
I1
tp735
Rp736
(I3
S'|'
p737
NNNI1
I1
I0
tp738
bg93
tp739
Rp740
ssV159565
p741
(dp742
g10
I0
sg11
g12
(g13
(S'S17'
p743
I0
I1
tp744
Rp745
(I3
S'|'
p746
NNNI17
I1
I0
tp747
bS'anglicky, nemecky'
p748
tp749
Rp750
sg22
g12
(g13
(S'S1'
p751
I0
I1
tp752
Rp753
(I3
S'|'
p754
NNNI1
I1
I0
tp755
bg28
tp756
Rp757
sg31
g12
(g13
(S'S43'
p758
I0
I1
tp759
Rp760
(I3
S'|'
p761
NNNI43
I1
I0
tp762
bS'bratislavsky kraj, bratislava - karlova ves'
p763
tp764
Rp765
sg40
g12
(g13
(S'S119'
p766
I0
I1
tp767
Rp768
(I3
S'|'
p769
NNNI119
I1
I0
tp770
bS'sportovanie,pozeranie filmov, tancovanie, diskoteky, kupalisko, jedlo, kino, party, priatelia, spanie, nakupovanie, sex'
p771
tp772
Rp773
sg49
I0
sg50
I0
sg51
g12
(g13
(S'S2'
p774
I0
I1
tp775
Rp776
(I3
S'|'
p777
NNNI2
I1
I0
tp778
bS'23'
p779
tp780
Rp781
sg60
g12
(g13
(S'S66'
p782
I0
I1
tp783
Rp784
(I3
S'|'
p785
NNNI66
I1
I0
tp786
bS'zakladne, neskor metodka, a teraz &quot;studujem&quot; v nitre :o)'
p787
tp788
Rp789
sg69
g12
(g13
(S'S27'
p790
I0
I1
tp791
Rp792
(I3
S'|'
p793
NNNI27
I1
I0
tp794
bS'ked je dobre tak hocikde :)'
p795
tp796
Rp797
sg78
g12
(g13
(S'S4'
p798
I0
I1
tp799
Rp800
(I3
S'|'
p801
NNNI4
I1
I0
tp802
bS'null'
p803
tp804
Rp805
sg87
g12
(g13
(S'S1'
p806
I0
I1
tp807
Rp808
(I3
S'|'
p809
NNNI1
I1
I0
tp810
bg93
tp811
Rp812
ssV658895
p813
(dp814
g10
I0
sg11
g12
(g13
(S'S4'
p815
I0
I1
tp816
Rp817
(I3
S'|'
p818
NNNI4
I1
I0
tp819
bS'null'
p820
tp821
Rp822
sg22
g12
(g13
(S'S1'
p823
I0
I1
tp824
Rp825
(I3
S'|'
p826
NNNI1
I1
I0
tp827
bg28
tp828
Rp829
sg31
g12
(g13
(S'S43'
p830
I0
I1
tp831
Rp832
(I3
S'|'
p833
NNNI43
I1
I0
tp834
bS'bratislavsky kraj, bratislava - karlova ves'
p835
tp836
Rp837
sg40
g12
(g13
(S'S4'
p838
I0
I1
tp839
Rp840
(I3
S'|'
p841
NNNI4
I1
I0
tp842
bS'null'
p843
tp844
Rp845
sg49
I0
sg50
I1
sg51
g12
(g13
(S'S1'
p846
I0
I1
tp847
Rp848
(I3
S'|'
p849
NNNI1
I1
I0
tp850
bg28
tp851
Rp852
sg60
g12
(g13
(S'S4'
p853
I0
I1
tp854
Rp855
(I3
S'|'
p856
NNNI4
I1
I0
tp857
bS'null'
p858
tp859
Rp860
sg69
g12
(g13
(S'S4'
p861
I0
I1
tp862
Rp863
(I3
S'|'
p864
NNNI4
I1
I0
tp865
bS'null'
p866
tp867
Rp868
sg78
g12
(g13
(S'S4'
p869
I0
I1
tp870
Rp871
(I3
S'|'
p872
NNNI4
I1
I0
tp873
bS'null'
p874
tp875
Rp876
sg87
g12
(g13
(S'S1'
p877
I0
I1
tp878
Rp879
(I3
S'|'
p880
NNNI1
I1
I0
tp881
bg93
tp882
Rp883
ssV859567
p884
(dp885
g10
I0
sg11
g12
(g13
(S'S83'
p886
I0
I1
tp887
Rp888
(I3
S'|'
p889
NNNI83
I1
I0
tp890
bS'anglicky, english is easy...i like rusty spoons.....i must find perfect spoon....xd'
p891
tp892
Rp893
sg22
g12
(g13
(S'S1'
p894
I0
I1
tp895
Rp896
(I3
S'|'
p897
NNNI1
I1
I0
tp898
bg28
tp899
Rp900
sg31
g12
(g13
(S'S43'
p901
I0
I1
tp902
Rp903
(I3
S'|'
p904
NNNI43
I1
I0
tp905
bS'bratislavsky kraj, bratislava - karlova ves'
p906
tp907
Rp908
sg40
g12
(g13
(S'S250'
p909
I0
I1
tp910
Rp911
(I3
S'|'
p912
NNNI250
I1
I0
tp913
bS'sportovanie, fotografovanie, praca s pc, pc hry, citanie, pocuvanie hudby, pozeranie filmov, malovanie, kupalisko, jedlo, kino, priatelia, spanie, sex, najcastejsie ma vsak asi najdete pri compe...bud drtim nejaku hru,alebo sa hram v movie makeri....'
p914
tp915
Rp916
sg49
I0
sg50
I0
sg51
g12
(g13
(S'S2'
p917
I0
I1
tp918
Rp919
(I3
S'|'
p920
NNNI2
I1
I0
tp921
bS'22'
p922
tp923
Rp924
sg60
g12
(g13
(S'S33'
p925
I0
I1
tp926
Rp927
(I3
S'|'
p928
NNNI33
I1
I0
tp929
bS'zakladne, studujem na strednej...'
p930
tp931
Rp932
sg69
g12
(g13
(S'S65'
p933
I0
I1
tp934
Rp935
(I3
S'|'
p936
NNNI65
I1
I0
tp937
bS'pri telke, to je vacsia haluz...hlavne ked to vykydnem na seba...'
p938
tp939
Rp940
sg78
g12
(g13
(S'S4'
p941
I0
I1
tp942
Rp943
(I3
S'|'
p944
NNNI4
I1
I0
tp945
bS'null'
p946
tp947
Rp948
sg87
g12
(g13
(S'S1'
p949
I0
I1
tp950
Rp951
(I3
S'|'
p952
NNNI1
I1
I0
tp953
bg93
tp954
Rp955
ssV748263
p956
(dp957
g10
I0
sg11
g12
(g13
(S'S16'
p958
I0
I1
tp959
Rp960
(I3
S'|'
p961
NNNI16
I1
I0
tp962
bS'anglicky,, rusky'
p963
tp964
Rp965
sg22
g12
(g13
(S'S1'
p966
I0
I1
tp967
Rp968
(I3
S'|'
p969
NNNI1
I1
I0
tp970
bg28
tp971
Rp972
sg31
g12
(g13
(S'S43'
p973
I0
I1
tp974
Rp975
(I3
S'|'
p976
NNNI43
I1
I0
tp977
bS'bratislavsky kraj, bratislava - karlova ves'
p978
tp979
Rp980
sg40
g12
(g13
(S'S205'
p981
I0
I1
tp982
Rp983
(I3
S'|'
p984
NNNI205
I1
I0
tp985
bS'sportovanie, praca s pc, pc hry, surfovanie po webe, pocuvanie hudby, pozeranie filmov, chovatelstvo, jedlo, kino, party, priatelia, spanie, nakupovanie, boze tych je este vela ale to sa mi tu nehce pisatt'
p986
tp987
Rp988
sg49
I0
sg50
I0
sg51
g12
(g13
(S'S2'
p989
I0
I1
tp990
Rp991
(I3
S'|'
p992
NNNI2
I1
I0
tp993
bS'19'
p994
tp995
Rp996
sg60
g12
(g13
(S'S47'
p997
I0
I1
tp998
Rp999
(I3
S'|'
p1000
NNNI47
I1
I0
tp1001
bS'zakladne, a ak sa pocita aj skolka tak aj tu =d'
p1002
tp1003
Rp1004
sg69
g12
(g13
(S'S150'
p1005
I0
I1
tp1006
Rp1007
(I3
S'|'
p1008
NNNI150
I1
I0
tp1009
bS'pri telke, v dobrej restauracii, v posteli, ze v prirode?? jaj to kto se dal tu moznost to tam budem zrat nejakych mravcov v lede nee mno uz ma vidite'
p1010
tp1011
Rp1012
sg78
g12
(g13
(S'S4'
p1013
I0
I1
tp1014
Rp1015
(I3
S'|'
p1016
NNNI4
I1
I0
tp1017
bS'null'
p1018
tp1019
Rp1020
sg87
g12
(g13
(S'S1'
p1021
I0
I1
tp1022
Rp1023
(I3
S'|'
p1024
NNNI1
I1
I0
tp1025
bg93
tp1026
Rp1027
ssS'57865'
p1028
(dp1029
g10
I0
sg11
g12
(g13
(S'S17'
p1030
I0
I1
tp1031
Rp1032
(I3
S'|'
p1033
NNNI17
I1
I0
tp1034
bS'anglicky, nemecky'
p1035
tp1036
Rp1037
sg22
g12
(g13
(S'S1'
p1038
I0
I1
tp1039
Rp1040
(I3
S'|'
p1041
NNNI1
I1
I0
tp1042
bg28
tp1043
Rp1044
sg31
g12
(g13
(S'S43'
p1045
I0
I1
tp1046
Rp1047
(I3
S'|'
p1048
NNNI43
I1
I0
tp1049
bS'bratislavsky kraj, bratislava - karlova ves'
p1050
tp1051
Rp1052
sg40
g12
(g13
(S'S24'
p1053
I0
I1
tp1054
Rp1055
(I3
S'|'
p1056
NNNI24
I1
I0
tp1057
bS'spytaj sa, rada odpoviem'
p1058
tp1059
Rp1060
sg49
I0
sg50
I1
sg51
g12
(g13
(S'S2'
p1061
I0
I1
tp1062
Rp1063
(I3
S'|'
p1064
NNNI2
I1
I0
tp1065
bS'23'
p1066
tp1067
Rp1068
sg60
g12
(g13
(S'S7'
p1069
I0
I1
tp1070
Rp1071
(I3
S'|'
p1072
NNNI7
I1
I0
tp1073
bS'stredne'
p1074
tp1075
Rp1076
sg69
g12
(g13
(S'S4'
p1077
I0
I1
tp1078
Rp1079
(I3
S'|'
p1080
NNNI4
I1
I0
tp1081
bS'null'
p1082
tp1083
Rp1084
sg78
g12
(g13
(S'S4'
p1085
I0
I1
tp1086
Rp1087
(I3
S'|'
p1088
NNNI4
I1
I0
tp1089
bS'null'
p1090
tp1091
Rp1092
sg87
g12
(g13
(S'S1'
p1093
I0
I1
tp1094
Rp1095
(I3
S'|'
p1096
NNNI1
I1
I0
tp1097
bg93
tp1098
Rp1099
ssS'1120109'
p1100
(dp1101
g10
I0
sg11
g12
(g13
(S'S4'
p1102
I0
I1
tp1103
Rp1104
(I3
S'|'
p1105
NNNI4
I1
I0
tp1106
bS'null'
p1107
tp1108
Rp1109
sg22
g12
(g13
(S'S1'
p1110
I0
I1
tp1111
Rp1112
(I3
S'|'
p1113
NNNI1
I1
I0
tp1114
bg93
tp1115
Rp1116
sg31
g12
(g13
(S'S43'
p1117
I0
I1
tp1118
Rp1119
(I3
S'|'
p1120
NNNI43
I1
I0
tp1121
bS'bratislavsky kraj, bratislava - karlova ves'
p1122
tp1123
Rp1124
sg40
g12
(g13
(S'S53'
p1125
I0
I1
tp1126
Rp1127
(I3
S'|'
p1128
NNNI53
I1
I0
tp1129
bS'pocuvanie hudby, pozeranie filmov, priatelia, divadlo'
p1130
tp1131
Rp1132
sg49
I0
sg50
I1
sg51
g12
(g13
(S'S2'
p1133
I0
I1
tp1134
Rp1135
(I3
S'|'
p1136
NNNI2
I1
I0
tp1137
bS'27'
p1138
tp1139
Rp1140
sg60
g12
(g13
(S'S13'
p1141
I0
I1
tp1142
Rp1143
(I3
S'|'
p1144
NNNI13
I1
I0
tp1145
bS'stredoskolske'
p1146
tp1147
Rp1148
sg69
g12
(g13
(S'S20'
p1149
I0
I1
tp1150
Rp1151
(I3
S'|'
p1152
NNNI20
I1
I0
tp1153
bS'v dobrej restauracii'
p1154
tp1155
Rp1156
sg78
g12
(g13
(S'S4'
p1157
I0
I1
tp1158
Rp1159
(I3
S'|'
p1160
NNNI4
I1
I0
tp1161
bS'null'
p1162
tp1163
Rp1164
sg87
g12
(g13
(S'S1'
p1165
I0
I1
tp1166
Rp1167
(I3
S'|'
p1168
NNNI1
I1
I0
tp1169
bg28
tp1170
Rp1171
ssS'1470560'
p1172
(dp1173
g10
I0
sg11
g12
(g13
(S'S28'
p1174
I0
I1
tp1175
Rp1176
(I3
S'|'
p1177
NNNI28
I1
I0
tp1178
bS'anglicky, nemecky, taliansky'
p1179
tp1180
Rp1181
sg22
g12
(g13
(S'S1'
p1182
I0
I1
tp1183
Rp1184
(I3
S'|'
p1185
NNNI1
I1
I0
tp1186
bg28
tp1187
Rp1188
sg31
g12
(g13
(S'S43'
p1189
I0
I1
tp1190
Rp1191
(I3
S'|'
p1192
NNNI43
I1
I0
tp1193
bS'bratislavsky kraj, bratislava - karlova ves'
p1194
tp1195
Rp1196
sg40
g12
(g13
(S'S85'
p1197
I0
I1
tp1198
Rp1199
(I3
S'|'
p1200
NNNI85
I1
I0
tp1201
bS'varenie, nakupovanie, sex, sport pasivne...hlavne biathlon...skoky na lyziach, tenis,'
p1202
tp1203
Rp1204
sg49
I0
sg50
I1
sg51
g12
(g13
(S'S2'
p1205
I0
I1
tp1206
Rp1207
(I3
S'|'
p1208
NNNI2
I1
I0
tp1209
bS'41'
p1210
tp1211
Rp1212
sg60
g12
(g13
(S'S3'
p1213
I0
I1
tp1214
Rp1215
(I3
S'|'
p1216
NNNI3
I1
I0
tp1217
bS'mam'
p1218
tp1219
Rp1220
sg69
g12
(g13
(S'S30'
p1221
I0
I1
tp1222
Rp1223
(I3
S'|'
p1224
NNNI30
I1
I0
tp1225
bS'to co si navarim to si aj zjem'
p1226
tp1227
Rp1228
sg78
g12
(g13
(S'S4'
p1229
I0
I1
tp1230
Rp1231
(I3
S'|'
p1232
NNNI4
I1
I0
tp1233
bS'null'
p1234
tp1235
Rp1236
sg87
g12
(g13
(S'S1'
p1237
I0
I1
tp1238
Rp1239
(I3
S'|'
p1240
NNNI1
I1
I0
tp1241
bg93
tp1242
Rp1243
ssV874635
p1244
(dp1245
g10
I0
sg11
g12
(g13
(S'S4'
p1246
I0
I1
tp1247
Rp1248
(I3
S'|'
p1249
NNNI4
I1
I0
tp1250
bS'null'
p1251
tp1252
Rp1253
sg22
g12
(g13
(S'S1'
p1254
I0
I1
tp1255
Rp1256
(I3
S'|'
p1257
NNNI1
I1
I0
tp1258
bg93
tp1259
Rp1260
sg31
g12
(g13
(S'S43'
p1261
I0
I1
tp1262
Rp1263
(I3
S'|'
p1264
NNNI43
I1
I0
tp1265
bS'bratislavsky kraj, bratislava - karlova ves'
p1266
tp1267
Rp1268
sg40
g12
(g13
(S'S48'
p1269
I0
I1
tp1270
Rp1271
(I3
S'|'
p1272
NNNI48
I1
I0
tp1273
bS'utekanie revizorom, taxikarom a inym podobnym...'
p1274
tp1275
Rp1276
sg49
I0
sg50
I0
sg51
g12
(g13
(S'S1'
p1277
I0
I1
tp1278
Rp1279
(I3
S'|'
p1280
NNNI1
I1
I0
tp1281
bg28
tp1282
Rp1283
sg60
g12
(g13
(S'S4'
p1284
I0
I1
tp1285
Rp1286
(I3
S'|'
p1287
NNNI4
I1
I0
tp1288
bS'null'
p1289
tp1290
Rp1291
sg69
g12
(g13
(S'S54'
p1292
I0
I1
tp1293
Rp1294
(I3
S'|'
p1295
NNNI54
I1
I0
tp1296
bS'v dobrej restauracii, v posteli, dobre jedlo hocikde..'
p1297
tp1298
Rp1299
sg78
g12
(g13
(S'S4'
p1300
I0
I1
tp1301
Rp1302
(I3
S'|'
p1303
NNNI4
I1
I0
tp1304
bS'null'
p1305
tp1306
Rp1307
sg87
g12
(g13
(S'S1'
p1308
I0
I1
tp1309
Rp1310
(I3
S'|'
p1311
NNNI1
I1
I0
tp1312
bg93
tp1313
Rp1314
ssS'437880'
p1315
(dp1316
g10
I0
sg11
g12
(g13
(S'S17'
p1317
I0
I1
tp1318
Rp1319
(I3
S'|'
p1320
NNNI17
I1
I0
tp1321
bS'anglicky, nemecky'
p1322
tp1323
Rp1324
sg22
g12
(g13
(S'S1'
p1325
I0
I1
tp1326
Rp1327
(I3
S'|'
p1328
NNNI1
I1
I0
tp1329
bg93
tp1330
Rp1331
sg31
g12
(g13
(S'S43'
p1332
I0
I1
tp1333
Rp1334
(I3
S'|'
p1335
NNNI43
I1
I0
tp1336
bS'bratislavsky kraj, bratislava - karlova ves'
p1337
tp1338
Rp1339
sg40
g12
(g13
(S'S176'
p1340
I0
I1
tp1341
Rp1342
(I3
S'|'
p1343
NNNI176
I1
I0
tp1344
bS'sportovanie, fotografovanie, praca s pc, pc hry, pocuvanie hudby, pozeranie filmov, tancovanie, diskoteky, kupalisko, varenie, jedlo, kino, party, priatelia, spanie, stanovanie'
p1345
tp1346
Rp1347
sg49
I0
sg50
I1
sg51
g12
(g13
(S'S2'
p1348
I0
I1
tp1349
Rp1350
(I3
S'|'
p1351
NNNI2
I1
I0
tp1352
bS'23'
p1353
tp1354
Rp1355
sg60
g12
(g13
(S'S13'
p1356
I0
I1
tp1357
Rp1358
(I3
S'|'
p1359
NNNI13
I1
I0
tp1360
bS'stredoskolske'
p1361
tp1362
Rp1363
sg69
g12
(g13
(S'S102'
p1364
I0
I1
tp1365
Rp1366
(I3
S'|'
p1367
NNNI102
I1
I0
tp1368
bS'pri telke, pri svieckach s partnerom, v dobrej restauracii, v prirode, v posteli, z partnerovho bruska'
p1369
tp1370
Rp1371
sg78
g12
(g13
(S'S4'
p1372
I0
I1
tp1373
Rp1374
(I3
S'|'
p1375
NNNI4
I1
I0
tp1376
bS'null'
p1377
tp1378
Rp1379
sg87
g12
(g13
(S'S1'
p1380
I0
I1
tp1381
Rp1382
(I3
S'|'
p1383
NNNI1
I1
I0
tp1384
bg93
tp1385
Rp1386
ssS'283141'
p1387
(dp1388
g10
I0
sg11
g12
(g13
(S'S33'
p1389
I0
I1
tp1390
Rp1391
(I3
S'|'
p1392
NNNI33
I1
I0
tp1393
bS'anglicky, cesky slovensky,arabsky'
p1394
tp1395
Rp1396
sg22
g12
(g13
(S'S1'
p1397
I0
I1
tp1398
Rp1399
(I3
S'|'
p1400
NNNI1
I1
I0
tp1401
bg93
tp1402
Rp1403
sg31
g12
(g13
(S'S43'
p1404
I0
I1
tp1405
Rp1406
(I3
S'|'
p1407
NNNI43
I1
I0
tp1408
bS'bratislavsky kraj, bratislava - karlova ves'
p1409
tp1410
Rp1411
sg40
g12
(g13
(S'S75'
p1412
I0
I1
tp1413
Rp1414
(I3
S'|'
p1415
NNNI75
I1
I0
tp1416
bS'sportovanie, cestovanie, malovanie, kupalisko, jedlo, party, priatelia, sex'
p1417
tp1418
Rp1419
sg49
I0
sg50
I0
sg51
g12
(g13
(S'S2'
p1420
I0
I1
tp1421
Rp1422
(I3
S'|'
p1423
NNNI2
I1
I0
tp1424
bS'21'
p1425
tp1426
Rp1427
sg60
g12
(g13
(S'S8'
p1428
I0
I1
tp1429
Rp1430
(I3
S'|'
p1431
NNNI8
I1
I0
tp1432
bS'zakladne'
p1433
tp1434
Rp1435
sg69
g12
(g13
(S'S31'
p1436
I0
I1
tp1437
Rp1438
(I3
S'|'
p1439
NNNI31
I1
I0
tp1440
bS'pri telke, v dobrej restauracii'
p1441
tp1442
Rp1443
sg78
g12
(g13
(S'S4'
p1444
I0
I1
tp1445
Rp1446
(I3
S'|'
p1447
NNNI4
I1
I0
tp1448
bS'null'
p1449
tp1450
Rp1451
sg87
g12
(g13
(S'S1'
p1452
I0
I1
tp1453
Rp1454
(I3
S'|'
p1455
NNNI1
I1
I0
tp1456
bg93
tp1457
Rp1458
ssV717401
p1459
(dp1460
g10
I0
sg11
g12
(g13
(S'S39'
p1461
I0
I1
tp1462
Rp1463
(I3
S'|'
p1464
NNNI39
I1
I0
tp1465
bS'nemecky, ....aaa somazrejme ten svoj...'
p1466
tp1467
Rp1468
sg22
g12
(g13
(S'S1'
p1469
I0
I1
tp1470
Rp1471
(I3
S'|'
p1472
NNNI1
I1
I0
tp1473
bg28
tp1474
Rp1475
sg31
g12
(g13
(S'S43'
p1476
I0
I1
tp1477
Rp1478
(I3
S'|'
p1479
NNNI43
I1
I0
tp1480
bS'bratislavsky kraj, bratislava - karlova ves'
p1481
tp1482
Rp1483
sg40
g12
(g13
(S'S180'
p1484
I0
I1
tp1485
Rp1486
(I3
S'|'
p1487
NNNI180
I1
I0
tp1488
bS'sportovanie, fotografovanie, cestovanie, surfovanie po webe, pocuvanie hudby, pozeranie filmov, tancovanie, diskoteky, kupalisko, jedlo, kino, party, priatelia, spanie, nakupovanie'
p1489
tp1490
Rp1491
sg49
I0
sg50
I1
sg51
g12
(g13
(S'S2'
p1492
I0
I1
tp1493
Rp1494
(I3
S'|'
p1495
NNNI2
I1
I0
tp1496
bS'22'
p1497
tp1498
Rp1499
sg60
g12
(g13
(S'S8'
p1500
I0
I1
tp1501
Rp1502
(I3
S'|'
p1503
NNNI8
I1
I0
tp1504
bS'zakladne'
p1505
tp1506
Rp1507
sg69
g12
(g13
(S'S20'
p1508
I0
I1
tp1509
Rp1510
(I3
S'|'
p1511
NNNI20
I1
I0
tp1512
bS'pri telke, v posteli'
p1513
tp1514
Rp1515
sg78
g12
(g13
(S'S4'
p1516
I0
I1
tp1517
Rp1518
(I3
S'|'
p1519
NNNI4
I1
I0
tp1520
bS'null'
p1521
tp1522
Rp1523
sg87
g12
(g13
(S'S1'
p1524
I0
I1
tp1525
Rp1526
(I3
S'|'
p1527
NNNI1
I1
I0
tp1528
bg93
tp1529
Rp1530
ssS'551813'
p1531
(dp1532
g10
I0
sg11
g12
(g13
(S'S25'
p1533
I0
I1
tp1534
Rp1535
(I3
S'|'
p1536
NNNI25
I1
I0
tp1537
bS'anglicky, nemecky pasivne'
p1538
tp1539
Rp1540
sg22
g12
(g13
(S'S1'
p1541
I0
I1
tp1542
Rp1543
(I3
S'|'
p1544
NNNI1
I1
I0
tp1545
bg93
tp1546
Rp1547
sg31
g12
(g13
(S'S43'
p1548
I0
I1
tp1549
Rp1550
(I3
S'|'
p1551
NNNI43
I1
I0
tp1552
bS'bratislavsky kraj, bratislava - karlova ves'
p1553
tp1554
Rp1555
sg40
g12
(g13
(S'S25'
p1556
I0
I1
tp1557
Rp1558
(I3
S'|'
p1559
NNNI25
I1
I0
tp1560
bS'pocuvat teba a prikyvovat'
p1561
tp1562
Rp1563
sg49
I0
sg50
I1
sg51
g12
(g13
(S'S2'
p1564
I0
I1
tp1565
Rp1566
(I3
S'|'
p1567
NNNI2
I1
I0
tp1568
bS'23'
p1569
tp1570
Rp1571
sg60
g12
(g13
(S'S57'
p1572
I0
I1
tp1573
Rp1574
(I3
S'|'
p1575
NNNI57
I1
I0
tp1576
bS'zakladne, stredoskolske, zahradkarska nadstavba s furikom'
p1577
tp1578
Rp1579
sg69
g12
(g13
(S'S20'
p1580
I0
I1
tp1581
Rp1582
(I3
S'|'
p1583
NNNI20
I1
I0
tp1584
bS'pred telkou na gauci'
p1585
tp1586
Rp1587
sg78
g12
(g13
(S'S4'
p1588
I0
I1
tp1589
Rp1590
(I3
S'|'
p1591
NNNI4
I1
I0
tp1592
bS'null'
p1593
tp1594
Rp1595
sg87
g12
(g13
(S'S1'
p1596
I0
I1
tp1597
Rp1598
(I3
S'|'
p1599
NNNI1
I1
I0
tp1600
bg28
tp1601
Rp1602
ssS'218772'
p1603
(dp1604
g10
I1
sg11
g12
(g13
(S'S4'
p1605
I0
I1
tp1606
Rp1607
(I3
S'|'
p1608
NNNI4
I1
I0
tp1609
bS'null'
p1610
tp1611
Rp1612
sg22
g12
(g13
(S'S1'
p1613
I0
I1
tp1614
Rp1615
(I3
S'|'
p1616
NNNI1
I1
I0
tp1617
bg28
tp1618
Rp1619
sg31
g12
(g13
(S'S43'
p1620
I0
I1
tp1621
Rp1622
(I3
S'|'
p1623
NNNI43
I1
I0
tp1624
bS'bratislavsky kraj, bratislava - karlova ves'
p1625
tp1626
Rp1627
sg40
g12
(g13
(S'S421'
p1628
I0
I1
tp1629
Rp1630
(I3
S'|'
p1631
NNNI421
I1
I0
tp1632
bS'fotografovanie, surfovanie po webe, pocuvanie hudby, pozeranie filmov, chovatelstvo, malovanie, diskoteky, kupalisko, varenie, jedlo, kino, party, priatelia, spanie, divadlo, nakupovanie, sex, stanovanie, chodenie do muzei, spev vela spevu a este viac spevu spev je asi to jedine co ma momentalne drzi na nohach inak bvy som asi skoncila na psychiatrii a este najnovsie som segre robila na hlave kukuricu a podarila sa mi'
p1633
tp1634
Rp1635
sg49
I0
sg50
I0
sg51
g12
(g13
(S'S2'
p1636
I0
I1
tp1637
Rp1638
(I3
S'|'
p1639
NNNI2
I1
I0
tp1640
bS'25'
p1641
tp1642
Rp1643
sg60
g12
(g13
(S'S59'
p1644
I0
I1
tp1645
Rp1646
(I3
S'|'
p1647
NNNI59
I1
I0
tp1648
bS'stredoskolske,  pedagogicka strednu skolu deticky traste sa'
p1649
tp1650
Rp1651
sg69
g12
(g13
(S'S231'
p1652
I0
I1
tp1653
Rp1654
(I3
S'|'
p1655
NNNI231
I1
I0
tp1656
bS'pri telke, pri svieckach s partnerom, v dobrej restauracii, v prirode, v posteli, z partnerovho bruska, vsade kde sa jedlo nachadza a da sa jest bez toho aby som tam bola sama nedokazem jest sama neznasam to celkovo neznasam samotu'
p1657
tp1658
Rp1659
sg78
g12
(g13
(S'S4'
p1660
I0
I1
tp1661
Rp1662
(I3
S'|'
p1663
NNNI4
I1
I0
tp1664
bS'null'
p1665
tp1666
Rp1667
sg87
g12
(g13
(S'S1'
p1668
I0
I1
tp1669
Rp1670
(I3
S'|'
p1671
NNNI1
I1
I0
tp1672
bg93
tp1673
Rp1674
ssV349864
p1675
(dp1676
g10
I0
sg11
g12
(g13
(S'S23'
p1677
I0
I1
tp1678
Rp1679
(I3
S'|'
p1680
NNNI23
I1
I0
tp1681
bS'anglicky, a moj vlastny'
p1682
tp1683
Rp1684
sg22
g12
(g13
(S'S1'
p1685
I0
I1
tp1686
Rp1687
(I3
S'|'
p1688
NNNI1
I1
I0
tp1689
bg93
tp1690
Rp1691
sg31
g12
(g13
(S'S43'
p1692
I0
I1
tp1693
Rp1694
(I3
S'|'
p1695
NNNI43
I1
I0
tp1696
bS'bratislavsky kraj, bratislava - karlova ves'
p1697
tp1698
Rp1699
sg40
g12
(g13
(S'S335'
p1700
I0
I1
tp1701
Rp1702
(I3
S'|'
p1703
NNNI335
I1
I0
tp1704
bS'sportovanie, fotografovanie, turistika, hackovanie, vysivanie, prace v zahrade, prace okolo domu, praca s pc, surfovanie po webe, citanie, pocuvanie hudby, pozeranie filmov, chovatelstvo, tancovanie, diskoteky, kupalisko, varenie, jedlo, party, priatelia, spanie, divadlo, sex, stanovanie, chodenie do muzei, ale hackovanie is the best'
p1705
tp1706
Rp1707
sg49
I0
sg50
I0
sg51
g12
(g13
(S'S2'
p1708
I0
I1
tp1709
Rp1710
(I3
S'|'
p1711
NNNI2
I1
I0
tp1712
bS'24'
p1713
tp1714
Rp1715
sg60
g12
(g13
(S'S46'
p1716
I0
I1
tp1717
Rp1718
(I3
S'|'
p1719
NNNI46
I1
I0
tp1720
bS'stredoskolske, uz sa pracuje na vysokoskolskom'
p1721
tp1722
Rp1723
sg69
g12
(g13
(S'S124'
p1724
I0
I1
tp1725
Rp1726
(I3
S'|'
p1727
NNNI124
I1
I0
tp1728
bS'pri telke, pri svieckach s partnerom, v dobrej restauracii, v prirode, v posteli, z partnerovho bruska, hlavne ked ho jem ja'
p1729
tp1730
Rp1731
sg78
g12
(g13
(S'S85'
p1732
I0
I1
tp1733
Rp1734
(I3
S'|'
p1735
NNNI85
I1
I0
tp1736
bS'<div> <a title="vstup do klubu" href="/klub/moderna-fyzika">moderna fyzika</a> </div>'
p1737
tp1738
Rp1739
sg87
g12
(g13
(S'S1'
p1740
I0
I1
tp1741
Rp1742
(I3
S'|'
p1743
NNNI1
I1
I0
tp1744
bg93
tp1745
Rp1746
ssV672734
p1747
(dp1748
g10
I0
sg11
g12
(g13
(S'S15'
p1749
I0
I1
tp1750
Rp1751
(I3
S'|'
p1752
NNNI15
I1
I0
tp1753
bS'vseho tak trosu'
p1754
tp1755
Rp1756
sg22
g12
(g13
(S'S1'
p1757
I0
I1
tp1758
Rp1759
(I3
S'|'
p1760
NNNI1
I1
I0
tp1761
bg93
tp1762
Rp1763
sg31
g12
(g13
(S'S43'
p1764
I0
I1
tp1765
Rp1766
(I3
S'|'
p1767
NNNI43
I1
I0
tp1768
bS'bratislavsky kraj, bratislava - karlova ves'
p1769
tp1770
Rp1771
sg40
g12
(g13
(S'S81'
p1772
I0
I1
tp1773
Rp1774
(I3
S'|'
p1775
NNNI81
I1
I0
tp1776
bS'praca s pc, surfovanie po webe, pocuvanie hudby, pozeranie filmov, diskoteky, sex'
p1777
tp1778
Rp1779
sg49
I0
sg50
I1
sg51
g12
(g13
(S'S2'
p1780
I0
I1
tp1781
Rp1782
(I3
S'|'
p1783
NNNI2
I1
I0
tp1784
bS'25'
p1785
tp1786
Rp1787
sg60
g12
(g13
(S'S13'
p1788
I0
I1
tp1789
Rp1790
(I3
S'|'
p1791
NNNI13
I1
I0
tp1792
bS'stredoskolske'
p1793
tp1794
Rp1795
sg69
g12
(g13
(S'S4'
p1796
I0
I1
tp1797
Rp1798
(I3
S'|'
p1799
NNNI4
I1
I0
tp1800
bS'null'
p1801
tp1802
Rp1803
sg78
g12
(g13
(S'S4'
p1804
I0
I1
tp1805
Rp1806
(I3
S'|'
p1807
NNNI4
I1
I0
tp1808
bS'null'
p1809
tp1810
Rp1811
sg87
g12
(g13
(S'S1'
p1812
I0
I1
tp1813
Rp1814
(I3
S'|'
p1815
NNNI1
I1
I0
tp1816
bg93
tp1817
Rp1818
ssS'240597'
p1819
(dp1820
g10
I0
sg11
g12
(g13
(S'S4'
p1821
I0
I1
tp1822
Rp1823
(I3
S'|'
p1824
NNNI4
I1
I0
tp1825
bS'null'
p1826
tp1827
Rp1828
sg22
g12
(g13
(S'S1'
p1829
I0
I1
tp1830
Rp1831
(I3
S'|'
p1832
NNNI1
I1
I0
tp1833
bg28
tp1834
Rp1835
sg31
g12
(g13
(S'S43'
p1836
I0
I1
tp1837
Rp1838
(I3
S'|'
p1839
NNNI43
I1
I0
tp1840
bS'bratislavsky kraj, bratislava - karlova ves'
p1841
tp1842
Rp1843
sg40
g12
(g13
(S'S84'
p1844
I0
I1
tp1845
Rp1846
(I3
S'|'
p1847
NNNI84
I1
I0
tp1848
bS'surfovanie po webe, pocuvanie hudby, tancovanie, kino, party, priatelia, nakupovanie'
p1849
tp1850
Rp1851
sg49
I0
sg50
I1
sg51
g12
(g13
(S'S2'
p1852
I0
I1
tp1853
Rp1854
(I3
S'|'
p1855
NNNI2
I1
I0
tp1856
bS'18'
p1857
tp1858
Rp1859
sg60
g12
(g13
(S'S4'
p1860
I0
I1
tp1861
Rp1862
(I3
S'|'
p1863
NNNI4
I1
I0
tp1864
bS'null'
p1865
tp1866
Rp1867
sg69
g12
(g13
(S'S31'
p1868
I0
I1
tp1869
Rp1870
(I3
S'|'
p1871
NNNI31
I1
I0
tp1872
bS'pri telke, v dobrej restauracii'
p1873
tp1874
Rp1875
sg78
g12
(g13
(S'S4'
p1876
I0
I1
tp1877
Rp1878
(I3
S'|'
p1879
NNNI4
I1
I0
tp1880
bS'null'
p1881
tp1882
Rp1883
sg87
g12
(g13
(S'S1'
p1884
I0
I1
tp1885
Rp1886
(I3
S'|'
p1887
NNNI1
I1
I0
tp1888
bg93
tp1889
Rp1890
ssV507833
p1891
(dp1892
g10
I0
sg11
g12
(g13
(S'S94'
p1893
I0
I1
tp1894
Rp1895
(I3
S'|'
p1896
NNNI94
I1
I0
tp1897
bS'nemecky, a ten svoj ale chcela by som vediet vsetky jazyky sveta.len komu sa to chce ucit? :))'
p1898
tp1899
Rp1900
sg22
g12
(g13
(S'S1'
p1901
I0
I1
tp1902
Rp1903
(I3
S'|'
p1904
NNNI1
I1
I0
tp1905
bg28
tp1906
Rp1907
sg31
g12
(g13
(S'S43'
p1908
I0
I1
tp1909
Rp1910
(I3
S'|'
p1911
NNNI43
I1
I0
tp1912
bS'bratislavsky kraj, bratislava - karlova ves'
p1913
tp1914
Rp1915
sg40
g12
(g13
(S'S336'
p1916
I0
I1
tp1917
Rp1918
(I3
S'|'
p1919
NNNI336
I1
I0
tp1920
bS'fotografovanie, cestovanie, surfovanie po webe, pocuvanie hudby, pozeranie filmov, malovanie, tancovanie, diskoteky, kupalisko, varenie, jedlo, kino, party, priatelia, spanie, nakupovanie, sex, najoblubenejsie je spanok.kto ma pozna vie ze dokazem spat 17 hodin v kuse:)moj rekord.a to som nebola po ziadnom flame!,,,,,a milujem kreslit'
p1921
tp1922
Rp1923
sg49
I0
sg50
I0
sg51
g12
(g13
(S'S2'
p1924
I0
I1
tp1925
Rp1926
(I3
S'|'
p1927
NNNI2
I1
I0
tp1928
bS'24'
p1929
tp1930
Rp1931
sg60
g12
(g13
(S'S8'
p1932
I0
I1
tp1933
Rp1934
(I3
S'|'
p1935
NNNI8
I1
I0
tp1936
bS'zakladne'
p1937
tp1938
Rp1939
sg69
g12
(g13
(S'S42'
p1940
I0
I1
tp1941
Rp1942
(I3
S'|'
p1943
NNNI42
I1
I0
tp1944
bS'pri telke, v dobrej restauracii, v posteli'
p1945
tp1946
Rp1947
sg78
g12
(g13
(S'S4'
p1948
I0
I1
tp1949
Rp1950
(I3
S'|'
p1951
NNNI4
I1
I0
tp1952
bS'null'
p1953
tp1954
Rp1955
sg87
g12
(g13
(S'S1'
p1956
I0
I1
tp1957
Rp1958
(I3
S'|'
p1959
NNNI1
I1
I0
tp1960
bg28
tp1961
Rp1962
ssV593633
p1963
(dp1964
g10
I0
sg11
g12
(g13
(S'S8'
p1965
I0
I1
tp1966
Rp1967
(I3
S'|'
p1968
NNNI8
I1
I0
tp1969
bS'anglicky'
p1970
tp1971
Rp1972
sg22
g12
(g13
(S'S1'
p1973
I0
I1
tp1974
Rp1975
(I3
S'|'
p1976
NNNI1
I1
I0
tp1977
bg28
tp1978
Rp1979
sg31
g12
(g13
(S'S43'
p1980
I0
I1
tp1981
Rp1982
(I3
S'|'
p1983
NNNI43
I1
I0
tp1984
bS'bratislavsky kraj, bratislava - karlova ves'
p1985
tp1986
Rp1987
sg40
g12
(g13
(S'S231'
p1988
I0
I1
tp1989
Rp1990
(I3
S'|'
p1991
NNNI231
I1
I0
tp1992
bS'fotografovanie, cestovanie, hackovanie, vysivanie, sitie, praca s pc, surfovanie po webe, pocuvanie hudby, chovatelstvo, malovanie, tancovanie, varenie, jedlo, kino, party, priatelia, spanie, divadlo, nakupovanie, chodenie do muzei'
p1993
tp1994
Rp1995
sg49
I0
sg50
I0
sg51
g12
(g13
(S'S2'
p1996
I0
I1
tp1997
Rp1998
(I3
S'|'
p1999
NNNI2
I1
I0
tp2000
bS'24'
p2001
tp2002
Rp2003
sg60
g12
(g13
(S'S23'
p2004
I0
I1
tp2005
Rp2006
(I3
S'|'
p2007
NNNI23
I1
I0
tp2008
bS'zakladne, stredoskolske'
p2009
tp2010
Rp2011
sg69
g12
(g13
(S'S12'
p2012
I0
I1
tp2013
Rp2014
(I3
S'|'
p2015
NNNI12
I1
I0
tp2016
bS'ked ho papam'
p2017
tp2018
Rp2019
sg78
g12
(g13
(S'S4'
p2020
I0
I1
tp2021
Rp2022
(I3
S'|'
p2023
NNNI4
I1
I0
tp2024
bS'null'
p2025
tp2026
Rp2027
sg87
g12
(g13
(S'S1'
p2028
I0
I1
tp2029
Rp2030
(I3
S'|'
p2031
NNNI1
I1
I0
tp2032
bg93
tp2033
Rp2034
ssV874194
p2035
(dp2036
g10
I0
sg11
g12
(g13
(S'S39'
p2037
I0
I1
tp2038
Rp2039
(I3
S'|'
p2040
NNNI39
I1
I0
tp2041
bS'vsetky... ale ten svoj asi najlepsie...'
p2042
tp2043
Rp2044
sg22
g12
(g13
(S'S1'
p2045
I0
I1
tp2046
Rp2047
(I3
S'|'
p2048
NNNI1
I1
I0
tp2049
bg28
tp2050
Rp2051
sg31
g12
(g13
(S'S43'
p2052
I0
I1
tp2053
Rp2054
(I3
S'|'
p2055
NNNI43
I1
I0
tp2056
bS'bratislavsky kraj, bratislava - karlova ves'
p2057
tp2058
Rp2059
sg40
g12
(g13
(S'S4'
p2060
I0
I1
tp2061
Rp2062
(I3
S'|'
p2063
NNNI4
I1
I0
tp2064
bS'null'
p2065
tp2066
Rp2067
sg49
I0
sg50
I0
sg51
g12
(g13
(S'S2'
p2068
I0
I1
tp2069
Rp2070
(I3
S'|'
p2071
NNNI2
I1
I0
tp2072
bS'21'
p2073
tp2074
Rp2075
sg60
g12
(g13
(S'S4'
p2076
I0
I1
tp2077
Rp2078
(I3
S'|'
p2079
NNNI4
I1
I0
tp2080
bS'null'
p2081
tp2082
Rp2083
sg69
g12
(g13
(S'S20'
p2084
I0
I1
tp2085
Rp2086
(I3
S'|'
p2087
NNNI20
I1
I0
tp2088
bS'hoci kde a hoci kedy'
p2089
tp2090
Rp2091
sg78
g12
(g13
(S'S4'
p2092
I0
I1
tp2093
Rp2094
(I3
S'|'
p2095
NNNI4
I1
I0
tp2096
bS'null'
p2097
tp2098
Rp2099
sg87
g12
(g13
(S'S1'
p2100
I0
I1
tp2101
Rp2102
(I3
S'|'
p2103
NNNI1
I1
I0
tp2104
bg93
tp2105
Rp2106
ssV539527
p2107
(dp2108
g10
I0
sg11
g12
(g13
(S'S39'
p2109
I0
I1
tp2110
Rp2111
(I3
S'|'
p2112
NNNI39
I1
I0
tp2113
bS'anglicky, nemecky, podla vysky promile '
p2114
tp2115
Rp2116
sg22
g12
(g13
(S'S1'
p2117
I0
I1
tp2118
Rp2119
(I3
S'|'
p2120
NNNI1
I1
I0
tp2121
bg93
tp2122
Rp2123
sg31
g12
(g13
(S'S43'
p2124
I0
I1
tp2125
Rp2126
(I3
S'|'
p2127
NNNI43
I1
I0
tp2128
bS'bratislavsky kraj, bratislava - karlova ves'
p2129
tp2130
Rp2131
sg40
g12
(g13
(S'S4'
p2132
I0
I1
tp2133
Rp2134
(I3
S'|'
p2135
NNNI4
I1
I0
tp2136
bS'null'
p2137
tp2138
Rp2139
sg49
I0
sg50
I1
sg51
g12
(g13
(S'S2'
p2140
I0
I1
tp2141
Rp2142
(I3
S'|'
p2143
NNNI2
I1
I0
tp2144
bS'21'
p2145
tp2146
Rp2147
sg60
g12
(g13
(S'S18'
p2148
I0
I1
tp2149
Rp2150
(I3
S'|'
p2151
NNNI18
I1
I0
tp2152
bS'prevychova rodicov'
p2153
tp2154
Rp2155
sg69
g12
(g13
(S'S4'
p2156
I0
I1
tp2157
Rp2158
(I3
S'|'
p2159
NNNI4
I1
I0
tp2160
bS'null'
p2161
tp2162
Rp2163
sg78
g12
(g13
(S'S4'
p2164
I0
I1
tp2165
Rp2166
(I3
S'|'
p2167
NNNI4
I1
I0
tp2168
bS'null'
p2169
tp2170
Rp2171
sg87
g12
(g13
(S'S1'
p2172
I0
I1
tp2173
Rp2174
(I3
S'|'
p2175
NNNI1
I1
I0
tp2176
bg93
tp2177
Rp2178
ssV1229418
p2179
(dp2180
g10
I0
sg11
g12
(g13
(S'S26'
p2181
I0
I1
tp2182
Rp2183
(I3
S'|'
p2184
NNNI26
I1
I0
tp2185
bS'nemecky, a samozrejme svoj'
p2186
tp2187
Rp2188
sg22
g12
(g13
(S'S1'
p2189
I0
I1
tp2190
Rp2191
(I3
S'|'
p2192
NNNI1
I1
I0
tp2193
bg93
tp2194
Rp2195
sg31
g12
(g13
(S'S43'
p2196
I0
I1
tp2197
Rp2198
(I3
S'|'
p2199
NNNI43
I1
I0
tp2200
bS'bratislavsky kraj, bratislava - karlova ves'
p2201
tp2202
Rp2203
sg40
g12
(g13
(S'S83'
p2204
I0
I1
tp2205
Rp2206
(I3
S'|'
p2207
NNNI83
I1
I0
tp2208
bS'praca s pc, pc hry, pocuvanie hudby, diskoteky, jedlo, kino, priatelia, spanie, sex'
p2209
tp2210
Rp2211
sg49
I0
sg50
I1
sg51
g12
(g13
(S'S2'
p2212
I0
I1
tp2213
Rp2214
(I3
S'|'
p2215
NNNI2
I1
I0
tp2216
bS'24'
p2217
tp2218
Rp2219
sg60
g12
(g13
(S'S13'
p2220
I0
I1
tp2221
Rp2222
(I3
S'|'
p2223
NNNI13
I1
I0
tp2224
bS'stredoskolske'
p2225
tp2226
Rp2227
sg69
g12
(g13
(S'S80'
p2228
I0
I1
tp2229
Rp2230
(I3
S'|'
p2231
NNNI80
I1
I0
tp2232
bS'pri svieckach s partnerom, v dobrej restauracii, v posteli, z partnerovho bruska'
p2233
tp2234
Rp2235
sg78
g12
(g13
(S'S4'
p2236
I0
I1
tp2237
Rp2238
(I3
S'|'
p2239
NNNI4
I1
I0
tp2240
bS'null'
p2241
tp2242
Rp2243
sg87
g12
(g13
(S'S1'
p2244
I0
I1
tp2245
Rp2246
(I3
S'|'
p2247
NNNI1
I1
I0
tp2248
bg28
tp2249
Rp2250
ssV657664
p2251
(dp2252
g10
I0
sg11
g12
(g13
(S'S20'
p2253
I0
I1
tp2254
Rp2255
(I3
S'|'
p2256
NNNI20
I1
I0
tp2257
bS'anglicky, spanielsky'
p2258
tp2259
Rp2260
sg22
g12
(g13
(S'S1'
p2261
I0
I1
tp2262
Rp2263
(I3
S'|'
p2264
NNNI1
I1
I0
tp2265
bg28
tp2266
Rp2267
sg31
g12
(g13
(S'S43'
p2268
I0
I1
tp2269
Rp2270
(I3
S'|'
p2271
NNNI43
I1
I0
tp2272
bS'bratislavsky kraj, bratislava - karlova ves'
p2273
tp2274
Rp2275
sg40
g12
(g13
(S'S96'
p2276
I0
I1
tp2277
Rp2278
(I3
S'|'
p2279
NNNI96
I1
I0
tp2280
bS'sportovanie, kupalisko, party, nakupovanie, sex, priatelia, diskoteky, malovanie, fotografovanie'
p2281
tp2282
Rp2283
sg49
I0
sg50
I0
sg51
g12
(g13
(S'S2'
p2284
I0
I1
tp2285
Rp2286
(I3
S'|'
p2287
NNNI2
I1
I0
tp2288
bS'19'
p2289
tp2290
Rp2291
sg60
g12
(g13
(S'S8'
p2292
I0
I1
tp2293
Rp2294
(I3
S'|'
p2295
NNNI8
I1
I0
tp2296
bS'zakladne'
p2297
tp2298
Rp2299
sg69
g12
(g13
(S'S4'
p2300
I0
I1
tp2301
Rp2302
(I3
S'|'
p2303
NNNI4
I1
I0
tp2304
bS'null'
p2305
tp2306
Rp2307
sg78
g12
(g13
(S'S4'
p2308
I0
I1
tp2309
Rp2310
(I3
S'|'
p2311
NNNI4
I1
I0
tp2312
bS'null'
p2313
tp2314
Rp2315
sg87
g12
(g13
(S'S1'
p2316
I0
I1
tp2317
Rp2318
(I3
S'|'
p2319
NNNI1
I1
I0
tp2320
bg93
tp2321
Rp2322
ssS'289807'
p2323
(dp2324
g10
I0
sg11
g12
(g13
(S'S91'
p2325
I0
I1
tp2326
Rp2327
(I3
S'|'
p2328
NNNI91
I1
I0
tp2329
bS'anglicky, nemecky, madarsky a zacinam s rustinou a francuzstinou:)jop a este aj ten svoj:pp'
p2330
tp2331
Rp2332
sg22
g12
(g13
(S'S1'
p2333
I0
I1
tp2334
Rp2335
(I3
S'|'
p2336
NNNI1
I1
I0
tp2337
bg28
tp2338
Rp2339
sg31
g12
(g13
(S'S43'
p2340
I0
I1
tp2341
Rp2342
(I3
S'|'
p2343
NNNI43
I1
I0
tp2344
bS'bratislavsky kraj, bratislava - karlova ves'
p2345
tp2346
Rp2347
sg40
g12
(g13
(S'S126'
p2348
I0
I1
tp2349
Rp2350
(I3
S'|'
p2351
NNNI126
I1
I0
tp2352
bS'jooooj tych ale je:d:d priatelia vedia ze ktore:) milujem sport a tanec hlavne hip hop a break...a samozrejme tenis a basket;)'
p2353
tp2354
Rp2355
sg49
I0
sg50
I0
sg51
g12
(g13
(S'S2'
p2356
I0
I1
tp2357
Rp2358
(I3
S'|'
p2359
NNNI2
I1
I0
tp2360
bS'23'
p2361
tp2362
Rp2363
sg60
g12
(g13
(S'S46'
p2364
I0
I1
tp2365
Rp2366
(I3
S'|'
p2367
NNNI46
I1
I0
tp2368
bS'stredoskolske, chvala bohu uz je to za mnou :d'
p2369
tp2370
Rp2371
sg69
g12
(g13
(S'S140'
p2372
I0
I1
tp2373
Rp2374
(I3
S'|'
p2375
NNNI140
I1
I0
tp2376
bS'pri telke, pri svieckach s partnerom, v dobrej restauracii, v prirode, v posteli, z partnerovho bruska, ale dobre jedlo si vzdy vychutnam :p'
p2377
tp2378
Rp2379
sg78
g12
(g13
(S'S4'
p2380
I0
I1
tp2381
Rp2382
(I3
S'|'
p2383
NNNI4
I1
I0
tp2384
bS'null'
p2385
tp2386
Rp2387
sg87
g12
(g13
(S'S1'
p2388
I0
I1
tp2389
Rp2390
(I3
S'|'
p2391
NNNI1
I1
I0
tp2392
bg28
tp2393
Rp2394
ssS'672705'
p2395
(dp2396
g10
I0
sg11
g12
(g13
(S'S29'
p2397
I0
I1
tp2398
Rp2399
(I3
S'|'
p2400
NNNI29
I1
I0
tp2401
bS'anglicky, nemecky, francuzsky'
p2402
tp2403
Rp2404
sg22
g12
(g13
(S'S1'
p2405
I0
I1
tp2406
Rp2407
(I3
S'|'
p2408
NNNI1
I1
I0
tp2409
bg93
tp2410
Rp2411
sg31
g12
(g13
(S'S43'
p2412
I0
I1
tp2413
Rp2414
(I3
S'|'
p2415
NNNI43
I1
I0
tp2416
bS'bratislavsky kraj, bratislava - karlova ves'
p2417
tp2418
Rp2419
sg40
g12
(g13
(S'S96'
p2420
I0
I1
tp2421
Rp2422
(I3
S'|'
p2423
NNNI96
I1
I0
tp2424
bS'sportovanie, praca s pc, pocuvanie hudby, pozeranie filmov, kupalisko, varenie, kino, stanovanie'
p2425
tp2426
Rp2427
sg49
I0
sg50
I0
sg51
g12
(g13
(S'S2'
p2428
I0
I1
tp2429
Rp2430
(I3
S'|'
p2431
NNNI2
I1
I0
tp2432
bS'21'
p2433
tp2434
Rp2435
sg60
g12
(g13
(S'S13'
p2436
I0
I1
tp2437
Rp2438
(I3
S'|'
p2439
NNNI13
I1
I0
tp2440
bS'stredoskolske'
p2441
tp2442
Rp2443
sg69
g12
(g13
(S'S20'
p2444
I0
I1
tp2445
Rp2446
(I3
S'|'
p2447
NNNI20
I1
I0
tp2448
bS'pri telke, v prirode'
p2449
tp2450
Rp2451
sg78
g12
(g13
(S'S4'
p2452
I0
I1
tp2453
Rp2454
(I3
S'|'
p2455
NNNI4
I1
I0
tp2456
bS'null'
p2457
tp2458
Rp2459
sg87
g12
(g13
(S'S1'
p2460
I0
I1
tp2461
Rp2462
(I3
S'|'
p2463
NNNI1
I1
I0
tp2464
bg93
tp2465
Rp2466
ssS'1140225'
p2467
(dp2468
g10
I0
sg11
g12
(g13
(S'S4'
p2469
I0
I1
tp2470
Rp2471
(I3
S'|'
p2472
NNNI4
I1
I0
tp2473
bS'null'
p2474
tp2475
Rp2476
sg22
g12
(g13
(S'S1'
p2477
I0
I1
tp2478
Rp2479
(I3
S'|'
p2480
NNNI1
I1
I0
tp2481
bg28
tp2482
Rp2483
sg31
g12
(g13
(S'S43'
p2484
I0
I1
tp2485
Rp2486
(I3
S'|'
p2487
NNNI43
I1
I0
tp2488
bS'bratislavsky kraj, bratislava - karlova ves'
p2489
tp2490
Rp2491
sg40
g12
(g13
(S'S4'
p2492
I0
I1
tp2493
Rp2494
(I3
S'|'
p2495
NNNI4
I1
I0
tp2496
bS'null'
p2497
tp2498
Rp2499
sg49
I0
sg50
I1
sg51
g12
(g13
(S'S1'
p2500
I0
I1
tp2501
Rp2502
(I3
S'|'
p2503
NNNI1
I1
I0
tp2504
bg28
tp2505
Rp2506
sg60
g12
(g13
(S'S50'
p2507
I0
I1
tp2508
Rp2509
(I3
S'|'
p2510
NNNI50
I1
I0
tp2511
bS'stredoskolske, studujem na vs odbor socialna praca'
p2512
tp2513
Rp2514
sg69
g12
(g13
(S'S4'
p2515
I0
I1
tp2516
Rp2517
(I3
S'|'
p2518
NNNI4
I1
I0
tp2519
bS'null'
p2520
tp2521
Rp2522
sg78
g12
(g13
(S'S4'
p2523
I0
I1
tp2524
Rp2525
(I3
S'|'
p2526
NNNI4
I1
I0
tp2527
bS'null'
p2528
tp2529
Rp2530
sg87
g12
(g13
(S'S1'
p2531
I0
I1
tp2532
Rp2533
(I3
S'|'
p2534
NNNI1
I1
I0
tp2535
bg93
tp2536
Rp2537
ssV796962
p2538
(dp2539
g10
I0
sg11
g12
(g13
(S'S8'
p2540
I0
I1
tp2541
Rp2542
(I3
S'|'
p2543
NNNI8
I1
I0
tp2544
bS'anglicky'
p2545
tp2546
Rp2547
sg22
g12
(g13
(S'S1'
p2548
I0
I1
tp2549
Rp2550
(I3
S'|'
p2551
NNNI1
I1
I0
tp2552
bg93
tp2553
Rp2554
sg31
g12
(g13
(S'S43'
p2555
I0
I1
tp2556
Rp2557
(I3
S'|'
p2558
NNNI43
I1
I0
tp2559
bS'bratislavsky kraj, bratislava - karlova ves'
p2560
tp2561
Rp2562
sg40
g12
(g13
(S'S82'
p2563
I0
I1
tp2564
Rp2565
(I3
S'|'
p2566
NNNI82
I1
I0
tp2567
bS'pocuvanie hudby, pozeranie filmov, malovanie, kino, priatelia, spanie, nakupovanie'
p2568
tp2569
Rp2570
sg49
I0
sg50
I1
sg51
g12
(g13
(S'S1'
p2571
I0
I1
tp2572
Rp2573
(I3
S'|'
p2574
NNNI1
I1
I0
tp2575
bg28
tp2576
Rp2577
sg60
g12
(g13
(S'S4'
p2578
I0
I1
tp2579
Rp2580
(I3
S'|'
p2581
NNNI4
I1
I0
tp2582
bS'null'
p2583
tp2584
Rp2585
sg69
g12
(g13
(S'S47'
p2586
I0
I1
tp2587
Rp2588
(I3
S'|'
p2589
NNNI47
I1
I0
tp2590
bS'pri telke, pri svieckach s partnerom, v posteli'
p2591
tp2592
Rp2593
sg78
g12
(g13
(S'S4'
p2594
I0
I1
tp2595
Rp2596
(I3
S'|'
p2597
NNNI4
I1
I0
tp2598
bS'null'
p2599
tp2600
Rp2601
sg87
g12
(g13
(S'S1'
p2602
I0
I1
tp2603
Rp2604
(I3
S'|'
p2605
NNNI1
I1
I0
tp2606
bg93
tp2607
Rp2608
ssS'59809'
p2609
(dp2610
g10
I0
sg11
g12
(g13
(S'S17'
p2611
I0
I1
tp2612
Rp2613
(I3
S'|'
p2614
NNNI17
I1
I0
tp2615
bS'anglicky, nemecky'
p2616
tp2617
Rp2618
sg22
g12
(g13
(S'S1'
p2619
I0
I1
tp2620
Rp2621
(I3
S'|'
p2622
NNNI1
I1
I0
tp2623
bg28
tp2624
Rp2625
sg31
g12
(g13
(S'S43'
p2626
I0
I1
tp2627
Rp2628
(I3
S'|'
p2629
NNNI43
I1
I0
tp2630
bS'bratislavsky kraj, bratislava - karlova ves'
p2631
tp2632
Rp2633
sg40
g12
(g13
(S'S244'
p2634
I0
I1
tp2635
Rp2636
(I3
S'|'
p2637
NNNI244
I1
I0
tp2638
bS'cestovanie, praca s pc, surfovanie po webe, pocuvanie hudby, pozeranie filmov, tancovanie, diskoteky, kupalisko, varenie, jedlo, kino, party, priatelia, spanie, nakupovanie, sex, stanovanie, waa a najviacc maa baviaa zuroviceee:))), sportovanie'
p2639
tp2640
Rp2641
sg49
I0
sg50
I1
sg51
g12
(g13
(S'S1'
p2642
I0
I1
tp2643
Rp2644
(I3
S'|'
p2645
NNNI1
I1
I0
tp2646
bg28
tp2647
Rp2648
sg60
g12
(g13
(S'S13'
p2649
I0
I1
tp2650
Rp2651
(I3
S'|'
p2652
NNNI13
I1
I0
tp2653
bS'stredoskolske'
p2654
tp2655
Rp2656
sg69
g12
(g13
(S'S102'
p2657
I0
I1
tp2658
Rp2659
(I3
S'|'
p2660
NNNI102
I1
I0
tp2661
bS'pri telke, pri svieckach s partnerom, v dobrej restauracii, v prirode, v posteli, z partnerovho bruska'
p2662
tp2663
Rp2664
sg78
g12
(g13
(S'S4'
p2665
I0
I1
tp2666
Rp2667
(I3
S'|'
p2668
NNNI4
I1
I0
tp2669
bS'null'
p2670
tp2671
Rp2672
sg87
g12
(g13
(S'S1'
p2673
I0
I1
tp2674
Rp2675
(I3
S'|'
p2676
NNNI1
I1
I0
tp2677
bg93
tp2678
Rp2679
ssV773637
p2680
(dp2681
g10
I0
sg11
g12
(g13
(S'S4'
p2682
I0
I1
tp2683
Rp2684
(I3
S'|'
p2685
NNNI4
I1
I0
tp2686
bS'null'
p2687
tp2688
Rp2689
sg22
g12
(g13
(S'S1'
p2690
I0
I1
tp2691
Rp2692
(I3
S'|'
p2693
NNNI1
I1
I0
tp2694
bg93
tp2695
Rp2696
sg31
g12
(g13
(S'S43'
p2697
I0
I1
tp2698
Rp2699
(I3
S'|'
p2700
NNNI43
I1
I0
tp2701
bS'bratislavsky kraj, bratislava - karlova ves'
p2702
tp2703
Rp2704
sg40
g12
(g13
(S'S77'
p2705
I0
I1
tp2706
Rp2707
(I3
S'|'
p2708
NNNI77
I1
I0
tp2709
bS'domace prace, hackovanie, vysivanie, sitie, prace v zahrade, prace okolo domu'
p2710
tp2711
Rp2712
sg49
I0
sg50
I0
sg51
g12
(g13
(S'S2'
p2713
I0
I1
tp2714
Rp2715
(I3
S'|'
p2716
NNNI2
I1
I0
tp2717
bS'23'
p2718
tp2719
Rp2720
sg60
g12
(g13
(S'S4'
p2721
I0
I1
tp2722
Rp2723
(I3
S'|'
p2724
NNNI4
I1
I0
tp2725
bS'null'
p2726
tp2727
Rp2728
sg69
g12
(g13
(S'S4'
p2729
I0
I1
tp2730
Rp2731
(I3
S'|'
p2732
NNNI4
I1
I0
tp2733
bS'null'
p2734
tp2735
Rp2736
sg78
g12
(g13
(S'S4'
p2737
I0
I1
tp2738
Rp2739
(I3
S'|'
p2740
NNNI4
I1
I0
tp2741
bS'null'
p2742
tp2743
Rp2744
sg87
g12
(g13
(S'S1'
p2745
I0
I1
tp2746
Rp2747
(I3
S'|'
p2748
NNNI1
I1
I0
tp2749
bg93
tp2750
Rp2751
ssV679571
p2752
(dp2753
g10
I0
sg11
g12
(g13
(S'S4'
p2754
I0
I1
tp2755
Rp2756
(I3
S'|'
p2757
NNNI4
I1
I0
tp2758
bS'null'
p2759
tp2760
Rp2761
sg22
g12
(g13
(S'S1'
p2762
I0
I1
tp2763
Rp2764
(I3
S'|'
p2765
NNNI1
I1
I0
tp2766
bg93
tp2767
Rp2768
sg31
g12
(g13
(S'S43'
p2769
I0
I1
tp2770
Rp2771
(I3
S'|'
p2772
NNNI43
I1
I0
tp2773
bS'bratislavsky kraj, bratislava - karlova ves'
p2774
tp2775
Rp2776
sg40
g12
(g13
(S'S7'
p2777
I0
I1
tp2778
Rp2779
(I3
S'|'
p2780
NNNI7
I1
I0
tp2781
bS'varenie'
p2782
tp2783
Rp2784
sg49
I0
sg50
I1
sg51
g12
(g13
(S'S2'
p2785
I0
I1
tp2786
Rp2787
(I3
S'|'
p2788
NNNI2
I1
I0
tp2789
bS'22'
p2790
tp2791
Rp2792
sg60
g12
(g13
(S'S4'
p2793
I0
I1
tp2794
Rp2795
(I3
S'|'
p2796
NNNI4
I1
I0
tp2797
bS'null'
p2798
tp2799
Rp2800
sg69
g12
(g13
(S'S4'
p2801
I0
I1
tp2802
Rp2803
(I3
S'|'
p2804
NNNI4
I1
I0
tp2805
bS'null'
p2806
tp2807
Rp2808
sg78
g12
(g13
(S'S4'
p2809
I0
I1
tp2810
Rp2811
(I3
S'|'
p2812
NNNI4
I1
I0
tp2813
bS'null'
p2814
tp2815
Rp2816
sg87
g12
(g13
(S'S1'
p2817
I0
I1
tp2818
Rp2819
(I3
S'|'
p2820
NNNI1
I1
I0
tp2821
bg93
tp2822
Rp2823
ssS'136710'
p2824
(dp2825
g10
I0
sg11
g12
(g13
(S'S4'
p2826
I0
I1
tp2827
Rp2828
(I3
S'|'
p2829
NNNI4
I1
I0
tp2830
bS'null'
p2831
tp2832
Rp2833
sg22
g12
(g13
(S'S1'
p2834
I0
I1
tp2835
Rp2836
(I3
S'|'
p2837
NNNI1
I1
I0
tp2838
bg28
tp2839
Rp2840
sg31
g12
(g13
(S'S43'
p2841
I0
I1
tp2842
Rp2843
(I3
S'|'
p2844
NNNI43
I1
I0
tp2845
bS'bratislavsky kraj, bratislava - karlova ves'
p2846
tp2847
Rp2848
sg40
g12
(g13
(S'S4'
p2849
I0
I1
tp2850
Rp2851
(I3
S'|'
p2852
NNNI4
I1
I0
tp2853
bS'null'
p2854
tp2855
Rp2856
sg49
I0
sg50
I0
sg51
g12
(g13
(S'S2'
p2857
I0
I1
tp2858
Rp2859
(I3
S'|'
p2860
NNNI2
I1
I0
tp2861
bS'18'
p2862
tp2863
Rp2864
sg60
g12
(g13
(S'S17'
p2865
I0
I1
tp2866
Rp2867
(I3
S'|'
p2868
NNNI17
I1
I0
tp2869
bS'zs.a. dubceka.xpp'
p2870
tp2871
Rp2872
sg69
g12
(g13
(S'S4'
p2873
I0
I1
tp2874
Rp2875
(I3
S'|'
p2876
NNNI4
I1
I0
tp2877
bS'null'
p2878
tp2879
Rp2880
sg78
g12
(g13
(S'S4'
p2881
I0
I1
tp2882
Rp2883
(I3
S'|'
p2884
NNNI4
I1
I0
tp2885
bS'null'
p2886
tp2887
Rp2888
sg87
g12
(g13
(S'S1'
p2889
I0
I1
tp2890
Rp2891
(I3
S'|'
p2892
NNNI1
I1
I0
tp2893
bg93
tp2894
Rp2895
ssV49030
p2896
(dp2897
g10
I0
sg11
g12
(g13
(S'S17'
p2898
I0
I1
tp2899
Rp2900
(I3
S'|'
p2901
NNNI17
I1
I0
tp2902
bS'anglicky, nemecky'
p2903
tp2904
Rp2905
sg22
g12
(g13
(S'S1'
p2906
I0
I1
tp2907
Rp2908
(I3
S'|'
p2909
NNNI1
I1
I0
tp2910
bg93
tp2911
Rp2912
sg31
g12
(g13
(S'S43'
p2913
I0
I1
tp2914
Rp2915
(I3
S'|'
p2916
NNNI43
I1
I0
tp2917
bS'bratislavsky kraj, bratislava - karlova ves'
p2918
tp2919
Rp2920
sg40
g12
(g13
(S'S369'
p2921
I0
I1
tp2922
Rp2923
(I3
S'|'
p2924
NNNI369
I1
I0
tp2925
bS'sportovanie, fotografovanie, cestovanie, turistika, domace prace, sitie, prace v zahrade, prace okolo domu, praca s pc, pc hry, surfovanie po webe, citanie, pocuvanie hudby, pozeranie filmov, zberatelstvo, chovatelstvo, malovanie, tancovanie, diskoteky, kupalisko, varenie, jedlo, kino, party, priatelia, spanie, divadlo, nakupovanie, sex, stanovanie, chodenie do muzei'
p2926
tp2927
Rp2928
sg49
I0
sg50
I0
sg51
g12
(g13
(S'S2'
p2929
I0
I1
tp2930
Rp2931
(I3
S'|'
p2932
NNNI2
I1
I0
tp2933
bS'25'
p2934
tp2935
Rp2936
sg60
g12
(g13
(S'S13'
p2937
I0
I1
tp2938
Rp2939
(I3
S'|'
p2940
NNNI13
I1
I0
tp2941
bS'stredoskolske'
p2942
tp2943
Rp2944
sg69
g12
(g13
(S'S102'
p2945
I0
I1
tp2946
Rp2947
(I3
S'|'
p2948
NNNI102
I1
I0
tp2949
bS'pri telke, pri svieckach s partnerom, v dobrej restauracii, v prirode, v posteli, z partnerovho bruska'
p2950
tp2951
Rp2952
sg78
g12
(g13
(S'S4'
p2953
I0
I1
tp2954
Rp2955
(I3
S'|'
p2956
NNNI4
I1
I0
tp2957
bS'null'
p2958
tp2959
Rp2960
sg87
g12
(g13
(S'S1'
p2961
I0
I1
tp2962
Rp2963
(I3
S'|'
p2964
NNNI1
I1
I0
tp2965
bg93
tp2966
Rp2967
ssS'168292'
p2968
(dp2969
g10
I0
sg11
g12
(g13
(S'S4'
p2970
I0
I1
tp2971
Rp2972
(I3
S'|'
p2973
NNNI4
I1
I0
tp2974
bS'null'
p2975
tp2976
Rp2977
sg22
g12
(g13
(S'S1'
p2978
I0
I1
tp2979
Rp2980
(I3
S'|'
p2981
NNNI1
I1
I0
tp2982
bg28
tp2983
Rp2984
sg31
g12
(g13
(S'S43'
p2985
I0
I1
tp2986
Rp2987
(I3
S'|'
p2988
NNNI43
I1
I0
tp2989
bS'bratislavsky kraj, bratislava - karlova ves'
p2990
tp2991
Rp2992
sg40
g12
(g13
(S'S84'
p2993
I0
I1
tp2994
Rp2995
(I3
S'|'
p2996
NNNI84
I1
I0
tp2997
bS'nakupovanie, pozeranie filmov, kupalisko, tancovanie, party, spanie, diskoteky, kino'
p2998
tp2999
Rp3000
sg49
I0
sg50
I1
sg51
g12
(g13
(S'S2'
p3001
I0
I1
tp3002
Rp3003
(I3
S'|'
p3004
NNNI2
I1
I0
tp3005
bS'19'
p3006
tp3007
Rp3008
sg60
g12
(g13
(S'S8'
p3009
I0
I1
tp3010
Rp3011
(I3
S'|'
p3012
NNNI8
I1
I0
tp3013
bS'zakladne'
p3014
tp3015
Rp3016
sg69
g12
(g13
(S'S79'
p3017
I0
I1
tp3018
Rp3019
(I3
S'|'
p3020
NNNI79
I1
I0
tp3021
bS'pri svieckach s partnerom, v dobrej restauracii, v kuchyni pri stole, v posteli'
p3022
tp3023
Rp3024
sg78
g12
(g13
(S'S4'
p3025
I0
I1
tp3026
Rp3027
(I3
S'|'
p3028
NNNI4
I1
I0
tp3029
bS'null'
p3030
tp3031
Rp3032
sg87
g12
(g13
(S'S1'
p3033
I0
I1
tp3034
Rp3035
(I3
S'|'
p3036
NNNI1
I1
I0
tp3037
bg93
tp3038
Rp3039
ssV727594
p3040
(dp3041
g10
I0
sg11
g12
(g13
(S'S8'
p3042
I0
I1
tp3043
Rp3044
(I3
S'|'
p3045
NNNI8
I1
I0
tp3046
bS'anglicky'
p3047
tp3048
Rp3049
sg22
g12
(g13
(S'S1'
p3050
I0
I1
tp3051
Rp3052
(I3
S'|'
p3053
NNNI1
I1
I0
tp3054
bg93
tp3055
Rp3056
sg31
g12
(g13
(S'S43'
p3057
I0
I1
tp3058
Rp3059
(I3
S'|'
p3060
NNNI43
I1
I0
tp3061
bS'bratislavsky kraj, bratislava - karlova ves'
p3062
tp3063
Rp3064
sg40
g12
(g13
(S'S6'
p3065
I0
I1
tp3066
Rp3067
(I3
S'|'
p3068
NNNI6
I1
I0
tp3069
bS'spanok'
p3070
tp3071
Rp3072
sg49
I0
sg50
I0
sg51
g12
(g13
(S'S2'
p3073
I0
I1
tp3074
Rp3075
(I3
S'|'
p3076
NNNI2
I1
I0
tp3077
bS'30'
p3078
tp3079
Rp3080
sg60
g12
(g13
(S'S13'
p3081
I0
I1
tp3082
Rp3083
(I3
S'|'
p3084
NNNI13
I1
I0
tp3085
bS'vysokoskolske'
p3086
tp3087
Rp3088
sg69
g12
(g13
(S'S20'
p3089
I0
I1
tp3090
Rp3091
(I3
S'|'
p3092
NNNI20
I1
I0
tp3093
bS'pri telke, v posteli'
p3094
tp3095
Rp3096
sg78
g12
(g13
(S'S4'
p3097
I0
I1
tp3098
Rp3099
(I3
S'|'
p3100
NNNI4
I1
I0
tp3101
bS'null'
p3102
tp3103
Rp3104
sg87
g12
(g13
(S'S1'
p3105
I0
I1
tp3106
Rp3107
(I3
S'|'
p3108
NNNI1
I1
I0
tp3109
bg93
tp3110
Rp3111
ssV644967
p3112
(dp3113
g10
I0
sg11
g12
(g13
(S'S8'
p3114
I0
I1
tp3115
Rp3116
(I3
S'|'
p3117
NNNI8
I1
I0
tp3118
bS'anglicky'
p3119
tp3120
Rp3121
sg22
g12
(g13
(S'S1'
p3122
I0
I1
tp3123
Rp3124
(I3
S'|'
p3125
NNNI1
I1
I0
tp3126
bg93
tp3127
Rp3128
sg31
g12
(g13
(S'S43'
p3129
I0
I1
tp3130
Rp3131
(I3
S'|'
p3132
NNNI43
I1
I0
tp3133
bS'bratislavsky kraj, bratislava - karlova ves'
p3134
tp3135
Rp3136
sg40
g12
(g13
(S'S169'
p3137
I0
I1
tp3138
Rp3139
(I3
S'|'
p3140
NNNI169
I1
I0
tp3141
bS'sportovanie, fotografovanie, cestovanie, turistika, praca s pc, pc hry, surfovanie po webe, pocuvanie hudby, pozeranie filmov, zberatelstvo, kupalisko, kino, spanie, sex'
p3142
tp3143
Rp3144
sg49
I0
sg50
I0
sg51
g12
(g13
(S'S1'
p3145
I0
I1
tp3146
Rp3147
(I3
S'|'
p3148
NNNI1
I1
I0
tp3149
bg28
tp3150
Rp3151
sg60
g12
(g13
(S'S16'
p3152
I0
I1
tp3153
Rp3154
(I3
S'|'
p3155
NNNI16
I1
I0
tp3156
bS'pracuje sa natom'
p3157
tp3158
Rp3159
sg69
g12
(g13
(S'S42'
p3160
I0
I1
tp3161
Rp3162
(I3
S'|'
p3163
NNNI42
I1
I0
tp3164
bS'pri telke, v dobrej restauracii, v prirode'
p3165
tp3166
Rp3167
sg78
g12
(g13
(S'S4'
p3168
I0
I1
tp3169
Rp3170
(I3
S'|'
p3171
NNNI4
I1
I0
tp3172
bS'null'
p3173
tp3174
Rp3175
sg87
g12
(g13
(S'S1'
p3176
I0
I1
tp3177
Rp3178
(I3
S'|'
p3179
NNNI1
I1
I0
tp3180
bg93
tp3181
Rp3182
ssS'289830'
p3183
(dp3184
g10
I0
sg11
g12
(g13
(S'S19'
p3185
I0
I1
tp3186
Rp3187
(I3
S'|'
p3188
NNNI19
I1
I0
tp3189
bS'anglicky, taliansky'
p3190
tp3191
Rp3192
sg22
g12
(g13
(S'S1'
p3193
I0
I1
tp3194
Rp3195
(I3
S'|'
p3196
NNNI1
I1
I0
tp3197
bg28
tp3198
Rp3199
sg31
g12
(g13
(S'S43'
p3200
I0
I1
tp3201
Rp3202
(I3
S'|'
p3203
NNNI43
I1
I0
tp3204
bS'bratislavsky kraj, bratislava - karlova ves'
p3205
tp3206
Rp3207
sg40
g12
(g13
(S'S4'
p3208
I0
I1
tp3209
Rp3210
(I3
S'|'
p3211
NNNI4
I1
I0
tp3212
bS'null'
p3213
tp3214
Rp3215
sg49
I0
sg50
I0
sg51
g12
(g13
(S'S2'
p3216
I0
I1
tp3217
Rp3218
(I3
S'|'
p3219
NNNI2
I1
I0
tp3220
bS'19'
p3221
tp3222
Rp3223
sg60
g12
(g13
(S'S8'
p3224
I0
I1
tp3225
Rp3226
(I3
S'|'
p3227
NNNI8
I1
I0
tp3228
bS'zakladne'
p3229
tp3230
Rp3231
sg69
g12
(g13
(S'S4'
p3232
I0
I1
tp3233
Rp3234
(I3
S'|'
p3235
NNNI4
I1
I0
tp3236
bS'null'
p3237
tp3238
Rp3239
sg78
g12
(g13
(S'S4'
p3240
I0
I1
tp3241
Rp3242
(I3
S'|'
p3243
NNNI4
I1
I0
tp3244
bS'null'
p3245
tp3246
Rp3247
sg87
g12
(g13
(S'S1'
p3248
I0
I1
tp3249
Rp3250
(I3
S'|'
p3251
NNNI1
I1
I0
tp3252
bg93
tp3253
Rp3254
ssV938403
p3255
(dp3256
g10
I0
sg11
g12
(g13
(S'S4'
p3257
I0
I1
tp3258
Rp3259
(I3
S'|'
p3260
NNNI4
I1
I0
tp3261
bS'null'
p3262
tp3263
Rp3264
sg22
g12
(g13
(S'S1'
p3265
I0
I1
tp3266
Rp3267
(I3
S'|'
p3268
NNNI1
I1
I0
tp3269
bg93
tp3270
Rp3271
sg31
g12
(g13
(S'S43'
p3272
I0
I1
tp3273
Rp3274
(I3
S'|'
p3275
NNNI43
I1
I0
tp3276
bS'bratislavsky kraj, bratislava - karlova ves'
p3277
tp3278
Rp3279
sg40
g12
(g13
(S'S4'
p3280
I0
I1
tp3281
Rp3282
(I3
S'|'
p3283
NNNI4
I1
I0
tp3284
bS'null'
p3285
tp3286
Rp3287
sg49
I0
sg50
I0
sg51
g12
(g13
(S'S2'
p3288
I0
I1
tp3289
Rp3290
(I3
S'|'
p3291
NNNI2
I1
I0
tp3292
bS'21'
p3293
tp3294
Rp3295
sg60
g12
(g13
(S'S4'
p3296
I0
I1
tp3297
Rp3298
(I3
S'|'
p3299
NNNI4
I1
I0
tp3300
bS'null'
p3301
tp3302
Rp3303
sg69
g12
(g13
(S'S4'
p3304
I0
I1
tp3305
Rp3306
(I3
S'|'
p3307
NNNI4
I1
I0
tp3308
bS'null'
p3309
tp3310
Rp3311
sg78
g12
(g13
(S'S4'
p3312
I0
I1
tp3313
Rp3314
(I3
S'|'
p3315
NNNI4
I1
I0
tp3316
bS'null'
p3317
tp3318
Rp3319
sg87
g12
(g13
(S'S1'
p3320
I0
I1
tp3321
Rp3322
(I3
S'|'
p3323
NNNI1
I1
I0
tp3324
bg93
tp3325
Rp3326
ssS'623995'
p3327
(dp3328
g10
I0
sg11
g12
(g13
(S'S23'
p3329
I0
I1
tp3330
Rp3331
(I3
S'|'
p3332
NNNI23
I1
I0
tp3333
bS'nemecky.trocha anglicky'
p3334
tp3335
Rp3336
sg22
g12
(g13
(S'S1'
p3337
I0
I1
tp3338
Rp3339
(I3
S'|'
p3340
NNNI1
I1
I0
tp3341
bg28
tp3342
Rp3343
sg31
g12
(g13
(S'S43'
p3344
I0
I1
tp3345
Rp3346
(I3
S'|'
p3347
NNNI43
I1
I0
tp3348
bS'bratislavsky kraj, bratislava - karlova ves'
p3349
tp3350
Rp3351
sg40
g12
(g13
(S'S126'
p3352
I0
I1
tp3353
Rp3354
(I3
S'|'
p3355
NNNI126
I1
I0
tp3356
bS'pozeranie filmov, party, spanie, nakupovanie, praca s pc, prace v zahrade, surfovanie po webe, pocuvanie hudby, priatelia, sex'
p3357
tp3358
Rp3359
sg49
I0
sg50
I0
sg51
g12
(g13
(S'S2'
p3360
I0
I1
tp3361
Rp3362
(I3
S'|'
p3363
NNNI2
I1
I0
tp3364
bS'28'
p3365
tp3366
Rp3367
sg60
g12
(g13
(S'S38'
p3368
I0
I1
tp3369
Rp3370
(I3
S'|'
p3371
NNNI38
I1
I0
tp3372
bS'dve tanecne a styri ludove :-) :-) :-)'
p3373
tp3374
Rp3375
sg69
g12
(g13
(S'S42'
p3376
I0
I1
tp3377
Rp3378
(I3
S'|'
p3379
NNNI42
I1
I0
tp3380
bS'v dobrej restauracii, z partnerovho bruska'
p3381
tp3382
Rp3383
sg78
g12
(g13
(S'S4'
p3384
I0
I1
tp3385
Rp3386
(I3
S'|'
p3387
NNNI4
I1
I0
tp3388
bS'null'
p3389
tp3390
Rp3391
sg87
g12
(g13
(S'S1'
p3392
I0
I1
tp3393
Rp3394
(I3
S'|'
p3395
NNNI1
I1
I0
tp3396
bg93
tp3397
Rp3398
ssV351157
p3399
(dp3400
g10
I0
sg11
g12
(g13
(S'S35'
p3401
I0
I1
tp3402
Rp3403
(I3
S'|'
p3404
NNNI35
I1
I0
tp3405
bS'anglicky, nemecky, cesky, slovensky'
p3406
tp3407
Rp3408
sg22
g12
(g13
(S'S1'
p3409
I0
I1
tp3410
Rp3411
(I3
S'|'
p3412
NNNI1
I1
I0
tp3413
bg93
tp3414
Rp3415
sg31
g12
(g13
(S'S43'
p3416
I0
I1
tp3417
Rp3418
(I3
S'|'
p3419
NNNI43
I1
I0
tp3420
bS'bratislavsky kraj, bratislava - karlova ves'
p3421
tp3422
Rp3423
sg40
g12
(g13
(S'S131'
p3424
I0
I1
tp3425
Rp3426
(I3
S'|'
p3427
NNNI131
I1
I0
tp3428
bS'sportovanie, prace v zahrade, praca s pc, surfovanie po webe, pocuvanie hudby, pozeranie filmov, diskoteky, jedlo, party, priatelia'
p3429
tp3430
Rp3431
sg49
I0
sg50
I1
sg51
g12
(g13
(S'S2'
p3432
I0
I1
tp3433
Rp3434
(I3
S'|'
p3435
NNNI2
I1
I0
tp3436
bS'20'
p3437
tp3438
Rp3439
sg60
g12
(g13
(S'S8'
p3440
I0
I1
tp3441
Rp3442
(I3
S'|'
p3443
NNNI8
I1
I0
tp3444
bS'zakladne'
p3445
tp3446
Rp3447
sg69
g12
(g13
(S'S37'
p3448
I0
I1
tp3449
Rp3450
(I3
S'|'
p3451
NNNI37
I1
I0
tp3452
bS'v mc donalde, pri pocitaci, pri tv...'
p3453
tp3454
Rp3455
sg78
g12
(g13
(S'S4'
p3456
I0
I1
tp3457
Rp3458
(I3
S'|'
p3459
NNNI4
I1
I0
tp3460
bS'null'
p3461
tp3462
Rp3463
sg87
g12
(g13
(S'S1'
p3464
I0
I1
tp3465
Rp3466
(I3
S'|'
p3467
NNNI1
I1
I0
tp3468
bg93
tp3469
Rp3470
ssV221731
p3471
(dp3472
g10
I0
sg11
g12
(g13
(S'S106'
p3473
I0
I1
tp3474
Rp3475
(I3
S'|'
p3476
NNNI106
I1
I0
tp3477
bS'anglicky, nemecky, aj po taliansky,spanielsky,francuzky,rusky,estonsky,koreijsky....ale iba a little bit:)'
p3478
tp3479
Rp3480
sg22
g12
(g13
(S'S1'
p3481
I0
I1
tp3482
Rp3483
(I3
S'|'
p3484
NNNI1
I1
I0
tp3485
bg28
tp3486
Rp3487
sg31
g12
(g13
(S'S43'
p3488
I0
I1
tp3489
Rp3490
(I3
S'|'
p3491
NNNI43
I1
I0
tp3492
bS'bratislavsky kraj, bratislava - karlova ves'
p3493
tp3494
Rp3495
sg40
g12
(g13
(S'S259'
p3496
I0
I1
tp3497
Rp3498
(I3
S'|'
p3499
NNNI259
I1
I0
tp3500
bS'sportovanie, fotografovanie, cestovanie, turistika, domace prace, prace v zahrade, prace okolo domu, pocuvanie hudby, pozeranie filmov, tancovanie, kupalisko, varenie, jedlo, kino, party, priatelia, divadlo, nakupovanie, stanovanie, proste rada nieco robim...'
p3501
tp3502
Rp3503
sg49
I0
sg50
I0
sg51
g12
(g13
(S'S2'
p3504
I0
I1
tp3505
Rp3506
(I3
S'|'
p3507
NNNI2
I1
I0
tp3508
bS'23'
p3509
tp3510
Rp3511
sg60
g12
(g13
(S'S30'
p3512
I0
I1
tp3513
Rp3514
(I3
S'|'
p3515
NNNI30
I1
I0
tp3516
bS'stredoskolske, gamca forever:)'
p3517
tp3518
Rp3519
sg69
g12
(g13
(S'S69'
p3520
I0
I1
tp3521
Rp3522
(I3
S'|'
p3523
NNNI69
I1
I0
tp3524
bS'pri svieckach s partnerom, v prirode, v posteli, z partnerovho bruska'
p3525
tp3526
Rp3527
sg78
g12
(g13
(S'S4'
p3528
I0
I1
tp3529
Rp3530
(I3
S'|'
p3531
NNNI4
I1
I0
tp3532
bS'null'
p3533
tp3534
Rp3535
sg87
g12
(g13
(S'S1'
p3536
I0
I1
tp3537
Rp3538
(I3
S'|'
p3539
NNNI1
I1
I0
tp3540
bg93
tp3541
Rp3542
ssV188442
p3543
(dp3544
g10
I0
sg11
g12
(g13
(S'S7'
p3545
I0
I1
tp3546
Rp3547
(I3
S'|'
p3548
NNNI7
I1
I0
tp3549
bS'nemecky'
p3550
tp3551
Rp3552
sg22
g12
(g13
(S'S1'
p3553
I0
I1
tp3554
Rp3555
(I3
S'|'
p3556
NNNI1
I1
I0
tp3557
bg28
tp3558
Rp3559
sg31
g12
(g13
(S'S43'
p3560
I0
I1
tp3561
Rp3562
(I3
S'|'
p3563
NNNI43
I1
I0
tp3564
bS'bratislavsky kraj, bratislava - karlova ves'
p3565
tp3566
Rp3567
sg40
g12
(g13
(S'S173'
p3568
I0
I1
tp3569
Rp3570
(I3
S'|'
p3571
NNNI173
I1
I0
tp3572
bS'sportovanie, fotografovanie, cestovanie, turistika, surfovanie po webe, pocuvanie hudby, pozeranie filmov, kupalisko, jedlo, kino, priatelia, spanie, nakupovanie, stanovanie'
p3573
tp3574
Rp3575
sg49
I0
sg50
I1
sg51
g12
(g13
(S'S2'
p3576
I0
I1
tp3577
Rp3578
(I3
S'|'
p3579
NNNI2
I1
I0
tp3580
bS'18'
p3581
tp3582
Rp3583
sg60
g12
(g13
(S'S8'
p3584
I0
I1
tp3585
Rp3586
(I3
S'|'
p3587
NNNI8
I1
I0
tp3588
bS'zakladne'
p3589
tp3590
Rp3591
sg69
g12
(g13
(S'S69'
p3592
I0
I1
tp3593
Rp3594
(I3
S'|'
p3595
NNNI69
I1
I0
tp3596
bS'pri telke, pri svieckach s partnerom, v dobrej restauracii, v posteli'
p3597
tp3598
Rp3599
sg78
g12
(g13
(S'S4'
p3600
I0
I1
tp3601
Rp3602
(I3
S'|'
p3603
NNNI4
I1
I0
tp3604
bS'null'
p3605
tp3606
Rp3607
sg87
g12
(g13
(S'S1'
p3608
I0
I1
tp3609
Rp3610
(I3
S'|'
p3611
NNNI1
I1
I0
tp3612
bg93
tp3613
Rp3614
ssV351870
p3615
(dp3616
g10
I0
sg11
g12
(g13
(S'S4'
p3617
I0
I1
tp3618
Rp3619
(I3
S'|'
p3620
NNNI4
I1
I0
tp3621
bS'null'
p3622
tp3623
Rp3624
sg22
g12
(g13
(S'S1'
p3625
I0
I1
tp3626
Rp3627
(I3
S'|'
p3628
NNNI1
I1
I0
tp3629
bg28
tp3630
Rp3631
sg31
g12
(g13
(S'S43'
p3632
I0
I1
tp3633
Rp3634
(I3
S'|'
p3635
NNNI43
I1
I0
tp3636
bS'bratislavsky kraj, bratislava - karlova ves'
p3637
tp3638
Rp3639
sg40
g12
(g13
(S'S4'
p3640
I0
I1
tp3641
Rp3642
(I3
S'|'
p3643
NNNI4
I1
I0
tp3644
bS'null'
p3645
tp3646
Rp3647
sg49
I0
sg50
I1
sg51
g12
(g13
(S'S2'
p3648
I0
I1
tp3649
Rp3650
(I3
S'|'
p3651
NNNI2
I1
I0
tp3652
bS'20'
p3653
tp3654
Rp3655
sg60
g12
(g13
(S'S4'
p3656
I0
I1
tp3657
Rp3658
(I3
S'|'
p3659
NNNI4
I1
I0
tp3660
bS'null'
p3661
tp3662
Rp3663
sg69
g12
(g13
(S'S4'
p3664
I0
I1
tp3665
Rp3666
(I3
S'|'
p3667
NNNI4
I1
I0
tp3668
bS'null'
p3669
tp3670
Rp3671
sg78
g12
(g13
(S'S4'
p3672
I0
I1
tp3673
Rp3674
(I3
S'|'
p3675
NNNI4
I1
I0
tp3676
bS'null'
p3677
tp3678
Rp3679
sg87
g12
(g13
(S'S1'
p3680
I0
I1
tp3681
Rp3682
(I3
S'|'
p3683
NNNI1
I1
I0
tp3684
bg28
tp3685
Rp3686
ssS'147611'
p3687
(dp3688
g10
I0
sg11
g12
(g13
(S'S8'
p3689
I0
I1
tp3690
Rp3691
(I3
S'|'
p3692
NNNI8
I1
I0
tp3693
bS'anglicky'
p3694
tp3695
Rp3696
sg22
g12
(g13
(S'S1'
p3697
I0
I1
tp3698
Rp3699
(I3
S'|'
p3700
NNNI1
I1
I0
tp3701
bg93
tp3702
Rp3703
sg31
g12
(g13
(S'S43'
p3704
I0
I1
tp3705
Rp3706
(I3
S'|'
p3707
NNNI43
I1
I0
tp3708
bS'bratislavsky kraj, bratislava - karlova ves'
p3709
tp3710
Rp3711
sg40
g12
(g13
(S'S166'
p3712
I0
I1
tp3713
Rp3714
(I3
S'|'
p3715
NNNI166
I1
I0
tp3716
bS'sportovanie, domace prace, prace v zahrade, prace okolo domu, praca s pc, pc hry, surfovanie po webe, pocuvanie hudby, pozeranie filmov, chovatelstvo, kupalisko, kino'
p3717
tp3718
Rp3719
sg49
I0
sg50
I1
sg51
g12
(g13
(S'S2'
p3720
I0
I1
tp3721
Rp3722
(I3
S'|'
p3723
NNNI2
I1
I0
tp3724
bS'18'
p3725
tp3726
Rp3727
sg60
g12
(g13
(S'S8'
p3728
I0
I1
tp3729
Rp3730
(I3
S'|'
p3731
NNNI8
I1
I0
tp3732
bS'zakladne'
p3733
tp3734
Rp3735
sg69
g12
(g13
(S'S58'
p3736
I0
I1
tp3737
Rp3738
(I3
S'|'
p3739
NNNI58
I1
I0
tp3740
bS'pri telke, pri svieckach s partnerom, v dobrej restauracii'
p3741
tp3742
Rp3743
sg78
g12
(g13
(S'S4'
p3744
I0
I1
tp3745
Rp3746
(I3
S'|'
p3747
NNNI4
I1
I0
tp3748
bS'null'
p3749
tp3750
Rp3751
sg87
g12
(g13
(S'S1'
p3752
I0
I1
tp3753
Rp3754
(I3
S'|'
p3755
NNNI1
I1
I0
tp3756
bg93
tp3757
Rp3758
ssS'369332'
p3759
(dp3760
g10
I0
sg11
g12
(g13
(S'S42'
p3761
I0
I1
tp3762
Rp3763
(I3
S'|'
p3764
NNNI42
I1
I0
tp3765
bS'anglicky, nemecky, aj ten svoj sa snazim:d'
p3766
tp3767
Rp3768
sg22
g12
(g13
(S'S1'
p3769
I0
I1
tp3770
Rp3771
(I3
S'|'
p3772
NNNI1
I1
I0
tp3773
bg93
tp3774
Rp3775
sg31
g12
(g13
(S'S43'
p3776
I0
I1
tp3777
Rp3778
(I3
S'|'
p3779
NNNI43
I1
I0
tp3780
bS'bratislavsky kraj, bratislava - karlova ves'
p3781
tp3782
Rp3783
sg40
g12
(g13
(S'S137'
p3784
I0
I1
tp3785
Rp3786
(I3
S'|'
p3787
NNNI137
I1
I0
tp3788
bS'sportovanie, praca s pc, pocuvanie hudby, pozeranie filmov, kupalisko, kino, priatelia, spanie, rad robim s diabolom:p aj ked to neviem:d'
p3789
tp3790
Rp3791
sg49
I0
sg50
I0
sg51
g12
(g13
(S'S2'
p3792
I0
I1
tp3793
Rp3794
(I3
S'|'
p3795
NNNI2
I1
I0
tp3796
bS'21'
p3797
tp3798
Rp3799
sg60
g12
(g13
(S'S13'
p3800
I0
I1
tp3801
Rp3802
(I3
S'|'
p3803
NNNI13
I1
I0
tp3804
bS'stredoskolske'
p3805
tp3806
Rp3807
sg69
g12
(g13
(S'S64'
p3808
I0
I1
tp3809
Rp3810
(I3
S'|'
p3811
NNNI64
I1
I0
tp3812
bS'pri telke, v dobrej restauracii, vsade de sa da polozit tanier:d'
p3813
tp3814
Rp3815
sg78
g12
(g13
(S'S4'
p3816
I0
I1
tp3817
Rp3818
(I3
S'|'
p3819
NNNI4
I1
I0
tp3820
bS'null'
p3821
tp3822
Rp3823
sg87
g12
(g13
(S'S1'
p3824
I0
I1
tp3825
Rp3826
(I3
S'|'
p3827
NNNI1
I1
I0
tp3828
bg93
tp3829
Rp3830
ssS'965335'
p3831
(dp3832
g10
I0
sg11
g12
(g13
(S'S4'
p3833
I0
I1
tp3834
Rp3835
(I3
S'|'
p3836
NNNI4
I1
I0
tp3837
bS'null'
p3838
tp3839
Rp3840
sg22
g12
(g13
(S'S1'
p3841
I0
I1
tp3842
Rp3843
(I3
S'|'
p3844
NNNI1
I1
I0
tp3845
bg28
tp3846
Rp3847
sg31
g12
(g13
(S'S43'
p3848
I0
I1
tp3849
Rp3850
(I3
S'|'
p3851
NNNI43
I1
I0
tp3852
bS'bratislavsky kraj, bratislava - karlova ves'
p3853
tp3854
Rp3855
sg40
g12
(g13
(S'S4'
p3856
I0
I1
tp3857
Rp3858
(I3
S'|'
p3859
NNNI4
I1
I0
tp3860
bS'null'
p3861
tp3862
Rp3863
sg49
I0
sg50
I1
sg51
g12
(g13
(S'S2'
p3864
I0
I1
tp3865
Rp3866
(I3
S'|'
p3867
NNNI2
I1
I0
tp3868
bS'20'
p3869
tp3870
Rp3871
sg60
g12
(g13
(S'S4'
p3872
I0
I1
tp3873
Rp3874
(I3
S'|'
p3875
NNNI4
I1
I0
tp3876
bS'null'
p3877
tp3878
Rp3879
sg69
g12
(g13
(S'S4'
p3880
I0
I1
tp3881
Rp3882
(I3
S'|'
p3883
NNNI4
I1
I0
tp3884
bS'null'
p3885
tp3886
Rp3887
sg78
g12
(g13
(S'S4'
p3888
I0
I1
tp3889
Rp3890
(I3
S'|'
p3891
NNNI4
I1
I0
tp3892
bS'null'
p3893
tp3894
Rp3895
sg87
g12
(g13
(S'S1'
p3896
I0
I1
tp3897
Rp3898
(I3
S'|'
p3899
NNNI1
I1
I0
tp3900
bg28
tp3901
Rp3902
ssS'182726'
p3903
(dp3904
g10
I0
sg11
g12
(g13
(S'S17'
p3905
I0
I1
tp3906
Rp3907
(I3
S'|'
p3908
NNNI17
I1
I0
tp3909
bS'nemecky, anglicky'
p3910
tp3911
Rp3912
sg22
g12
(g13
(S'S1'
p3913
I0
I1
tp3914
Rp3915
(I3
S'|'
p3916
NNNI1
I1
I0
tp3917
bg93
tp3918
Rp3919
sg31
g12
(g13
(S'S43'
p3920
I0
I1
tp3921
Rp3922
(I3
S'|'
p3923
NNNI43
I1
I0
tp3924
bS'bratislavsky kraj, bratislava - karlova ves'
p3925
tp3926
Rp3927
sg40
g12
(g13
(S'S4'
p3928
I0
I1
tp3929
Rp3930
(I3
S'|'
p3931
NNNI4
I1
I0
tp3932
bS'null'
p3933
tp3934
Rp3935
sg49
I0
sg50
I0
sg51
g12
(g13
(S'S2'
p3936
I0
I1
tp3937
Rp3938
(I3
S'|'
p3939
NNNI2
I1
I0
tp3940
bS'20'
p3941
tp3942
Rp3943
sg60
g12
(g13
(S'S13'
p3944
I0
I1
tp3945
Rp3946
(I3
S'|'
p3947
NNNI13
I1
I0
tp3948
bS'stredoskolske'
p3949
tp3950
Rp3951
sg69
g12
(g13
(S'S4'
p3952
I0
I1
tp3953
Rp3954
(I3
S'|'
p3955
NNNI4
I1
I0
tp3956
bS'null'
p3957
tp3958
Rp3959
sg78
g12
(g13
(S'S4'
p3960
I0
I1
tp3961
Rp3962
(I3
S'|'
p3963
NNNI4
I1
I0
tp3964
bS'null'
p3965
tp3966
Rp3967
sg87
g12
(g13
(S'S1'
p3968
I0
I1
tp3969
Rp3970
(I3
S'|'
p3971
NNNI1
I1
I0
tp3972
bg93
tp3973
Rp3974
ssS'313811'
p3975
(dp3976
g10
I0
sg11
g12
(g13
(S'S39'
p3977
I0
I1
tp3978
Rp3979
(I3
S'|'
p3980
NNNI39
I1
I0
tp3981
bS'nemecky, anglicky ale teda nic extra :)'
p3982
tp3983
Rp3984
sg22
g12
(g13
(S'S1'
p3985
I0
I1
tp3986
Rp3987
(I3
S'|'
p3988
NNNI1
I1
I0
tp3989
bg28
tp3990
Rp3991
sg31
g12
(g13
(S'S43'
p3992
I0
I1
tp3993
Rp3994
(I3
S'|'
p3995
NNNI43
I1
I0
tp3996
bS'bratislavsky kraj, bratislava - karlova ves'
p3997
tp3998
Rp3999
sg40
g12
(g13
(S'S128'
p4000
I0
I1
tp4001
Rp4002
(I3
S'|'
p4003
NNNI128
I1
I0
tp4004
bS'spanie, jedlo, tancovanie, pozeranie filmov, kino, priatelia, sex, nakupovanie, pocuvanie hudby, varenie, turistika, sportovanie'
p4005
tp4006
Rp4007
sg49
I0
sg50
I1
sg51
g12
(g13
(S'S2'
p4008
I0
I1
tp4009
Rp4010
(I3
S'|'
p4011
NNNI2
I1
I0
tp4012
bS'21'
p4013
tp4014
Rp4015
sg60
g12
(g13
(S'S8'
p4016
I0
I1
tp4017
Rp4018
(I3
S'|'
p4019
NNNI8
I1
I0
tp4020
bS'zakladne'
p4021
tp4022
Rp4023
sg69
g12
(g13
(S'S102'
p4024
I0
I1
tp4025
Rp4026
(I3
S'|'
p4027
NNNI102
I1
I0
tp4028
bS'v prirode, z partnerovho bruska, v posteli, v dobrej restauracii, pri svieckach s partnerom, pri telke'
p4029
tp4030
Rp4031
sg78
g12
(g13
(S'S4'
p4032
I0
I1
tp4033
Rp4034
(I3
S'|'
p4035
NNNI4
I1
I0
tp4036
bS'null'
p4037
tp4038
Rp4039
sg87
g12
(g13
(S'S1'
p4040
I0
I1
tp4041
Rp4042
(I3
S'|'
p4043
NNNI1
I1
I0
tp4044
bg28
tp4045
Rp4046
ssS'1123908'
p4047
(dp4048
g10
I0
sg11
g12
(g13
(S'S4'
p4049
I0
I1
tp4050
Rp4051
(I3
S'|'
p4052
NNNI4
I1
I0
tp4053
bS'null'
p4054
tp4055
Rp4056
sg22
g12
(g13
(S'S1'
p4057
I0
I1
tp4058
Rp4059
(I3
S'|'
p4060
NNNI1
I1
I0
tp4061
bg28
tp4062
Rp4063
sg31
g12
(g13
(S'S43'
p4064
I0
I1
tp4065
Rp4066
(I3
S'|'
p4067
NNNI43
I1
I0
tp4068
bS'bratislavsky kraj, bratislava - karlova ves'
p4069
tp4070
Rp4071
sg40
g12
(g13
(S'S4'
p4072
I0
I1
tp4073
Rp4074
(I3
S'|'
p4075
NNNI4
I1
I0
tp4076
bS'null'
p4077
tp4078
Rp4079
sg49
I0
sg50
I1
sg51
g12
(g13
(S'S2'
p4080
I0
I1
tp4081
Rp4082
(I3
S'|'
p4083
NNNI2
I1
I0
tp4084
bS'23'
p4085
tp4086
Rp4087
sg60
g12
(g13
(S'S4'
p4088
I0
I1
tp4089
Rp4090
(I3
S'|'
p4091
NNNI4
I1
I0
tp4092
bS'null'
p4093
tp4094
Rp4095
sg69
g12
(g13
(S'S4'
p4096
I0
I1
tp4097
Rp4098
(I3
S'|'
p4099
NNNI4
I1
I0
tp4100
bS'null'
p4101
tp4102
Rp4103
sg78
g12
(g13
(S'S4'
p4104
I0
I1
tp4105
Rp4106
(I3
S'|'
p4107
NNNI4
I1
I0
tp4108
bS'null'
p4109
tp4110
Rp4111
sg87
g12
(g13
(S'S1'
p4112
I0
I1
tp4113
Rp4114
(I3
S'|'
p4115
NNNI1
I1
I0
tp4116
bg28
tp4117
Rp4118
ssS'466217'
p4119
(dp4120
g10
I0
sg11
g12
(g13
(S'S7'
p4121
I0
I1
tp4122
Rp4123
(I3
S'|'
p4124
NNNI7
I1
I0
tp4125
bS'nemecky'
p4126
tp4127
Rp4128
sg22
g12
(g13
(S'S1'
p4129
I0
I1
tp4130
Rp4131
(I3
S'|'
p4132
NNNI1
I1
I0
tp4133
bg93
tp4134
Rp4135
sg31
g12
(g13
(S'S43'
p4136
I0
I1
tp4137
Rp4138
(I3
S'|'
p4139
NNNI43
I1
I0
tp4140
bS'bratislavsky kraj, bratislava - karlova ves'
p4141
tp4142
Rp4143
sg40
g12
(g13
(S'S117'
p4144
I0
I1
tp4145
Rp4146
(I3
S'|'
p4147
NNNI117
I1
I0
tp4148
bS'sportovanie, pocuvanie hudby, pozeranie filmov, diskoteky, kupalisko, kino, party, priatelia, nakupovanie, stanovanie'
p4149
tp4150
Rp4151
sg49
I0
sg50
I1
sg51
g12
(g13
(S'S1'
p4152
I0
I1
tp4153
Rp4154
(I3
S'|'
p4155
NNNI1
I1
I0
tp4156
bg28
tp4157
Rp4158
sg60
g12
(g13
(S'S4'
p4159
I0
I1
tp4160
Rp4161
(I3
S'|'
p4162
NNNI4
I1
I0
tp4163
bS'null'
p4164
tp4165
Rp4166
sg69
g12
(g13
(S'S69'
p4167
I0
I1
tp4168
Rp4169
(I3
S'|'
p4170
NNNI69
I1
I0
tp4171
bS'pri telke, pri svieckach s partnerom, v dobrej restauracii, v posteli'
p4172
tp4173
Rp4174
sg78
g12
(g13
(S'S4'
p4175
I0
I1
tp4176
Rp4177
(I3
S'|'
p4178
NNNI4
I1
I0
tp4179
bS'null'
p4180
tp4181
Rp4182
sg87
g12
(g13
(S'S1'
p4183
I0
I1
tp4184
Rp4185
(I3
S'|'
p4186
NNNI1
I1
I0
tp4187
bg93
tp4188
Rp4189
ssS'103647'
p4190
(dp4191
g10
I0
sg11
g12
(g13
(S'S42'
p4192
I0
I1
tp4193
Rp4194
(I3
S'|'
p4195
NNNI42
I1
I0
tp4196
bS'anglicky, a v madarskom viem len nadavat:p'
p4197
tp4198
Rp4199
sg22
g12
(g13
(S'S1'
p4200
I0
I1
tp4201
Rp4202
(I3
S'|'
p4203
NNNI1
I1
I0
tp4204
bg93
tp4205
Rp4206
sg31
g12
(g13
(S'S43'
p4207
I0
I1
tp4208
Rp4209
(I3
S'|'
p4210
NNNI43
I1
I0
tp4211
bS'bratislavsky kraj, bratislava - karlova ves'
p4212
tp4213
Rp4214
sg40
g12
(g13
(S'S74'
p4215
I0
I1
tp4216
Rp4217
(I3
S'|'
p4218
NNNI74
I1
I0
tp4219
bS'turistika, pc hry, citanie, diskoteky, jedlo, kino, priatelia, spanie, sex'
p4220
tp4221
Rp4222
sg49
I0
sg50
I1
sg51
g12
(g13
(S'S2'
p4223
I0
I1
tp4224
Rp4225
(I3
S'|'
p4226
NNNI2
I1
I0
tp4227
bS'23'
p4228
tp4229
Rp4230
sg60
g12
(g13
(S'S8'
p4231
I0
I1
tp4232
Rp4233
(I3
S'|'
p4234
NNNI8
I1
I0
tp4235
bS'zakladne'
p4236
tp4237
Rp4238
sg69
g12
(g13
(S'S7'
p4239
I0
I1
tp4240
Rp4241
(I3
S'|'
p4242
NNNI7
I1
I0
tp4243
bS'barskde'
p4244
tp4245
Rp4246
sg78
g12
(g13
(S'S4'
p4247
I0
I1
tp4248
Rp4249
(I3
S'|'
p4250
NNNI4
I1
I0
tp4251
bS'null'
p4252
tp4253
Rp4254
sg87
g12
(g13
(S'S1'
p4255
I0
I1
tp4256
Rp4257
(I3
S'|'
p4258
NNNI1
I1
I0
tp4259
bg93
tp4260
Rp4261
ssV1362326
p4262
(dp4263
g10
I0
sg11
g12
(g13
(S'S4'
p4264
I0
I1
tp4265
Rp4266
(I3
S'|'
p4267
NNNI4
I1
I0
tp4268
bS'null'
p4269
tp4270
Rp4271
sg22
g12
(g13
(S'S1'
p4272
I0
I1
tp4273
Rp4274
(I3
S'|'
p4275
NNNI1
I1
I0
tp4276
bg28
tp4277
Rp4278
sg31
g12
(g13
(S'S43'
p4279
I0
I1
tp4280
Rp4281
(I3
S'|'
p4282
NNNI43
I1
I0
tp4283
bS'bratislavsky kraj, bratislava - karlova ves'
p4284
tp4285
Rp4286
sg40
g12
(g13
(S'S7'
p4287
I0
I1
tp4288
Rp4289
(I3
S'|'
p4290
NNNI7
I1
I0
tp4291
bS'varenie'
p4292
tp4293
Rp4294
sg49
I0
sg50
I0
sg51
g12
(g13
(S'S2'
p4295
I0
I1
tp4296
Rp4297
(I3
S'|'
p4298
NNNI2
I1
I0
tp4299
bS'50'
p4300
tp4301
Rp4302
sg60
g12
(g13
(S'S13'
p4303
I0
I1
tp4304
Rp4305
(I3
S'|'
p4306
NNNI13
I1
I0
tp4307
bS'stredoskolske'
p4308
tp4309
Rp4310
sg69
g12
(g13
(S'S4'
p4311
I0
I1
tp4312
Rp4313
(I3
S'|'
p4314
NNNI4
I1
I0
tp4315
bS'null'
p4316
tp4317
Rp4318
sg78
g12
(g13
(S'S4'
p4319
I0
I1
tp4320
Rp4321
(I3
S'|'
p4322
NNNI4
I1
I0
tp4323
bS'null'
p4324
tp4325
Rp4326
sg87
g12
(g13
(S'S1'
p4327
I0
I1
tp4328
Rp4329
(I3
S'|'
p4330
NNNI1
I1
I0
tp4331
bg28
tp4332
Rp4333
ssS'595626'
p4334
(dp4335
g10
I0
sg11
g12
(g13
(S'S41'
p4336
I0
I1
tp4337
Rp4338
(I3
S'|'
p4339
NNNI41
I1
I0
tp4340
bS'anglicky, nemecky, ale ani jeden poriadne'
p4341
tp4342
Rp4343
sg22
g12
(g13
(S'S1'
p4344
I0
I1
tp4345
Rp4346
(I3
S'|'
p4347
NNNI1
I1
I0
tp4348
bg93
tp4349
Rp4350
sg31
g12
(g13
(S'S43'
p4351
I0
I1
tp4352
Rp4353
(I3
S'|'
p4354
NNNI43
I1
I0
tp4355
bS'bratislavsky kraj, bratislava - karlova ves'
p4356
tp4357
Rp4358
sg40
g12
(g13
(S'S12'
p4359
I0
I1
tp4360
Rp4361
(I3
S'|'
p4362
NNNI12
I1
I0
tp4363
bS'kapela,hudba'
p4364
tp4365
Rp4366
sg49
I0
sg50
I0
sg51
g12
(g13
(S'S2'
p4367
I0
I1
tp4368
Rp4369
(I3
S'|'
p4370
NNNI2
I1
I0
tp4371
bS'24'
p4372
tp4373
Rp4374
sg60
g12
(g13
(S'S35'
p4375
I0
I1
tp4376
Rp4377
(I3
S'|'
p4378
NNNI35
I1
I0
tp4379
bS'zakladne, studujem na konzervatoriu'
p4380
tp4381
Rp4382
sg69
g12
(g13
(S'S4'
p4383
I0
I1
tp4384
Rp4385
(I3
S'|'
p4386
NNNI4
I1
I0
tp4387
bS'null'
p4388
tp4389
Rp4390
sg78
g12
(g13
(S'S4'
p4391
I0
I1
tp4392
Rp4393
(I3
S'|'
p4394
NNNI4
I1
I0
tp4395
bS'null'
p4396
tp4397
Rp4398
sg87
g12
(g13
(S'S1'
p4399
I0
I1
tp4400
Rp4401
(I3
S'|'
p4402
NNNI1
I1
I0
tp4403
bg93
tp4404
Rp4405
ssS'357439'
p4406
(dp4407
g10
I0
sg11
g12
(g13
(S'S17'
p4408
I0
I1
tp4409
Rp4410
(I3
S'|'
p4411
NNNI17
I1
I0
tp4412
bS'anglicky, nemecky'
p4413
tp4414
Rp4415
sg22
g12
(g13
(S'S1'
p4416
I0
I1
tp4417
Rp4418
(I3
S'|'
p4419
NNNI1
I1
I0
tp4420
bg28
tp4421
Rp4422
sg31
g12
(g13
(S'S43'
p4423
I0
I1
tp4424
Rp4425
(I3
S'|'
p4426
NNNI43
I1
I0
tp4427
bS'bratislavsky kraj, bratislava - karlova ves'
p4428
tp4429
Rp4430
sg40
g12
(g13
(S'S99'
p4431
I0
I1
tp4432
Rp4433
(I3
S'|'
p4434
NNNI99
I1
I0
tp4435
bS'sportovanie, fotografovanie, pozeranie filmov, diskoteky, kupalisko, kino, party, priatelia, spanie'
p4436
tp4437
Rp4438
sg49
I0
sg50
I0
sg51
g12
(g13
(S'S1'
p4439
I0
I1
tp4440
Rp4441
(I3
S'|'
p4442
NNNI1
I1
I0
tp4443
bg28
tp4444
Rp4445
sg60
g12
(g13
(S'S4'
p4446
I0
I1
tp4447
Rp4448
(I3
S'|'
p4449
NNNI4
I1
I0
tp4450
bS'null'
p4451
tp4452
Rp4453
sg69
g12
(g13
(S'S69'
p4454
I0
I1
tp4455
Rp4456
(I3
S'|'
p4457
NNNI69
I1
I0
tp4458
bS'pri telke, pri svieckach s partnerom, v dobrej restauracii, v posteli'
p4459
tp4460
Rp4461
sg78
g12
(g13
(S'S4'
p4462
I0
I1
tp4463
Rp4464
(I3
S'|'
p4465
NNNI4
I1
I0
tp4466
bS'null'
p4467
tp4468
Rp4469
sg87
g12
(g13
(S'S1'
p4470
I0
I1
tp4471
Rp4472
(I3
S'|'
p4473
NNNI1
I1
I0
tp4474
bg93
tp4475
Rp4476
ssV913724
p4477
(dp4478
g10
I0
sg11
g12
(g13
(S'S98'
p4479
I0
I1
tp4480
Rp4481
(I3
S'|'
p4482
NNNI98
I1
I0
tp4483
bS'anglicky, nemecky, nie velmi dobre, ale keby som sa velmi snazila, tak by som sa dorozumela, mozno'
p4484
tp4485
Rp4486
sg22
g12
(g13
(S'S1'
p4487
I0
I1
tp4488
Rp4489
(I3
S'|'
p4490
NNNI1
I1
I0
tp4491
bg28
tp4492
Rp4493
sg31
g12
(g13
(S'S43'
p4494
I0
I1
tp4495
Rp4496
(I3
S'|'
p4497
NNNI43
I1
I0
tp4498
bS'bratislavsky kraj, bratislava - karlova ves'
p4499
tp4500
Rp4501
sg40
g12
(g13
(S'S213'
p4502
I0
I1
tp4503
Rp4504
(I3
S'|'
p4505
NNNI213
I1
I0
tp4506
bS'sportovanie, cestovanie, turistika, pocuvanie hudby, tancovanie, diskoteky, varenie, kino, party, priatelia, spanie, nakupovanie, najradsej zo vsetkeho varim, sice to nikdy nejem ale som rada ked to chuti ostatnym'
p4507
tp4508
Rp4509
sg49
I0
sg50
I1
sg51
g12
(g13
(S'S2'
p4510
I0
I1
tp4511
Rp4512
(I3
S'|'
p4513
NNNI2
I1
I0
tp4514
bS'23'
p4515
tp4516
Rp4517
sg60
g12
(g13
(S'S39'
p4518
I0
I1
tp4519
Rp4520
(I3
S'|'
p4521
NNNI39
I1
I0
tp4522
bS'skoncena stredoskolacka, vysokoskolacka'
p4523
tp4524
Rp4525
sg69
g12
(g13
(S'S69'
p4526
I0
I1
tp4527
Rp4528
(I3
S'|'
p4529
NNNI69
I1
I0
tp4530
bS'v dobrej restauracii, v prirode, kdekolvek kde je prijemne prostredie'
p4531
tp4532
Rp4533
sg78
g12
(g13
(S'S4'
p4534
I0
I1
tp4535
Rp4536
(I3
S'|'
p4537
NNNI4
I1
I0
tp4538
bS'null'
p4539
tp4540
Rp4541
sg87
g12
(g13
(S'S1'
p4542
I0
I1
tp4543
Rp4544
(I3
S'|'
p4545
NNNI1
I1
I0
tp4546
bg93
tp4547
Rp4548
ssV4409
p4549
(dp4550
g10
I0
sg11
g12
(g13
(S'S16'
p4551
I0
I1
tp4552
Rp4553
(I3
S'|'
p4554
NNNI16
I1
I0
tp4555
bS'anglicky, romsky'
p4556
tp4557
Rp4558
sg22
g12
(g13
(S'S1'
p4559
I0
I1
tp4560
Rp4561
(I3
S'|'
p4562
NNNI1
I1
I0
tp4563
bg93
tp4564
Rp4565
sg31
g12
(g13
(S'S43'
p4566
I0
I1
tp4567
Rp4568
(I3
S'|'
p4569
NNNI43
I1
I0
tp4570
bS'bratislavsky kraj, bratislava - karlova ves'
p4571
tp4572
Rp4573
sg40
g12
(g13
(S'S149'
p4574
I0
I1
tp4575
Rp4576
(I3
S'|'
p4577
NNNI149
I1
I0
tp4578
bS'sportovanie, turistika, prace v zahrade, pc hry, pocuvanie hudby, pozeranie filmov, tancovanie, diskoteky, jedlo, kino, party, priatelia, spanie, sex'
p4579
tp4580
Rp4581
sg49
I0
sg50
I1
sg51
g12
(g13
(S'S1'
p4582
I0
I1
tp4583
Rp4584
(I3
S'|'
p4585
NNNI1
I1
I0
tp4586
bg28
tp4587
Rp4588
sg60
g12
(g13
(S'S4'
p4589
I0
I1
tp4590
Rp4591
(I3
S'|'
p4592
NNNI4
I1
I0
tp4593
bS'null'
p4594
tp4595
Rp4596
sg69
g12
(g13
(S'S71'
p4597
I0
I1
tp4598
Rp4599
(I3
S'|'
p4600
NNNI71
I1
I0
tp4601
bS'pri telke, v dobrej restauracii, v posteli, mijem pozeranie tv a jednie'
p4602
tp4603
Rp4604
sg78
g12
(g13
(S'S4'
p4605
I0
I1
tp4606
Rp4607
(I3
S'|'
p4608
NNNI4
I1
I0
tp4609
bS'null'
p4610
tp4611
Rp4612
sg87
g12
(g13
(S'S1'
p4613
I0
I1
tp4614
Rp4615
(I3
S'|'
p4616
NNNI1
I1
I0
tp4617
bg93
tp4618
Rp4619
ssS'727132'
p4620
(dp4621
g10
I0
sg11
g12
(g13
(S'S33'
p4622
I0
I1
tp4623
Rp4624
(I3
S'|'
p4625
NNNI33
I1
I0
tp4626
bS'anglicky, slovensky a cesky   :-)'
p4627
tp4628
Rp4629
sg22
g12
(g13
(S'S1'
p4630
I0
I1
tp4631
Rp4632
(I3
S'|'
p4633
NNNI1
I1
I0
tp4634
bg93
tp4635
Rp4636
sg31
g12
(g13
(S'S43'
p4637
I0
I1
tp4638
Rp4639
(I3
S'|'
p4640
NNNI43
I1
I0
tp4641
bS'bratislavsky kraj, bratislava - karlova ves'
p4642
tp4643
Rp4644
sg40
g12
(g13
(S'S194'
p4645
I0
I1
tp4646
Rp4647
(I3
S'|'
p4648
NNNI194
I1
I0
tp4649
bS'sportovanie, cestovanie, praca s pc, pc hry, surfovanie po webe, pocuvanie hudby, pozeranie filmov, diskoteky, kupalisko, varenie, jedlo, kino, party, priatelia, spanie, divadlo, sex, stanovanie'
p4650
tp4651
Rp4652
sg49
I0
sg50
I1
sg51
g12
(g13
(S'S2'
p4653
I0
I1
tp4654
Rp4655
(I3
S'|'
p4656
NNNI2
I1
I0
tp4657
bS'23'
p4658
tp4659
Rp4660
sg60
g12
(g13
(S'S4'
p4661
I0
I1
tp4662
Rp4663
(I3
S'|'
p4664
NNNI4
I1
I0
tp4665
bS'null'
p4666
tp4667
Rp4668
sg69
g12
(g13
(S'S134'
p4669
I0
I1
tp4670
Rp4671
(I3
S'|'
p4672
NNNI134
I1
I0
tp4673
bS'pri telke, pri svieckach s partnerom, v dobrej restauracii, v posteli, z partnerovho bruska, to je jedno hlavne nech mi to jedlo chuti'
p4674
tp4675
Rp4676
sg78
g12
(g13
(S'S4'
p4677
I0
I1
tp4678
Rp4679
(I3
S'|'
p4680
NNNI4
I1
I0
tp4681
bS'null'
p4682
tp4683
Rp4684
sg87
g12
(g13
(S'S1'
p4685
I0
I1
tp4686
Rp4687
(I3
S'|'
p4688
NNNI1
I1
I0
tp4689
bg93
tp4690
Rp4691
ssV366055
p4692
(dp4693
g10
I0
sg11
g12
(g13
(S'S4'
p4694
I0
I1
tp4695
Rp4696
(I3
S'|'
p4697
NNNI4
I1
I0
tp4698
bS'null'
p4699
tp4700
Rp4701
sg22
g12
(g13
(S'S1'
p4702
I0
I1
tp4703
Rp4704
(I3
S'|'
p4705
NNNI1
I1
I0
tp4706
bg93
tp4707
Rp4708
sg31
g12
(g13
(S'S43'
p4709
I0
I1
tp4710
Rp4711
(I3
S'|'
p4712
NNNI43
I1
I0
tp4713
bS'bratislavsky kraj, bratislava - karlova ves'
p4714
tp4715
Rp4716
sg40
g12
(g13
(S'S4'
p4717
I0
I1
tp4718
Rp4719
(I3
S'|'
p4720
NNNI4
I1
I0
tp4721
bS'null'
p4722
tp4723
Rp4724
sg49
I0
sg50
I1
sg51
g12
(g13
(S'S2'
p4725
I0
I1
tp4726
Rp4727
(I3
S'|'
p4728
NNNI2
I1
I0
tp4729
bS'22'
p4730
tp4731
Rp4732
sg60
g12
(g13
(S'S4'
p4733
I0
I1
tp4734
Rp4735
(I3
S'|'
p4736
NNNI4
I1
I0
tp4737
bS'null'
p4738
tp4739
Rp4740
sg69
g12
(g13
(S'S4'
p4741
I0
I1
tp4742
Rp4743
(I3
S'|'
p4744
NNNI4
I1
I0
tp4745
bS'null'
p4746
tp4747
Rp4748
sg78
g12
(g13
(S'S4'
p4749
I0
I1
tp4750
Rp4751
(I3
S'|'
p4752
NNNI4
I1
I0
tp4753
bS'null'
p4754
tp4755
Rp4756
sg87
g12
(g13
(S'S1'
p4757
I0
I1
tp4758
Rp4759
(I3
S'|'
p4760
NNNI1
I1
I0
tp4761
bg93
tp4762
Rp4763
ssV228253
p4764
(dp4765
g10
I0
sg11
g12
(g13
(S'S20'
p4766
I0
I1
tp4767
Rp4768
(I3
S'|'
p4769
NNNI20
I1
I0
tp4770
bS'anglicky, spanielsky'
p4771
tp4772
Rp4773
sg22
g12
(g13
(S'S1'
p4774
I0
I1
tp4775
Rp4776
(I3
S'|'
p4777
NNNI1
I1
I0
tp4778
bg93
tp4779
Rp4780
sg31
g12
(g13
(S'S43'
p4781
I0
I1
tp4782
Rp4783
(I3
S'|'
p4784
NNNI43
I1
I0
tp4785
bS'bratislavsky kraj, bratislava - karlova ves'
p4786
tp4787
Rp4788
sg40
g12
(g13
(S'S34'
p4789
I0
I1
tp4790
Rp4791
(I3
S'|'
p4792
NNNI34
I1
I0
tp4793
bS'turistika, cestovanie, sportovanie'
p4794
tp4795
Rp4796
sg49
I0
sg50
I0
sg51
g12
(g13
(S'S2'
p4797
I0
I1
tp4798
Rp4799
(I3
S'|'
p4800
NNNI2
I1
I0
tp4801
bS'22'
p4802
tp4803
Rp4804
sg60
g12
(g13
(S'S4'
p4805
I0
I1
tp4806
Rp4807
(I3
S'|'
p4808
NNNI4
I1
I0
tp4809
bS'null'
p4810
tp4811
Rp4812
sg69
g12
(g13
(S'S4'
p4813
I0
I1
tp4814
Rp4815
(I3
S'|'
p4816
NNNI4
I1
I0
tp4817
bS'null'
p4818
tp4819
Rp4820
sg78
g12
(g13
(S'S4'
p4821
I0
I1
tp4822
Rp4823
(I3
S'|'
p4824
NNNI4
I1
I0
tp4825
bS'null'
p4826
tp4827
Rp4828
sg87
g12
(g13
(S'S1'
p4829
I0
I1
tp4830
Rp4831
(I3
S'|'
p4832
NNNI1
I1
I0
tp4833
bg93
tp4834
Rp4835
ssS'103648'
p4836
(dp4837
g10
I0
sg11
g12
(g13
(S'S115'
p4838
I0
I1
tp4839
Rp4840
(I3
S'|'
p4841
NNNI115
I1
I0
tp4842
bS'ano a celkom dobre:)    inak viim pa englicky,trosku slovenskyy,,cesky,nemecki,rucky a pa france...hem hm...sa ucim'
p4843
tp4844
Rp4845
sg22
g12
(g13
(S'S1'
p4846
I0
I1
tp4847
Rp4848
(I3
S'|'
p4849
NNNI1
I1
I0
tp4850
bg93
tp4851
Rp4852
sg31
g12
(g13
(S'S43'
p4853
I0
I1
tp4854
Rp4855
(I3
S'|'
p4856
NNNI43
I1
I0
tp4857
bS'bratislavsky kraj, bratislava - karlova ves'
p4858
tp4859
Rp4860
sg40
g12
(g13
(S'S93'
p4861
I0
I1
tp4862
Rp4863
(I3
S'|'
p4864
NNNI93
I1
I0
tp4865
bS'domace prace, hackovanie, vysivanie, sitie, prace v zahrade, sex, sex hackovanie a rockenroll'
p4866
tp4867
Rp4868
sg49
I0
sg50
I1
sg51
g12
(g13
(S'S2'
p4869
I0
I1
tp4870
Rp4871
(I3
S'|'
p4872
NNNI2
I1
I0
tp4873
bS'23'
p4874
tp4875
Rp4876
sg60
g12
(g13
(S'S8'
p4877
I0
I1
tp4878
Rp4879
(I3
S'|'
p4880
NNNI8
I1
I0
tp4881
bS'zakladne'
p4882
tp4883
Rp4884
sg69
g12
(g13
(S'S122'
p4885
I0
I1
tp4886
Rp4887
(I3
S'|'
p4888
NNNI122
I1
I0
tp4889
bS'pri telke, pri svieckach s partnerom, v dobrej restauracii, v prirode, v posteli, z partnerovho bruska, a hlavne z taniera'
p4890
tp4891
Rp4892
sg78
g12
(g13
(S'S4'
p4893
I0
I1
tp4894
Rp4895
(I3
S'|'
p4896
NNNI4
I1
I0
tp4897
bS'null'
p4898
tp4899
Rp4900
sg87
g12
(g13
(S'S1'
p4901
I0
I1
tp4902
Rp4903
(I3
S'|'
p4904
NNNI1
I1
I0
tp4905
bg93
tp4906
Rp4907
ssS'252259'
p4908
(dp4909
g10
I0
sg11
g12
(g13
(S'S8'
p4910
I0
I1
tp4911
Rp4912
(I3
S'|'
p4913
NNNI8
I1
I0
tp4914
bS'anglicky'
p4915
tp4916
Rp4917
sg22
g12
(g13
(S'S1'
p4918
I0
I1
tp4919
Rp4920
(I3
S'|'
p4921
NNNI1
I1
I0
tp4922
bg93
tp4923
Rp4924
sg31
g12
(g13
(S'S43'
p4925
I0
I1
tp4926
Rp4927
(I3
S'|'
p4928
NNNI43
I1
I0
tp4929
bS'bratislavsky kraj, bratislava - karlova ves'
p4930
tp4931
Rp4932
sg40
g12
(g13
(S'S39'
p4933
I0
I1
tp4934
Rp4935
(I3
S'|'
p4936
NNNI39
I1
I0
tp4937
bS'sportovanie, fotografovanie, praca s pc'
p4938
tp4939
Rp4940
sg49
I0
sg50
I1
sg51
g12
(g13
(S'S2'
p4941
I0
I1
tp4942
Rp4943
(I3
S'|'
p4944
NNNI2
I1
I0
tp4945
bS'22'
p4946
tp4947
Rp4948
sg60
g12
(g13
(S'S13'
p4949
I0
I1
tp4950
Rp4951
(I3
S'|'
p4952
NNNI13
I1
I0
tp4953
bS'stredoskolske'
p4954
tp4955
Rp4956
sg69
g12
(g13
(S'S9'
p4957
I0
I1
tp4958
Rp4959
(I3
S'|'
p4960
NNNI9
I1
I0
tp4961
bS'pri telke'
p4962
tp4963
Rp4964
sg78
g12
(g13
(S'S4'
p4965
I0
I1
tp4966
Rp4967
(I3
S'|'
p4968
NNNI4
I1
I0
tp4969
bS'null'
p4970
tp4971
Rp4972
sg87
g12
(g13
(S'S1'
p4973
I0
I1
tp4974
Rp4975
(I3
S'|'
p4976
NNNI1
I1
I0
tp4977
bg28
tp4978
Rp4979
ssS'428083'
p4980
(dp4981
g10
I0
sg11
g12
(g13
(S'S50'
p4982
I0
I1
tp4983
Rp4984
(I3
S'|'
p4985
NNNI50
I1
I0
tp4986
bS'anglicky, nemecky, tak iba sa robim,.ze to ovladam'
p4987
tp4988
Rp4989
sg22
g12
(g13
(S'S1'
p4990
I0
I1
tp4991
Rp4992
(I3
S'|'
p4993
NNNI1
I1
I0
tp4994
bg28
tp4995
Rp4996
sg31
g12
(g13
(S'S43'
p4997
I0
I1
tp4998
Rp4999
(I3
S'|'
p5000
NNNI43
I1
I0
tp5001
bS'bratislavsky kraj, bratislava - karlova ves'
p5002
tp5003
Rp5004
sg40
g12
(g13
(S'S144'
p5005
I0
I1
tp5006
Rp5007
(I3
S'|'
p5008
NNNI144
I1
I0
tp5009
bS'surfovanie po webe, pocuvanie hudby, pozeranie filmov, tancovanie, diskoteky, varenie, party, priatelia, tak mam toho viacej rada ale tot u neni'
p5010
tp5011
Rp5012
sg49
I0
sg50
I1
sg51
g12
(g13
(S'S2'
p5013
I0
I1
tp5014
Rp5015
(I3
S'|'
p5016
NNNI2
I1
I0
tp5017
bS'20'
p5018
tp5019
Rp5020
sg60
g12
(g13
(S'S16'
p5021
I0
I1
tp5022
Rp5023
(I3
S'|'
p5024
NNNI16
I1
I0
tp5025
bS'materrska skolka'
p5026
tp5027
Rp5028
sg69
g12
(g13
(S'S96'
p5029
I0
I1
tp5030
Rp5031
(I3
S'|'
p5032
NNNI96
I1
I0
tp5033
bS'pri svieckach s partnerom, v dobrej restauracii, z partnerovho bruska, tak ja lubim aj romantiku'
p5034
tp5035
Rp5036
sg78
g12
(g13
(S'S4'
p5037
I0
I1
tp5038
Rp5039
(I3
S'|'
p5040
NNNI4
I1
I0
tp5041
bS'null'
p5042
tp5043
Rp5044
sg87
g12
(g13
(S'S1'
p5045
I0
I1
tp5046
Rp5047
(I3
S'|'
p5048
NNNI1
I1
I0
tp5049
bg28
tp5050
Rp5051
ssV761025
p5052
(dp5053
g10
I0
sg11
g12
(g13
(S'S8'
p5054
I0
I1
tp5055
Rp5056
(I3
S'|'
p5057
NNNI8
I1
I0
tp5058
bS'anglicky'
p5059
tp5060
Rp5061
sg22
g12
(g13
(S'S1'
p5062
I0
I1
tp5063
Rp5064
(I3
S'|'
p5065
NNNI1
I1
I0
tp5066
bg28
tp5067
Rp5068
sg31
g12
(g13
(S'S43'
p5069
I0
I1
tp5070
Rp5071
(I3
S'|'
p5072
NNNI43
I1
I0
tp5073
bS'bratislavsky kraj, bratislava - karlova ves'
p5074
tp5075
Rp5076
sg40
g12
(g13
(S'S74'
p5077
I0
I1
tp5078
Rp5079
(I3
S'|'
p5080
NNNI74
I1
I0
tp5081
bS'sportovanie, fotografovanie, pocuvanie hudby, kupalisko, priatelia, spanie'
p5082
tp5083
Rp5084
sg49
I0
sg50
I1
sg51
g12
(g13
(S'S1'
p5085
I0
I1
tp5086
Rp5087
(I3
S'|'
p5088
NNNI1
I1
I0
tp5089
bg28
tp5090
Rp5091
sg60
g12
(g13
(S'S4'
p5092
I0
I1
tp5093
Rp5094
(I3
S'|'
p5095
NNNI4
I1
I0
tp5096
bS'null'
p5097
tp5098
Rp5099
sg69
g12
(g13
(S'S31'
p5100
I0
I1
tp5101
Rp5102
(I3
S'|'
p5103
NNNI31
I1
I0
tp5104
bS'pri telke, v dobrej restauracii'
p5105
tp5106
Rp5107
sg78
g12
(g13
(S'S4'
p5108
I0
I1
tp5109
Rp5110
(I3
S'|'
p5111
NNNI4
I1
I0
tp5112
bS'null'
p5113
tp5114
Rp5115
sg87
g12
(g13
(S'S1'
p5116
I0
I1
tp5117
Rp5118
(I3
S'|'
p5119
NNNI1
I1
I0
tp5120
bg93
tp5121
Rp5122
ssV80151
p5123
(dp5124
g10
I0
sg11
g12
(g13
(S'S8'
p5125
I0
I1
tp5126
Rp5127
(I3
S'|'
p5128
NNNI8
I1
I0
tp5129
bS'anglicky'
p5130
tp5131
Rp5132
sg22
g12
(g13
(S'S1'
p5133
I0
I1
tp5134
Rp5135
(I3
S'|'
p5136
NNNI1
I1
I0
tp5137
bg28
tp5138
Rp5139
sg31
g12
(g13
(S'S43'
p5140
I0
I1
tp5141
Rp5142
(I3
S'|'
p5143
NNNI43
I1
I0
tp5144
bS'bratislavsky kraj, bratislava - karlova ves'
p5145
tp5146
Rp5147
sg40
g12
(g13
(S'S153'
p5148
I0
I1
tp5149
Rp5150
(I3
S'|'
p5151
NNNI153
I1
I0
tp5152
bS'sportovanie, fotografovanie, surfovanie po webe, kupalisko, nakupovanie, to sportowanie len akokedy hej:d a fotografowanje...tho akoze ne neco ale seba:p'
p5153
tp5154
Rp5155
sg49
I0
sg50
I1
sg51
g12
(g13
(S'S2'
p5156
I0
I1
tp5157
Rp5158
(I3
S'|'
p5159
NNNI2
I1
I0
tp5160
bS'18'
p5161
tp5162
Rp5163
sg60
g12
(g13
(S'S8'
p5164
I0
I1
tp5165
Rp5166
(I3
S'|'
p5167
NNNI8
I1
I0
tp5168
bS'zakladne'
p5169
tp5170
Rp5171
sg69
g12
(g13
(S'S53'
p5172
I0
I1
tp5173
Rp5174
(I3
S'|'
p5175
NNNI53
I1
I0
tp5176
bS'pri telke, v dobrej restauracii, z partnerovho bruska'
p5177
tp5178
Rp5179
sg78
g12
(g13
(S'S4'
p5180
I0
I1
tp5181
Rp5182
(I3
S'|'
p5183
NNNI4
I1
I0
tp5184
bS'null'
p5185
tp5186
Rp5187
sg87
g12
(g13
(S'S1'
p5188
I0
I1
tp5189
Rp5190
(I3
S'|'
p5191
NNNI1
I1
I0
tp5192
bg93
tp5193
Rp5194
ssS'211877'
p5195
(dp5196
g10
I0
sg11
g12
(g13
(S'S33'
p5197
I0
I1
tp5198
Rp5199
(I3
S'|'
p5200
NNNI33
I1
I0
tp5201
bS'anglicky, nemecky, ,polski,a svoj'
p5202
tp5203
Rp5204
sg22
g12
(g13
(S'S1'
p5205
I0
I1
tp5206
Rp5207
(I3
S'|'
p5208
NNNI1
I1
I0
tp5209
bg93
tp5210
Rp5211
sg31
g12
(g13
(S'S43'
p5212
I0
I1
tp5213
Rp5214
(I3
S'|'
p5215
NNNI43
I1
I0
tp5216
bS'bratislavsky kraj, bratislava - karlova ves'
p5217
tp5218
Rp5219
sg40
g12
(g13
(S'S179'
p5220
I0
I1
tp5221
Rp5222
(I3
S'|'
p5223
NNNI179
I1
I0
tp5224
bS'sportovanie, cestovanie, turistika, hackovanie, vysivanie, pocuvanie hudby, pozeranie filmov, tancovanie, diskoteky, kupalisko, varenie, jedlo, kino, party, priatelia, spanie, sex'
p5225
tp5226
Rp5227
sg49
I0
sg50
I1
sg51
g12
(g13
(S'S2'
p5228
I0
I1
tp5229
Rp5230
(I3
S'|'
p5231
NNNI2
I1
I0
tp5232
bS'23'
p5233
tp5234
Rp5235
sg60
g12
(g13
(S'S13'
p5236
I0
I1
tp5237
Rp5238
(I3
S'|'
p5239
NNNI13
I1
I0
tp5240
bS'stredoskolske'
p5241
tp5242
Rp5243
sg69
g12
(g13
(S'S58'
p5244
I0
I1
tp5245
Rp5246
(I3
S'|'
p5247
NNNI58
I1
I0
tp5248
bS'pri telke, pri svieckach s partnerom, z partnerovho bruska'
p5249
tp5250
Rp5251
sg78
g12
(g13
(S'S4'
p5252
I0
I1
tp5253
Rp5254
(I3
S'|'
p5255
NNNI4
I1
I0
tp5256
bS'null'
p5257
tp5258
Rp5259
sg87
g12
(g13
(S'S1'
p5260
I0
I1
tp5261
Rp5262
(I3
S'|'
p5263
NNNI1
I1
I0
tp5264
bg28
tp5265
Rp5266
ssV998513
p5267
(dp5268
g10
I0
sg11
g12
(g13
(S'S4'
p5269
I0
I1
tp5270
Rp5271
(I3
S'|'
p5272
NNNI4
I1
I0
tp5273
bS'null'
p5274
tp5275
Rp5276
sg22
g12
(g13
(S'S1'
p5277
I0
I1
tp5278
Rp5279
(I3
S'|'
p5280
NNNI1
I1
I0
tp5281
bg93
tp5282
Rp5283
sg31
g12
(g13
(S'S43'
p5284
I0
I1
tp5285
Rp5286
(I3
S'|'
p5287
NNNI43
I1
I0
tp5288
bS'bratislavsky kraj, bratislava - karlova ves'
p5289
tp5290
Rp5291
sg40
g12
(g13
(S'S4'
p5292
I0
I1
tp5293
Rp5294
(I3
S'|'
p5295
NNNI4
I1
I0
tp5296
bS'null'
p5297
tp5298
Rp5299
sg49
I0
sg50
I1
sg51
g12
(g13
(S'S2'
p5300
I0
I1
tp5301
Rp5302
(I3
S'|'
p5303
NNNI2
I1
I0
tp5304
bS'26'
p5305
tp5306
Rp5307
sg60
g12
(g13
(S'S4'
p5308
I0
I1
tp5309
Rp5310
(I3
S'|'
p5311
NNNI4
I1
I0
tp5312
bS'null'
p5313
tp5314
Rp5315
sg69
g12
(g13
(S'S23'
p5316
I0
I1
tp5317
Rp5318
(I3
S'|'
p5319
NNNI23
I1
I0
tp5320
bS'v prijemnej spolocnosti'
p5321
tp5322
Rp5323
sg78
g12
(g13
(S'S4'
p5324
I0
I1
tp5325
Rp5326
(I3
S'|'
p5327
NNNI4
I1
I0
tp5328
bS'null'
p5329
tp5330
Rp5331
sg87
g12
(g13
(S'S1'
p5332
I0
I1
tp5333
Rp5334
(I3
S'|'
p5335
NNNI1
I1
I0
tp5336
bg28
tp5337
Rp5338
ssS'80662'
p5339
(dp5340
g10
I0
sg11
g12
(g13
(S'S29'
p5341
I0
I1
tp5342
Rp5343
(I3
S'|'
p5344
NNNI29
I1
I0
tp5345
bS'ucim sa anglicky a francuzsky'
p5346
tp5347
Rp5348
sg22
g12
(g13
(S'S1'
p5349
I0
I1
tp5350
Rp5351
(I3
S'|'
p5352
NNNI1
I1
I0
tp5353
bg28
tp5354
Rp5355
sg31
g12
(g13
(S'S43'
p5356
I0
I1
tp5357
Rp5358
(I3
S'|'
p5359
NNNI43
I1
I0
tp5360
bS'bratislavsky kraj, bratislava - karlova ves'
p5361
tp5362
Rp5363
sg40
g12
(g13
(S'S155'
p5364
I0
I1
tp5365
Rp5366
(I3
S'|'
p5367
NNNI155
I1
I0
tp5368
bS'fotografovanie, surfovanie po webe, citanie, pocuvanie hudby, pozeranie filmov, malovanie, tancovanie, varenie, kino, party, priatelia, spanie, nakupovanie'
p5369
tp5370
Rp5371
sg49
I0
sg50
I0
sg51
g12
(g13
(S'S1'
p5372
I0
I1
tp5373
Rp5374
(I3
S'|'
p5375
NNNI1
I1
I0
tp5376
bg28
tp5377
Rp5378
sg60
g12
(g13
(S'S8'
p5379
I0
I1
tp5380
Rp5381
(I3
S'|'
p5382
NNNI8
I1
I0
tp5383
bS'zakladne'
p5384
tp5385
Rp5386
sg69
g12
(g13
(S'S4'
p5387
I0
I1
tp5388
Rp5389
(I3
S'|'
p5390
NNNI4
I1
I0
tp5391
bS'null'
p5392
tp5393
Rp5394
sg78
g12
(g13
(S'S4'
p5395
I0
I1
tp5396
Rp5397
(I3
S'|'
p5398
NNNI4
I1
I0
tp5399
bS'null'
p5400
tp5401
Rp5402
sg87
g12
(g13
(S'S1'
p5403
I0
I1
tp5404
Rp5405
(I3
S'|'
p5406
NNNI1
I1
I0
tp5407
bg93
tp5408
Rp5409
ssV281802
p5410
(dp5411
g10
I0
sg11
g12
(g13
(S'S69'
p5412
I0
I1
tp5413
Rp5414
(I3
S'|'
p5415
NNNI69
I1
I0
tp5416
bS'anglicky, nemecky, francuzsky, taliansky, rusky, spanielsky, japonsky'
p5417
tp5418
Rp5419
sg22
g12
(g13
(S'S1'
p5420
I0
I1
tp5421
Rp5422
(I3
S'|'
p5423
NNNI1
I1
I0
tp5424
bg28
tp5425
Rp5426
sg31
g12
(g13
(S'S43'
p5427
I0
I1
tp5428
Rp5429
(I3
S'|'
p5430
NNNI43
I1
I0
tp5431
bS'bratislavsky kraj, bratislava - karlova ves'
p5432
tp5433
Rp5434
sg40
g12
(g13
(S'S38'
p5435
I0
I1
tp5436
Rp5437
(I3
S'|'
p5438
NNNI38
I1
I0
tp5439
bS'sitie, zberatelstvo, chodenie do muzei'
p5440
tp5441
Rp5442
sg49
I0
sg50
I1
sg51
g12
(g13
(S'S2'
p5443
I0
I1
tp5444
Rp5445
(I3
S'|'
p5446
NNNI2
I1
I0
tp5447
bS'22'
p5448
tp5449
Rp5450
sg60
g12
(g13
(S'S13'
p5451
I0
I1
tp5452
Rp5453
(I3
S'|'
p5454
NNNI13
I1
I0
tp5455
bS'stredoskolske'
p5456
tp5457
Rp5458
sg69
g12
(g13
(S'S81'
p5459
I0
I1
tp5460
Rp5461
(I3
S'|'
p5462
NNNI81
I1
I0
tp5463
bS'pri telke, pri svieckach s partnerom, v dobrej restauracii, v posteli, vo virivke'
p5464
tp5465
Rp5466
sg78
g12
(g13
(S'S4'
p5467
I0
I1
tp5468
Rp5469
(I3
S'|'
p5470
NNNI4
I1
I0
tp5471
bS'null'
p5472
tp5473
Rp5474
sg87
g12
(g13
(S'S1'
p5475
I0
I1
tp5476
Rp5477
(I3
S'|'
p5478
NNNI1
I1
I0
tp5479
bg93
tp5480
Rp5481
ssS'188572'
p5482
(dp5483
g10
I0
sg11
g12
(g13
(S'S68'
p5484
I0
I1
tp5485
Rp5486
(I3
S'|'
p5487
NNNI68
I1
I0
tp5488
bS'cesky, anglicky (zaklady), nemecky (pokrocily) no a ten svoj vlastny'
p5489
tp5490
Rp5491
sg22
g12
(g13
(S'S1'
p5492
I0
I1
tp5493
Rp5494
(I3
S'|'
p5495
NNNI1
I1
I0
tp5496
bg28
tp5497
Rp5498
sg31
g12
(g13
(S'S43'
p5499
I0
I1
tp5500
Rp5501
(I3
S'|'
p5502
NNNI43
I1
I0
tp5503
bS'bratislavsky kraj, bratislava - karlova ves'
p5504
tp5505
Rp5506
sg40
g12
(g13
(S'S222'
p5507
I0
I1
tp5508
Rp5509
(I3
S'|'
p5510
NNNI222
I1
I0
tp5511
bS'fotografovanie, cestovanie, turistika, praca s pc, pc hry, surfovanie po webe, citanie, pocuvanie hudby, pozeranie filmov, varenie, jedlo, kino, priatelia, spanie, divadlo, stanovanie, chodenie do muzei,  www.rhyna.blog.cz'
p5512
tp5513
Rp5514
sg49
I0
sg50
I1
sg51
g12
(g13
(S'S2'
p5515
I0
I1
tp5516
Rp5517
(I3
S'|'
p5518
NNNI2
I1
I0
tp5519
bS'20'
p5520
tp5521
Rp5522
sg60
g12
(g13
(S'S13'
p5523
I0
I1
tp5524
Rp5525
(I3
S'|'
p5526
NNNI13
I1
I0
tp5527
bS'stredoskolske'
p5528
tp5529
Rp5530
sg69
g12
(g13
(S'S68'
p5531
I0
I1
tp5532
Rp5533
(I3
S'|'
p5534
NNNI68
I1
I0
tp5535
bS'pri telke, v kuchyni pri stole, pri svieckach s partnerom, v prirode'
p5536
tp5537
Rp5538
sg78
g12
(g13
(S'S4'
p5539
I0
I1
tp5540
Rp5541
(I3
S'|'
p5542
NNNI4
I1
I0
tp5543
bS'null'
p5544
tp5545
Rp5546
sg87
g12
(g13
(S'S1'
p5547
I0
I1
tp5548
Rp5549
(I3
S'|'
p5550
NNNI1
I1
I0
tp5551
bg93
tp5552
Rp5553
ssS'285466'
p5554
(dp5555
g10
I0
sg11
g12
(g13
(S'S8'
p5556
I0
I1
tp5557
Rp5558
(I3
S'|'
p5559
NNNI8
I1
I0
tp5560
bS'anglicky'
p5561
tp5562
Rp5563
sg22
g12
(g13
(S'S1'
p5564
I0
I1
tp5565
Rp5566
(I3
S'|'
p5567
NNNI1
I1
I0
tp5568
bg28
tp5569
Rp5570
sg31
g12
(g13
(S'S43'
p5571
I0
I1
tp5572
Rp5573
(I3
S'|'
p5574
NNNI43
I1
I0
tp5575
bS'bratislavsky kraj, bratislava - karlova ves'
p5576
tp5577
Rp5578
sg40
g12
(g13
(S'S4'
p5579
I0
I1
tp5580
Rp5581
(I3
S'|'
p5582
NNNI4
I1
I0
tp5583
bS'null'
p5584
tp5585
Rp5586
sg49
I0
sg50
I0
sg51
g12
(g13
(S'S2'
p5587
I0
I1
tp5588
Rp5589
(I3
S'|'
p5590
NNNI2
I1
I0
tp5591
bS'22'
p5592
tp5593
Rp5594
sg60
g12
(g13
(S'S13'
p5595
I0
I1
tp5596
Rp5597
(I3
S'|'
p5598
NNNI13
I1
I0
tp5599
bS'stredoskolske'
p5600
tp5601
Rp5602
sg69
g12
(g13
(S'S4'
p5603
I0
I1
tp5604
Rp5605
(I3
S'|'
p5606
NNNI4
I1
I0
tp5607
bS'null'
p5608
tp5609
Rp5610
sg78
g12
(g13
(S'S83'
p5611
I0
I1
tp5612
Rp5613
(I3
S'|'
p5614
NNNI83
I1
I0
tp5615
bS'<div> <a title="vstup do klubu" href="/klub/ruzove-zanga">ruzove tanga ?</a> </div>'
p5616
tp5617
Rp5618
sg87
g12
(g13
(S'S1'
p5619
I0
I1
tp5620
Rp5621
(I3
S'|'
p5622
NNNI1
I1
I0
tp5623
bg93
tp5624
Rp5625
ssV773706
p5626
(dp5627
g10
I0
sg11
g12
(g13
(S'S55'
p5628
I0
I1
tp5629
Rp5630
(I3
S'|'
p5631
NNNI55
I1
I0
tp5632
bS'anglicky, nemecky, no ale slovencina mi ide najlepsie:)'
p5633
tp5634
Rp5635
sg22
g12
(g13
(S'S1'
p5636
I0
I1
tp5637
Rp5638
(I3
S'|'
p5639
NNNI1
I1
I0
tp5640
bg28
tp5641
Rp5642
sg31
g12
(g13
(S'S43'
p5643
I0
I1
tp5644
Rp5645
(I3
S'|'
p5646
NNNI43
I1
I0
tp5647
bS'bratislavsky kraj, bratislava - karlova ves'
p5648
tp5649
Rp5650
sg40
g12
(g13
(S'S126'
p5651
I0
I1
tp5652
Rp5653
(I3
S'|'
p5654
NNNI126
I1
I0
tp5655
bS'surfovanie po webe, sex, priatelia, varenie, diskoteky, pocuvanie hudby, citanie, tancovanie, jedlo, party, spanie, stanovanie'
p5656
tp5657
Rp5658
sg49
I0
sg50
I0
sg51
g12
(g13
(S'S2'
p5659
I0
I1
tp5660
Rp5661
(I3
S'|'
p5662
NNNI2
I1
I0
tp5663
bS'23'
p5664
tp5665
Rp5666
sg60
g12
(g13
(S'S8'
p5667
I0
I1
tp5668
Rp5669
(I3
S'|'
p5670
NNNI8
I1
I0
tp5671
bS'zakladne'
p5672
tp5673
Rp5674
sg69
g12
(g13
(S'S89'
p5675
I0
I1
tp5676
Rp5677
(I3
S'|'
p5678
NNNI89
I1
I0
tp5679
bS'pri telke, pri svieckach s partnerom, v posteli, myslim si ze to je dost blba otaska.....'
p5680
tp5681
Rp5682
sg78
g12
(g13
(S'S4'
p5683
I0
I1
tp5684
Rp5685
(I3
S'|'
p5686
NNNI4
I1
I0
tp5687
bS'null'
p5688
tp5689
Rp5690
sg87
g12
(g13
(S'S1'
p5691
I0
I1
tp5692
Rp5693
(I3
S'|'
p5694
NNNI1
I1
I0
tp5695
bg93
tp5696
Rp5697
ssV658872
p5698
(dp5699
g10
I0
sg11
g12
(g13
(S'S17'
p5700
I0
I1
tp5701
Rp5702
(I3
S'|'
p5703
NNNI17
I1
I0
tp5704
bS'anglicky, nemecky'
p5705
tp5706
Rp5707
sg22
g12
(g13
(S'S1'
p5708
I0
I1
tp5709
Rp5710
(I3
S'|'
p5711
NNNI1
I1
I0
tp5712
bg93
tp5713
Rp5714
sg31
g12
(g13
(S'S43'
p5715
I0
I1
tp5716
Rp5717
(I3
S'|'
p5718
NNNI43
I1
I0
tp5719
bS'bratislavsky kraj, bratislava - karlova ves'
p5720
tp5721
Rp5722
sg40
g12
(g13
(S'S113'
p5723
I0
I1
tp5724
Rp5725
(I3
S'|'
p5726
NNNI113
I1
I0
tp5727
bS'sportovanie, praca s pc, pc hry, pocuvanie hudby, pozeranie filmov, diskoteky, kupalisko, kino, priatelia, spanie'
p5728
tp5729
Rp5730
sg49
I0
sg50
I1
sg51
g12
(g13
(S'S1'
p5731
I0
I1
tp5732
Rp5733
(I3
S'|'
p5734
NNNI1
I1
I0
tp5735
bg28
tp5736
Rp5737
sg60
g12
(g13
(S'S13'
p5738
I0
I1
tp5739
Rp5740
(I3
S'|'
p5741
NNNI13
I1
I0
tp5742
bS'stredoskolske'
p5743
tp5744
Rp5745
sg69
g12
(g13
(S'S4'
p5746
I0
I1
tp5747
Rp5748
(I3
S'|'
p5749
NNNI4
I1
I0
tp5750
bS'null'
p5751
tp5752
Rp5753
sg78
g12
(g13
(S'S4'
p5754
I0
I1
tp5755
Rp5756
(I3
S'|'
p5757
NNNI4
I1
I0
tp5758
bS'null'
p5759
tp5760
Rp5761
sg87
g12
(g13
(S'S1'
p5762
I0
I1
tp5763
Rp5764
(I3
S'|'
p5765
NNNI1
I1
I0
tp5766
bg93
tp5767
Rp5768
ssg12
(g13
(S'S6'
p5769
I0
I1
tp5770
Rp5771
(I3
S'|'
p5772
NNNI6
I1
I0
tp5773
bS'593600'
p5774
tp5775
Rp5776
(dp5777
g10
I0
sg11
g12
(g13
(S'S54'
p5778
I0
I1
tp5779
Rp5780
(I3
S'|'
p5781
NNNI54
I1
I0
tp5782
bS'anglicky, samozrejme cesky, pasivne francuzsky a rusky'
p5783
tp5784
Rp5785
sg22
g12
(g13
(S'S1'
p5786
I0
I1
tp5787
Rp5788
(I3
S'|'
p5789
NNNI1
I1
I0
tp5790
bg28
tp5791
Rp5792
sg31
g12
(g13
(S'S43'
p5793
I0
I1
tp5794
Rp5795
(I3
S'|'
p5796
NNNI43
I1
I0
tp5797
bS'bratislavsky kraj, bratislava - karlova ves'
p5798
tp5799
Rp5800
sg40
g12
(g13
(S'S152'
p5801
I0
I1
tp5802
Rp5803
(I3
S'|'
p5804
NNNI152
I1
I0
tp5805
bS'praca s pc, surfovanie po webe, citanie, pocuvanie hudby, pozeranie filmov, tancovanie, jedlo, kino, party, priatelia, spanie, divadlo, nakupovanie, sex'
p5806
tp5807
Rp5808
sg49
I1
sg50
I1
sg51
g12
(g13
(S'S2'
p5809
I0
I1
tp5810
Rp5811
(I3
S'|'
p5812
NNNI2
I1
I0
tp5813
bS'26'
p5814
tp5815
Rp5816
sg60
g12
(g13
(S'S13'
p5817
I0
I1
tp5818
Rp5819
(I3
S'|'
p5820
NNNI13
I1
I0
tp5821
bS'stredoskolske'
p5822
tp5823
Rp5824
sg69
g12
(g13
(S'S99'
p5825
I0
I1
tp5826
Rp5827
(I3
S'|'
p5828
NNNI99
I1
I0
tp5829
bS'pri telke, pri svieckach s partnerom, v dobrej restauracii, v posteli, alebo doma na rodinnom obede'
p5830
tp5831
Rp5832
sg78
g12
(g13
(S'S4'
p5833
I0
I1
tp5834
Rp5835
(I3
S'|'
p5836
NNNI4
I1
I0
tp5837
bS'null'
p5838
tp5839
Rp5840
sg87
g12
(g13
(S'S1'
p5841
I0
I1
tp5842
Rp5843
(I3
S'|'
p5844
NNNI1
I1
I0
tp5845
bg93
tp5846
Rp5847
ssS'878140'
p5848
(dp5849
g10
I0
sg11
g12
(g13
(S'S4'
p5850
I0
I1
tp5851
Rp5852
(I3
S'|'
p5853
NNNI4
I1
I0
tp5854
bS'null'
p5855
tp5856
Rp5857
sg22
g12
(g13
(S'S1'
p5858
I0
I1
tp5859
Rp5860
(I3
S'|'
p5861
NNNI1
I1
I0
tp5862
bg93
tp5863
Rp5864
sg31
g12
(g13
(S'S43'
p5865
I0
I1
tp5866
Rp5867
(I3
S'|'
p5868
NNNI43
I1
I0
tp5869
bS'bratislavsky kraj, bratislava - karlova ves'
p5870
tp5871
Rp5872
sg40
g12
(g13
(S'S4'
p5873
I0
I1
tp5874
Rp5875
(I3
S'|'
p5876
NNNI4
I1
I0
tp5877
bS'null'
p5878
tp5879
Rp5880
sg49
I0
sg50
I0
sg51
g12
(g13
(S'S2'
p5881
I0
I1
tp5882
Rp5883
(I3
S'|'
p5884
NNNI2
I1
I0
tp5885
bS'22'
p5886
tp5887
Rp5888
sg60
g12
(g13
(S'S4'
p5889
I0
I1
tp5890
Rp5891
(I3
S'|'
p5892
NNNI4
I1
I0
tp5893
bS'null'
p5894
tp5895
Rp5896
sg69
g12
(g13
(S'S4'
p5897
I0
I1
tp5898
Rp5899
(I3
S'|'
p5900
NNNI4
I1
I0
tp5901
bS'null'
p5902
tp5903
Rp5904
sg78
g12
(g13
(S'S4'
p5905
I0
I1
tp5906
Rp5907
(I3
S'|'
p5908
NNNI4
I1
I0
tp5909
bS'null'
p5910
tp5911
Rp5912
sg87
g12
(g13
(S'S1'
p5913
I0
I1
tp5914
Rp5915
(I3
S'|'
p5916
NNNI1
I1
I0
tp5917
bg93
tp5918
Rp5919
ssV626950
p5920
(dp5921
g10
I0
sg11
g12
(g13
(S'S29'
p5922
I0
I1
tp5923
Rp5924
(I3
S'|'
p5925
NNNI29
I1
I0
tp5926
bS'anglicky, nemecky, francuzsky'
p5927
tp5928
Rp5929
sg22
g12
(g13
(S'S1'
p5930
I0
I1
tp5931
Rp5932
(I3
S'|'
p5933
NNNI1
I1
I0
tp5934
bg28
tp5935
Rp5936
sg31
g12
(g13
(S'S43'
p5937
I0
I1
tp5938
Rp5939
(I3
S'|'
p5940
NNNI43
I1
I0
tp5941
bS'bratislavsky kraj, bratislava - karlova ves'
p5942
tp5943
Rp5944
sg40
g12
(g13
(S'S203'
p5945
I0
I1
tp5946
Rp5947
(I3
S'|'
p5948
NNNI203
I1
I0
tp5949
bS'sportovanie, fotografovanie, cestovanie, surfovanie po webe, pocuvanie hudby, pozeranie filmov, malovanie, tancovanie, diskoteky, kupalisko, jedlo, kino, party, priatelia, spanie, nakupovanie, stanovanie'
p5950
tp5951
Rp5952
sg49
I0
sg50
I1
sg51
g12
(g13
(S'S1'
p5953
I0
I1
tp5954
Rp5955
(I3
S'|'
p5956
NNNI1
I1
I0
tp5957
bg28
tp5958
Rp5959
sg60
g12
(g13
(S'S7'
p5960
I0
I1
tp5961
Rp5962
(I3
S'|'
p5963
NNNI7
I1
I0
tp5964
bS'stredne'
p5965
tp5966
Rp5967
sg69
g12
(g13
(S'S47'
p5968
I0
I1
tp5969
Rp5970
(I3
S'|'
p5971
NNNI47
I1
I0
tp5972
bS'pri telke, pri svieckach s partnerom, v posteli'
p5973
tp5974
Rp5975
sg78
g12
(g13
(S'S4'
p5976
I0
I1
tp5977
Rp5978
(I3
S'|'
p5979
NNNI4
I1
I0
tp5980
bS'null'
p5981
tp5982
Rp5983
sg87
g12
(g13
(S'S1'
p5984
I0
I1
tp5985
Rp5986
(I3
S'|'
p5987
NNNI1
I1
I0
tp5988
bg93
tp5989
Rp5990
ssS'293550'
p5991
(dp5992
g10
I0
sg11
g12
(g13
(S'S8'
p5993
I0
I1
tp5994
Rp5995
(I3
S'|'
p5996
NNNI8
I1
I0
tp5997
bS'anglicky'
p5998
tp5999
Rp6000
sg22
g12
(g13
(S'S1'
p6001
I0
I1
tp6002
Rp6003
(I3
S'|'
p6004
NNNI1
I1
I0
tp6005
bg93
tp6006
Rp6007
sg31
g12
(g13
(S'S43'
p6008
I0
I1
tp6009
Rp6010
(I3
S'|'
p6011
NNNI43
I1
I0
tp6012
bS'bratislavsky kraj, bratislava - karlova ves'
p6013
tp6014
Rp6015
sg40
g12
(g13
(S'S10'
p6016
I0
I1
tp6017
Rp6018
(I3
S'|'
p6019
NNNI10
I1
I0
tp6020
bS'stanovanie'
p6021
tp6022
Rp6023
sg49
I0
sg50
I0
sg51
g12
(g13
(S'S2'
p6024
I0
I1
tp6025
Rp6026
(I3
S'|'
p6027
NNNI2
I1
I0
tp6028
bS'24'
p6029
tp6030
Rp6031
sg60
g12
(g13
(S'S4'
p6032
I0
I1
tp6033
Rp6034
(I3
S'|'
p6035
NNNI4
I1
I0
tp6036
bS'null'
p6037
tp6038
Rp6039
sg69
g12
(g13
(S'S4'
p6040
I0
I1
tp6041
Rp6042
(I3
S'|'
p6043
NNNI4
I1
I0
tp6044
bS'null'
p6045
tp6046
Rp6047
sg78
g12
(g13
(S'S4'
p6048
I0
I1
tp6049
Rp6050
(I3
S'|'
p6051
NNNI4
I1
I0
tp6052
bS'null'
p6053
tp6054
Rp6055
sg87
g12
(g13
(S'S1'
p6056
I0
I1
tp6057
Rp6058
(I3
S'|'
p6059
NNNI1
I1
I0
tp6060
bg28
tp6061
Rp6062
ssV645439
p6063
(dp6064
g10
I0
sg11
g12
(g13
(S'S17'
p6065
I0
I1
tp6066
Rp6067
(I3
S'|'
p6068
NNNI17
I1
I0
tp6069
bS'anglicky, nemecky'
p6070
tp6071
Rp6072
sg22
g12
(g13
(S'S1'
p6073
I0
I1
tp6074
Rp6075
(I3
S'|'
p6076
NNNI1
I1
I0
tp6077
bg93
tp6078
Rp6079
sg31
g12
(g13
(S'S43'
p6080
I0
I1
tp6081
Rp6082
(I3
S'|'
p6083
NNNI43
I1
I0
tp6084
bS'bratislavsky kraj, bratislava - karlova ves'
p6085
tp6086
Rp6087
sg40
g12
(g13
(S'S83'
p6088
I0
I1
tp6089
Rp6090
(I3
S'|'
p6091
NNNI83
I1
I0
tp6092
bS'prace okolo domu, pc hry, pozeranie filmov, kupalisko, jedlo, stanovanie, priatelia'
p6093
tp6094
Rp6095
sg49
I0
sg50
I0
sg51
g12
(g13
(S'S2'
p6096
I0
I1
tp6097
Rp6098
(I3
S'|'
p6099
NNNI2
I1
I0
tp6100
bS'20'
p6101
tp6102
Rp6103
sg60
g12
(g13
(S'S13'
p6104
I0
I1
tp6105
Rp6106
(I3
S'|'
p6107
NNNI13
I1
I0
tp6108
bS'stredoskolske'
p6109
tp6110
Rp6111
sg69
g12
(g13
(S'S25'
p6112
I0
I1
tp6113
Rp6114
(I3
S'|'
p6115
NNNI25
I1
I0
tp6116
bS'pri svieckach s partnerom'
p6117
tp6118
Rp6119
sg78
g12
(g13
(S'S4'
p6120
I0
I1
tp6121
Rp6122
(I3
S'|'
p6123
NNNI4
I1
I0
tp6124
bS'null'
p6125
tp6126
Rp6127
sg87
g12
(g13
(S'S1'
p6128
I0
I1
tp6129
Rp6130
(I3
S'|'
p6131
NNNI1
I1
I0
tp6132
bg93
tp6133
Rp6134
sssS'node_dict_factory'
p6135
c__builtin__
dict
p6136
sS'edge_attr_dict_factory'
p6137
g6136
sS'edge'
p6138
(dp6139
g8
(dp6140
g4620
(dp6141
ssg96
(dp6142
g5920
(dp6143
sg168
(dp6144
sg3112
(dp6145
sg3183
(dp6146
ssg2323
(dp6147
V515047
p6148
(dp6149
ssg168
(dp6150
g96
g6144
sg2968
(dp6151
sg4406
(dp6152
sg3183
(dp6153
sg4908
(dp6154
sg3399
(dp6155
sg2251
(dp6156
sg956
(dp6157
sg2395
(dp6158
sg3615
(dp6159
sg2609
(dp6160
sg3831
(dp6161
sg311
(dp6162
sg5698
(dp6163
sg1747
(dp6164
ssg240
(dp6165
g1028
(dp6166
sg5410
(dp6167
ssg383
(dp6168
g2251
(dp6169
sg4477
(dp6170
sg2107
(dp6171
sg3831
(dp6172
ssg454
(dp6173
g2323
g6149
sg4836
(dp6174
sg5776
(dp6175
ssg3831
(dp6176
V657664
p6177
(dp6178
sg383
g6172
sV312388
p6179
g6161
sg6063
(dp6180
sV672734
p6181
(dp6182
ssg670
(dp6183
g2395
(dp6184
sg2609
(dp6185
ssg813
(dp6186
g3255
(dp6187
sg3183
(dp6188
sg3399
(dp6189
sg2251
(dp6190
sg1028
(dp6191
sg3615
(dp6192
sg5698
(dp6193
ssg884
(dp6194
g5195
(dp6195
sg2824
(dp6196
ssg311
(dp6197
S'312388'
p6198
g6162
sg3399
(dp6199
sg4980
(dp6200
ssg1028
(dp6201
g2251
(dp6202
sg5698
(dp6203
sV231413
p6204
g6166
sg813
g6191
ssg1100
(dp6205
g3040
(dp6206
sg5776
(dp6207
ssg5052
(dp6208
g5920
(dp6209
sg4119
(dp6210
sg1819
(dp6211
sg5123
(dp6212
ssg1315
(dp6213
g1459
(dp6214
sg741
(dp6215
ssg1387
(dp6216
g2538
(dp6217
ssg1459
(dp6218
g1315
g6214
sg5698
(dp6219
sg4908
(dp6220
sg4620
(dp6221
sS'874635'
p6222
(dp6223
ssg3255
(dp6224
S'658895'
p6225
g6187
ssg1531
(dp6226
g2752
(dp6227
sg5848
(dp6228
sg5410
(dp6229
sg598
(dp6230
ssg956
(dp6231
g3615
(dp6232
sV312388
p6233
g6157
sg3183
(dp6234
sg4980
(dp6235
sg3399
(dp6236
sg2251
(dp6237
sg5339
(dp6238
ssg1603
(dp6239
g5267
(dp6240
sg4836
(dp6241
sg4908
(dp6242
ssg1675
(dp6243
g2968
(dp6244
ssg4047
(dp6245
g4692
(dp6246
sg5410
(dp6247
ssg1819
(dp6248
g5267
(dp6249
sg5920
(dp6250
sg5052
g6211
sg5123
(dp6251
ssg1891
(dp6252
g5776
(dp6253
ssg5267
(dp6254
g1603
g6240
sg1819
g6249
sg3471
(dp6255
sg5410
(dp6256
ssg3112
(dp6257
g96
g6145
ssg2035
(dp6258
g4692
(dp6259
sg4836
(dp6260
ssg2107
(dp6261
g2251
(dp6262
sg383
g6171
sg3975
(dp6263
ssg1172
(dp6264
g4262
(dp6265
sg4980
(dp6266
ssg2251
(dp6267
g383
g6169
sV312388
p6268
g6156
sg3183
(dp6269
sg4764
(dp6270
sg4908
(dp6271
sg3399
(dp6272
sV539527
p6273
g6262
sV658895
p6274
g6190
sg3615
(dp6275
sg1028
g6202
sg2395
(dp6276
sg2609
(dp6277
sg3831
g6178
sS'748263'
p6278
g6237
sV672734
p6279
(dp6280
sg6063
(dp6281
ssg1963
(dp6282
g4620
(dp6283
sg2896
(dp6284
ssg2395
(dp6285
S'657664'
p6286
g6276
sg6198
g6158
sV609274
p6287
g6184
sg2609
(dp6288
ssg2538
(dp6289
g1387
g6217
sg4980
(dp6290
sg2824
(dp6291
ssg2609
(dp6292
g3615
(dp6293
sV312388
p6294
g6160
sg670
g6185
sV657664
p6295
g6277
sV672705
p6296
g6288
sV672734
p6297
(dp6298
ssg2680
(dp6299
g4836
(dp6300
ssg2824
(dp6301
V859567
p6302
g6196
sg5339
(dp6303
sg3687
(dp6304
sV796962
p6305
g6291
ssg2896
(dp6306
S'593633'
p6307
g6284
sg5776
(dp6308
sV159565
p6309
(dp6310
sg3975
(dp6311
ssg4262
(dp6312
g1172
g6265
ssg3040
(dp6313
g1100
g6206
ssg2467
(dp6314
g5195
(dp6315
sg2179
(dp6316
sg4620
(dp6317
ssg3183
(dp6318
V238245
p6319
g6146
sg3615
(dp6320
sV312388
p6321
g6153
sg4908
(dp6322
sg3399
(dp6323
sV658895
p6324
g6188
sV657664
p6325
g6269
sg4406
(dp6326
sV748263
p6327
g6234
ssg2179
(dp6328
g3327
(dp6329
sg2467
g6316
sg6063
(dp6330
ssg3327
(dp6331
V1229418
p6332
g6329
sg6063
(dp6333
ssg5776
(dp6334
g454
g6175
sg1100
g6207
sV507833
p6335
g6253
sV49030
p6336
g6308
ssg3399
(dp6337
g3615
(dp6338
sg6198
g6155
sg3183
g6323
sg4980
(dp6339
sg6225
g6189
sg6286
g6272
sS'109086'
p6340
g6199
sg6278
g6236
sg5698
(dp6341
ssg3471
(dp6342
g5267
g6255
sg6222
(dp6343
ssg1244
(dp6344
g5991
(dp6345
sg1459
g6223
sg4620
(dp6346
sg3471
g6343
ssg3615
(dp6347
g2968
(dp6348
sg6198
g6159
sg3183
g6320
sg5920
(dp6349
sS'351157'
p6350
g6338
sg6225
g6192
sg6286
g6275
sg2609
g6293
sg6278
g6232
ssg3687
(dp6351
g4119
(dp6352
sV136710
p6353
g6304
sg3759
(dp6354
sV188442
p6355
(dp6356
ssg3759
(dp6357
g5482
(dp6358
sV147611
p6359
g6354
ssg598
(dp6360
g526
(dp6361
sg1531
g6230
ssg526
(dp6362
g598
g6361
ssg3975
(dp6363
g5554
(dp6364
sV539527
p6365
g6263
sV49030
p6366
g6311
ssg3543
(dp6367
g5920
(dp6368
sg5339
(dp6369
sg3687
g6356
sg5123
(dp6370
sg5482
(dp6371
ssg4119
(dp6372
g5339
(dp6373
sg3687
g6352
sg5052
g6210
ssg4549
(dp6374
g4836
(dp6375
sg4190
(dp6376
ssg2968
(dp6377
g1675
g6244
sV312388
p6378
g6151
sg4764
(dp6379
sg5920
(dp6380
sg5123
(dp6381
sg3615
g6348
sg4406
(dp6382
ssg4334
(dp6383
V679571
p6384
(dp6385
sg5991
(dp6386
ssg4406
(dp6387
V168292
p6388
g6382
sg5920
(dp6389
sV312388
p6390
g6152
sg5339
(dp6391
sg3183
g6326
ssg4477
(dp6392
g383
g6170
ssg4190
(dp6393
g4692
(dp6394
sg4836
(dp6395
sg4549
g6376
ssg4620
(dp6396
V289771
p6397
g6141
sg2467
g6317
sg4836
(dp6398
sg1244
g6346
sV593633
p6399
g6283
sg5626
(dp6400
sV717401
p6401
g6221
sg5991
(dp6402
ssg4692
(dp6403
g4836
(dp6404
sg4047
g6246
sg4190
g6394
sS'874194'
p6405
g6259
ssg4764
(dp6406
V657664
p6407
g6270
sg2968
g6379
sV159565
p6408
(dp6409
ssg5848
(dp6410
V551813
p6411
g6228
ssg4836
(dp6412
V218772
p6413
g6241
sV103647
p6414
g6395
sV727132
p6415
g6398
sg2035
g6260
sV515047
p6416
g6174
sV366055
p6417
g6404
sg2680
g6300
sV679571
p6418
(dp6419
sV4409
p6420
g6375
ssg4908
(dp6421
V657664
p6422
g6271
sg1603
g6242
sV717401
p6423
g6220
sg168
g6154
sg3183
g6322
ssg4980
(dp6424
V351157
p6425
g6339
sg1172
g6266
sV109086
p6426
g6200
sg2538
g6290
sg6278
g6235
sg5698
(dp6427
ssg741
(dp6428
g1315
g6215
sg4764
g6409
sg2896
g6310
ssg5123
(dp6429
g2968
g6381
sg1819
g6251
sg5920
(dp6430
sg5052
g6212
sV188442
p6431
g6370
ssg5195
(dp6432
g884
g6195
sg2467
g6315
ssg2752
(dp6433
g4334
g6385
sg4836
g6419
sg5991
(dp6434
sg1531
g6227
ssg5339
(dp6435
g6278
g6238
sV136710
p6436
g6303
sg4406
g6391
sV466217
p6437
g6373
sV188442
p6438
g6369
ssg5410
(dp6439
g5626
(dp6440
sg5267
g6256
sg4047
g6247
sV231413
p6441
g6167
sg1531
g6229
ssg5482
(dp6442
g3903
(dp6443
sg5920
(dp6444
sg3759
g6358
sV188442
p6445
g6371
ssg5554
(dp6446
V313811
p6447
g6364
ssg5626
(dp6448
S'281802'
p6449
g6440
sg4620
g6400
ssg5698
(dp6450
g6198
g6163
sV428083
p6451
g6427
sg3399
g6341
sV658895
p6452
g6193
sg1028
g6203
sV717401
p6453
g6219
ssg1747
(dp6454
g2251
g6280
sg6198
g6164
sg2609
g6298
sg3831
g6182
ssg3903
(dp6455
g5482
g6443
ssg5920
(dp6456
g96
g6143
sg2968
g6380
sg4406
g6389
sg1819
g6250
sV761025
p6457
g6209
sS'80151'
p6458
g6430
sV188442
p6459
g6368
sV351870
p6460
g6349
sg5482
g6444
ssg5991
(dp6461
V595626
p6462
g6386
sV679571
p6463
g6434
sg4620
g6402
sV874635
p6464
g6345
ssg6063
(dp6465
V657664
p6466
g6281
sg3327
g6333
sV1229418
p6467
g6330
sg3831
g6180
sssS'graph'
p6468
(dp6469
sS'adjlist_dict_factory'
p6470
g6136
sS'adj'
p6471
g6139
sb.