ccopy_reg
_reconstructor
p0
(cnetworkx.classes.graph
Graph
p1
c__builtin__
object
p2
Ntp3
Rp4
(dp5
S'node'
p6
(dp7
V518623
p8
(dp9
S'is_target'
p10
I0
sS'language'
p11
cnumpy.core.multiarray
scalar
p12
(cnumpy
dtype
p13
(S'S27'
p14
I0
I1
tp15
Rp16
(I3
S'|'
p17
NNNI27
I1
I0
tp18
bS'anglicky, trochu aj nemecky'
p19
tp20
Rp21
sS'gender'
p22
g12
(g13
(S'S1'
p23
I0
I1
tp24
Rp25
(I3
S'|'
p26
NNNI1
I1
I0
tp27
bS'1'
p28
tp29
Rp30
sS'region'
p31
g12
(g13
(S'S43'
p32
I0
I1
tp33
Rp34
(I3
S'|'
p35
NNNI43
I1
I0
tp36
bS'bratislavsky kraj, bratislava - karlova ves'
p37
tp38
Rp39
sS'hobbies'
p40
g12
(g13
(S'S87'
p41
I0
I1
tp42
Rp43
(I3
S'|'
p44
NNNI87
I1
I0
tp45
bS'citanie, pocuvanie hudby, pozeranie filmov, diskoteky, priatelia, spanie, kedy co pride'
p46
tp47
Rp48
sS'is_start'
p49
I0
sS'public_rand'
p50
I1
sS'age'
p51
g12
(g13
(S'S2'
p52
I0
I1
tp53
Rp54
(I3
S'|'
p55
NNNI2
I1
I0
tp56
bS'24'
p57
tp58
Rp59
sS'comp_edu'
p60
g12
(g13
(S'S39'
p61
I0
I1
tp62
Rp63
(I3
S'|'
p64
NNNI39
I1
I0
tp65
bS'stredoskolske, uspesne som zmaturoval:d'
p66
tp67
Rp68
sS'pets'
p69
g12
(g13
(S'S22'
p70
I0
I1
tp71
Rp72
(I3
S'|'
p73
NNNI22
I1
I0
tp74
bS'za stolom v kuchyni :d'
p75
tp76
Rp77
sS'edu'
p78
g12
(g13
(S'S4'
p79
I0
I1
tp80
Rp81
(I3
S'|'
p82
NNNI4
I1
I0
tp83
bS'null'
p84
tp85
Rp86
sS'public'
p87
g12
(g13
(S'S1'
p88
I0
I1
tp89
Rp90
(I3
S'|'
p91
NNNI1
I1
I0
tp92
bg28
tp93
Rp94
ssS'554012'
p95
(dp96
g10
I0
sg11
g12
(g13
(S'S6'
p97
I0
I1
tp98
Rp99
(I3
S'|'
p100
NNNI6
I1
I0
tp101
bS'romsky'
p102
tp103
Rp104
sg22
g12
(g13
(S'S1'
p105
I0
I1
tp106
Rp107
(I3
S'|'
p108
NNNI1
I1
I0
tp109
bg28
tp110
Rp111
sg31
g12
(g13
(S'S43'
p112
I0
I1
tp113
Rp114
(I3
S'|'
p115
NNNI43
I1
I0
tp116
bS'bratislavsky kraj, bratislava - karlova ves'
p117
tp118
Rp119
sg40
g12
(g13
(S'S79'
p120
I0
I1
tp121
Rp122
(I3
S'|'
p123
NNNI79
I1
I0
tp124
bS'sportovanie, pc hry, pocuvanie hudby, pozeranie filmov, kino, priatelia, spanie'
p125
tp126
Rp127
sg49
I0
sg50
I0
sg51
g12
(g13
(S'S2'
p128
I0
I1
tp129
Rp130
(I3
S'|'
p131
NNNI2
I1
I0
tp132
bS'23'
p133
tp134
Rp135
sg60
g12
(g13
(S'S22'
p136
I0
I1
tp137
Rp138
(I3
S'|'
p139
NNNI22
I1
I0
tp140
bS'zakladne, -nedokoncene'
p141
tp142
Rp143
sg69
g12
(g13
(S'S31'
p144
I0
I1
tp145
Rp146
(I3
S'|'
p147
NNNI31
I1
I0
tp148
bS'pri telke, v dobrej restauracii'
p149
tp150
Rp151
sg78
g12
(g13
(S'S4'
p152
I0
I1
tp153
Rp154
(I3
S'|'
p155
NNNI4
I1
I0
tp156
bS'null'
p157
tp158
Rp159
sg87
g12
(g13
(S'S1'
p160
I0
I1
tp161
Rp162
(I3
S'|'
p163
NNNI1
I1
I0
tp164
bg28
tp165
Rp166
ssS'115202'
p167
(dp168
g10
I0
sg11
g12
(g13
(S'S63'
p169
I0
I1
tp170
Rp171
(I3
S'|'
p172
NNNI63
I1
I0
tp173
bS'a tiez usta a nebojim sa ich pouzit, s teroristami nevyjednavam'
p174
tp175
Rp176
sg22
g12
(g13
(S'S1'
p177
I0
I1
tp178
Rp179
(I3
S'|'
p180
NNNI1
I1
I0
tp181
bg28
tp182
Rp183
sg31
g12
(g13
(S'S43'
p184
I0
I1
tp185
Rp186
(I3
S'|'
p187
NNNI43
I1
I0
tp188
bS'bratislavsky kraj, bratislava - karlova ves'
p189
tp190
Rp191
sg40
g12
(g13
(S'S26'
p192
I0
I1
tp193
Rp194
(I3
S'|'
p195
NNNI26
I1
I0
tp196
bS'obmienam, priatelov nie...'
p197
tp198
Rp199
sg49
I0
sg50
I0
sg51
g12
(g13
(S'S2'
p200
I0
I1
tp201
Rp202
(I3
S'|'
p203
NNNI2
I1
I0
tp204
bS'24'
p205
tp206
Rp207
sg60
g12
(g13
(S'S62'
p208
I0
I1
tp209
Rp210
(I3
S'|'
p211
NNNI62
I1
I0
tp212
bS'nikdy som nedopustil, aby skola stala v ceste mojmu vzdelaniu!'
p213
tp214
Rp215
sg69
g12
(g13
(S'S47'
p216
I0
I1
tp217
Rp218
(I3
S'|'
p219
NNNI47
I1
I0
tp220
bS'na ranajky, na obed, na veceru a ked som hladny'
p221
tp222
Rp223
sg78
g12
(g13
(S'S4'
p224
I0
I1
tp225
Rp226
(I3
S'|'
p227
NNNI4
I1
I0
tp228
bS'null'
p229
tp230
Rp231
sg87
g12
(g13
(S'S1'
p232
I0
I1
tp233
Rp234
(I3
S'|'
p235
NNNI1
I1
I0
tp236
bg28
tp237
Rp238
ssg12
(g13
(S'S6'
p239
I0
I1
tp240
Rp241
(I3
S'|'
p242
NNNI6
I1
I0
tp243
bS'406909'
p244
tp245
Rp246
(dp247
g10
I0
sg11
g12
(g13
(S'S4'
p248
I0
I1
tp249
Rp250
(I3
S'|'
p251
NNNI4
I1
I0
tp252
bS'null'
p253
tp254
Rp255
sg22
g12
(g13
(S'S1'
p256
I0
I1
tp257
Rp258
(I3
S'|'
p259
NNNI1
I1
I0
tp260
bS'0'
p261
tp262
Rp263
sg31
g12
(g13
(S'S43'
p264
I0
I1
tp265
Rp266
(I3
S'|'
p267
NNNI43
I1
I0
tp268
bS'bratislavsky kraj, bratislava - karlova ves'
p269
tp270
Rp271
sg40
g12
(g13
(S'S4'
p272
I0
I1
tp273
Rp274
(I3
S'|'
p275
NNNI4
I1
I0
tp276
bS'null'
p277
tp278
Rp279
sg49
I1
sg50
I1
sg51
g12
(g13
(S'S1'
p280
I0
I1
tp281
Rp282
(I3
S'|'
p283
NNNI1
I1
I0
tp284
bg261
tp285
Rp286
sg60
g12
(g13
(S'S4'
p287
I0
I1
tp288
Rp289
(I3
S'|'
p290
NNNI4
I1
I0
tp291
bS'null'
p292
tp293
Rp294
sg69
g12
(g13
(S'S4'
p295
I0
I1
tp296
Rp297
(I3
S'|'
p298
NNNI4
I1
I0
tp299
bS'null'
p300
tp301
Rp302
sg78
g12
(g13
(S'S4'
p303
I0
I1
tp304
Rp305
(I3
S'|'
p306
NNNI4
I1
I0
tp307
bS'null'
p308
tp309
Rp310
sg87
g12
(g13
(S'S1'
p311
I0
I1
tp312
Rp313
(I3
S'|'
p314
NNNI1
I1
I0
tp315
bg28
tp316
Rp317
ssS'594090'
p318
(dp319
g10
I0
sg11
g12
(g13
(S'S52'
p320
I0
I1
tp321
Rp322
(I3
S'|'
p323
NNNI52
I1
I0
tp324
bS'anglicky, nemecky, latinsky a ten svoj - aspon dufam'
p325
tp326
Rp327
sg22
g12
(g13
(S'S1'
p328
I0
I1
tp329
Rp330
(I3
S'|'
p331
NNNI1
I1
I0
tp332
bg261
tp333
Rp334
sg31
g12
(g13
(S'S43'
p335
I0
I1
tp336
Rp337
(I3
S'|'
p338
NNNI43
I1
I0
tp339
bS'bratislavsky kraj, bratislava - karlova ves'
p340
tp341
Rp342
sg40
g12
(g13
(S'S230'
p343
I0
I1
tp344
Rp345
(I3
S'|'
p346
NNNI230
I1
I0
tp347
bS'prace v zahrade, surfovanie po webe, citanie, pocuvanie hudby, pozeranie filmov, tancovanie, diskoteky, kupalisko, varenie, priatelia, spanie, nakupovanie, a v poslednej dobe aj rybarcenie, sak co mi ine ostava pri mojej polovicke'
p348
tp349
Rp350
sg49
I0
sg50
I0
sg51
g12
(g13
(S'S2'
p351
I0
I1
tp352
Rp353
(I3
S'|'
p354
NNNI2
I1
I0
tp355
bS'24'
p356
tp357
Rp358
sg60
g12
(g13
(S'S13'
p359
I0
I1
tp360
Rp361
(I3
S'|'
p362
NNNI13
I1
I0
tp363
bS'stredoskolske'
p364
tp365
Rp366
sg69
g12
(g13
(S'S26'
p367
I0
I1
tp368
Rp369
(I3
S'|'
p370
NNNI26
I1
I0
tp371
bS'z taniera a ked som hladna'
p372
tp373
Rp374
sg78
g12
(g13
(S'S4'
p375
I0
I1
tp376
Rp377
(I3
S'|'
p378
NNNI4
I1
I0
tp379
bS'null'
p380
tp381
Rp382
sg87
g12
(g13
(S'S1'
p383
I0
I1
tp384
Rp385
(I3
S'|'
p386
NNNI1
I1
I0
tp387
bg28
tp388
Rp389
ssS'299072'
p390
(dp391
g10
I0
sg11
g12
(g13
(S'S4'
p392
I0
I1
tp393
Rp394
(I3
S'|'
p395
NNNI4
I1
I0
tp396
bS'null'
p397
tp398
Rp399
sg22
g12
(g13
(S'S1'
p400
I0
I1
tp401
Rp402
(I3
S'|'
p403
NNNI1
I1
I0
tp404
bg261
tp405
Rp406
sg31
g12
(g13
(S'S43'
p407
I0
I1
tp408
Rp409
(I3
S'|'
p410
NNNI43
I1
I0
tp411
bS'bratislavsky kraj, bratislava - karlova ves'
p412
tp413
Rp414
sg40
g12
(g13
(S'S172'
p415
I0
I1
tp416
Rp417
(I3
S'|'
p418
NNNI172
I1
I0
tp419
bS'turistika, praca s pc, citanie, pocuvanie hudby, pozeranie filmov, malovanie, tancovanie, diskoteky, varenie, party, priatelia, spanie, atd tomu sa hovori hyperaktivita :0)'
p420
tp421
Rp422
sg49
I0
sg50
I1
sg51
g12
(g13
(S'S2'
p423
I0
I1
tp424
Rp425
(I3
S'|'
p426
NNNI2
I1
I0
tp427
bS'26'
p428
tp429
Rp430
sg60
g12
(g13
(S'S10'
p431
I0
I1
tp432
Rp433
(I3
S'|'
p434
NNNI10
I1
I0
tp435
bS'bakalarske'
p436
tp437
Rp438
sg69
g12
(g13
(S'S90'
p439
I0
I1
tp440
Rp441
(I3
S'|'
p442
NNNI90
I1
I0
tp443
bS's dobrou naladickou v milej spolocnosti a to je uz jedno, ci v restauracii alebo v prirode'
p444
tp445
Rp446
sg78
g12
(g13
(S'S4'
p447
I0
I1
tp448
Rp449
(I3
S'|'
p450
NNNI4
I1
I0
tp451
bS'null'
p452
tp453
Rp454
sg87
g12
(g13
(S'S1'
p455
I0
I1
tp456
Rp457
(I3
S'|'
p458
NNNI1
I1
I0
tp459
bg261
tp460
Rp461
ssS'661340'
p462
(dp463
g10
I1
sg11
g12
(g13
(S'S4'
p464
I0
I1
tp465
Rp466
(I3
S'|'
p467
NNNI4
I1
I0
tp468
bS'null'
p469
tp470
Rp471
sg22
g12
(g13
(S'S1'
p472
I0
I1
tp473
Rp474
(I3
S'|'
p475
NNNI1
I1
I0
tp476
bg28
tp477
Rp478
sg31
g12
(g13
(S'S43'
p479
I0
I1
tp480
Rp481
(I3
S'|'
p482
NNNI43
I1
I0
tp483
bS'bratislavsky kraj, bratislava - karlova ves'
p484
tp485
Rp486
sg40
g12
(g13
(S'S4'
p487
I0
I1
tp488
Rp489
(I3
S'|'
p490
NNNI4
I1
I0
tp491
bS'null'
p492
tp493
Rp494
sg49
I0
sg50
I0
sg51
g12
(g13
(S'S2'
p495
I0
I1
tp496
Rp497
(I3
S'|'
p498
NNNI2
I1
I0
tp499
bS'24'
p500
tp501
Rp502
sg60
g12
(g13
(S'S4'
p503
I0
I1
tp504
Rp505
(I3
S'|'
p506
NNNI4
I1
I0
tp507
bS'null'
p508
tp509
Rp510
sg69
g12
(g13
(S'S4'
p511
I0
I1
tp512
Rp513
(I3
S'|'
p514
NNNI4
I1
I0
tp515
bS'null'
p516
tp517
Rp518
sg78
g12
(g13
(S'S4'
p519
I0
I1
tp520
Rp521
(I3
S'|'
p522
NNNI4
I1
I0
tp523
bS'null'
p524
tp525
Rp526
sg87
g12
(g13
(S'S1'
p527
I0
I1
tp528
Rp529
(I3
S'|'
p530
NNNI1
I1
I0
tp531
bg261
tp532
Rp533
ssS'340674'
p534
(dp535
g10
I0
sg11
g12
(g13
(S'S50'
p536
I0
I1
tp537
Rp538
(I3
S'|'
p539
NNNI50
I1
I0
tp540
bS'zeby som ovladal tak to neviem ale ucim sa aj a nj'
p541
tp542
Rp543
sg22
g12
(g13
(S'S1'
p544
I0
I1
tp545
Rp546
(I3
S'|'
p547
NNNI1
I1
I0
tp548
bg28
tp549
Rp550
sg31
g12
(g13
(S'S43'
p551
I0
I1
tp552
Rp553
(I3
S'|'
p554
NNNI43
I1
I0
tp555
bS'bratislavsky kraj, bratislava - karlova ves'
p556
tp557
Rp558
sg40
g12
(g13
(S'S184'
p559
I0
I1
tp560
Rp561
(I3
S'|'
p562
NNNI184
I1
I0
tp563
bS'sportovanie, cestovanie, praca s pc, pc hry, surfovanie po webe, pocuvanie hudby, pozeranie filmov, tancovanie, diskoteky, kupalisko, party, priatelia, spanie, sex, no toho jeeste vela'
p564
tp565
Rp566
sg49
I0
sg50
I0
sg51
g12
(g13
(S'S2'
p567
I0
I1
tp568
Rp569
(I3
S'|'
p570
NNNI2
I1
I0
tp571
bS'24'
p572
tp573
Rp574
sg60
g12
(g13
(S'S13'
p575
I0
I1
tp576
Rp577
(I3
S'|'
p578
NNNI13
I1
I0
tp579
bS'este studujem'
p580
tp581
Rp582
sg69
g12
(g13
(S'S4'
p583
I0
I1
tp584
Rp585
(I3
S'|'
p586
NNNI4
I1
I0
tp587
bS'null'
p588
tp589
Rp590
sg78
g12
(g13
(S'S4'
p591
I0
I1
tp592
Rp593
(I3
S'|'
p594
NNNI4
I1
I0
tp595
bS'null'
p596
tp597
Rp598
sg87
g12
(g13
(S'S1'
p599
I0
I1
tp600
Rp601
(I3
S'|'
p602
NNNI1
I1
I0
tp603
bg28
tp604
Rp605
ssV272861
p606
(dp607
g10
I0
sg11
g12
(g13
(S'S17'
p608
I0
I1
tp609
Rp610
(I3
S'|'
p611
NNNI17
I1
I0
tp612
bS'anglicky, nemecky'
p613
tp614
Rp615
sg22
g12
(g13
(S'S1'
p616
I0
I1
tp617
Rp618
(I3
S'|'
p619
NNNI1
I1
I0
tp620
bg261
tp621
Rp622
sg31
g12
(g13
(S'S43'
p623
I0
I1
tp624
Rp625
(I3
S'|'
p626
NNNI43
I1
I0
tp627
bS'bratislavsky kraj, bratislava - karlova ves'
p628
tp629
Rp630
sg40
g12
(g13
(S'S117'
p631
I0
I1
tp632
Rp633
(I3
S'|'
p634
NNNI117
I1
I0
tp635
bS'cestovanie, pozeranie filmov, kupalisko, kino, priatelia, nakupovanie, ale ja robim rada vsetko,len sa mi musi chciet'
p636
tp637
Rp638
sg49
I0
sg50
I0
sg51
g12
(g13
(S'S2'
p639
I0
I1
tp640
Rp641
(I3
S'|'
p642
NNNI2
I1
I0
tp643
bS'24'
p644
tp645
Rp646
sg60
g12
(g13
(S'S10'
p647
I0
I1
tp648
Rp649
(I3
S'|'
p650
NNNI10
I1
I0
tp651
bS'bakalarske'
p652
tp653
Rp654
sg69
g12
(g13
(S'S58'
p655
I0
I1
tp656
Rp657
(I3
S'|'
p658
NNNI58
I1
I0
tp659
bS'pri telke, v dobrej restauracii, pri svieckach s partnerom'
p660
tp661
Rp662
sg78
g12
(g13
(S'S4'
p663
I0
I1
tp664
Rp665
(I3
S'|'
p666
NNNI4
I1
I0
tp667
bS'null'
p668
tp669
Rp670
sg87
g12
(g13
(S'S1'
p671
I0
I1
tp672
Rp673
(I3
S'|'
p674
NNNI1
I1
I0
tp675
bg28
tp676
Rp677
ssV164956
p678
(dp679
g10
I0
sg11
g12
(g13
(S'S4'
p680
I0
I1
tp681
Rp682
(I3
S'|'
p683
NNNI4
I1
I0
tp684
bS'null'
p685
tp686
Rp687
sg22
g12
(g13
(S'S1'
p688
I0
I1
tp689
Rp690
(I3
S'|'
p691
NNNI1
I1
I0
tp692
bg261
tp693
Rp694
sg31
g12
(g13
(S'S43'
p695
I0
I1
tp696
Rp697
(I3
S'|'
p698
NNNI43
I1
I0
tp699
bS'bratislavsky kraj, bratislava - karlova ves'
p700
tp701
Rp702
sg40
g12
(g13
(S'S4'
p703
I0
I1
tp704
Rp705
(I3
S'|'
p706
NNNI4
I1
I0
tp707
bS'null'
p708
tp709
Rp710
sg49
I0
sg50
I1
sg51
g12
(g13
(S'S1'
p711
I0
I1
tp712
Rp713
(I3
S'|'
p714
NNNI1
I1
I0
tp715
bg261
tp716
Rp717
sg60
g12
(g13
(S'S4'
p718
I0
I1
tp719
Rp720
(I3
S'|'
p721
NNNI4
I1
I0
tp722
bS'null'
p723
tp724
Rp725
sg69
g12
(g13
(S'S4'
p726
I0
I1
tp727
Rp728
(I3
S'|'
p729
NNNI4
I1
I0
tp730
bS'null'
p731
tp732
Rp733
sg78
g12
(g13
(S'S4'
p734
I0
I1
tp735
Rp736
(I3
S'|'
p737
NNNI4
I1
I0
tp738
bS'null'
p739
tp740
Rp741
sg87
g12
(g13
(S'S1'
p742
I0
I1
tp743
Rp744
(I3
S'|'
p745
NNNI1
I1
I0
tp746
bg28
tp747
Rp748
ssV872520
p749
(dp750
g10
I0
sg11
g12
(g13
(S'S4'
p751
I0
I1
tp752
Rp753
(I3
S'|'
p754
NNNI4
I1
I0
tp755
bS'null'
p756
tp757
Rp758
sg22
g12
(g13
(S'S1'
p759
I0
I1
tp760
Rp761
(I3
S'|'
p762
NNNI1
I1
I0
tp763
bg261
tp764
Rp765
sg31
g12
(g13
(S'S43'
p766
I0
I1
tp767
Rp768
(I3
S'|'
p769
NNNI43
I1
I0
tp770
bS'bratislavsky kraj, bratislava - karlova ves'
p771
tp772
Rp773
sg40
g12
(g13
(S'S4'
p774
I0
I1
tp775
Rp776
(I3
S'|'
p777
NNNI4
I1
I0
tp778
bS'null'
p779
tp780
Rp781
sg49
I0
sg50
I0
sg51
g12
(g13
(S'S2'
p782
I0
I1
tp783
Rp784
(I3
S'|'
p785
NNNI2
I1
I0
tp786
bS'25'
p787
tp788
Rp789
sg60
g12
(g13
(S'S4'
p790
I0
I1
tp791
Rp792
(I3
S'|'
p793
NNNI4
I1
I0
tp794
bS'null'
p795
tp796
Rp797
sg69
g12
(g13
(S'S4'
p798
I0
I1
tp799
Rp800
(I3
S'|'
p801
NNNI4
I1
I0
tp802
bS'null'
p803
tp804
Rp805
sg78
g12
(g13
(S'S4'
p806
I0
I1
tp807
Rp808
(I3
S'|'
p809
NNNI4
I1
I0
tp810
bS'null'
p811
tp812
Rp813
sg87
g12
(g13
(S'S1'
p814
I0
I1
tp815
Rp816
(I3
S'|'
p817
NNNI1
I1
I0
tp818
bg28
tp819
Rp820
ssV72823
p821
(dp822
g10
I0
sg11
g12
(g13
(S'S67'
p823
I0
I1
tp824
Rp825
(I3
S'|'
p826
NNNI67
I1
I0
tp827
bS'anglicky, nemecky, ale nad slovom ovladam by som trochu pouvazovala'
p828
tp829
Rp830
sg22
g12
(g13
(S'S1'
p831
I0
I1
tp832
Rp833
(I3
S'|'
p834
NNNI1
I1
I0
tp835
bg261
tp836
Rp837
sg31
g12
(g13
(S'S43'
p838
I0
I1
tp839
Rp840
(I3
S'|'
p841
NNNI43
I1
I0
tp842
bS'bratislavsky kraj, bratislava - karlova ves'
p843
tp844
Rp845
sg40
g12
(g13
(S'S113'
p846
I0
I1
tp847
Rp848
(I3
S'|'
p849
NNNI113
I1
I0
tp850
bS'cestovanie, turistika, citanie, pocuvanie hudby, pozeranie filmov, kino, priatelia, spanie,  moj havo, tancovanie'
p851
tp852
Rp853
sg49
I0
sg50
I1
sg51
g12
(g13
(S'S2'
p854
I0
I1
tp855
Rp856
(I3
S'|'
p857
NNNI2
I1
I0
tp858
bS'24'
p859
tp860
Rp861
sg60
g12
(g13
(S'S26'
p862
I0
I1
tp863
Rp864
(I3
S'|'
p865
NNNI26
I1
I0
tp866
bS'bc. hotove a makam na mgr.'
p867
tp868
Rp869
sg69
g12
(g13
(S'S4'
p870
I0
I1
tp871
Rp872
(I3
S'|'
p873
NNNI4
I1
I0
tp874
bS'null'
p875
tp876
Rp877
sg78
g12
(g13
(S'S4'
p878
I0
I1
tp879
Rp880
(I3
S'|'
p881
NNNI4
I1
I0
tp882
bS'null'
p883
tp884
Rp885
sg87
g12
(g13
(S'S1'
p886
I0
I1
tp887
Rp888
(I3
S'|'
p889
NNNI1
I1
I0
tp890
bg28
tp891
Rp892
ssS'748135'
p893
(dp894
g10
I0
sg11
g12
(g13
(S'S17'
p895
I0
I1
tp896
Rp897
(I3
S'|'
p898
NNNI17
I1
I0
tp899
bS'anglicky, nemecky'
p900
tp901
Rp902
sg22
g12
(g13
(S'S1'
p903
I0
I1
tp904
Rp905
(I3
S'|'
p906
NNNI1
I1
I0
tp907
bg28
tp908
Rp909
sg31
g12
(g13
(S'S43'
p910
I0
I1
tp911
Rp912
(I3
S'|'
p913
NNNI43
I1
I0
tp914
bS'bratislavsky kraj, bratislava - karlova ves'
p915
tp916
Rp917
sg40
g12
(g13
(S'S281'
p918
I0
I1
tp919
Rp920
(I3
S'|'
p921
NNNI281
I1
I0
tp922
bS'sportovanie, cestovanie, turistika, praca s pc, pc hry, surfovanie po webe, citanie, pocuvanie hudby, pozeranie filmov, tancovanie, diskoteky, kupalisko, jedlo, kino, party, priatelia, spanie, divadlo, stanovanie, sex, chodenie do muzei, nakupovanie, prace okolo domu, domace prace'
p923
tp924
Rp925
sg49
I0
sg50
I0
sg51
g12
(g13
(S'S2'
p926
I0
I1
tp927
Rp928
(I3
S'|'
p929
NNNI2
I1
I0
tp930
bS'24'
p931
tp932
Rp933
sg60
g12
(g13
(S'S10'
p934
I0
I1
tp935
Rp936
(I3
S'|'
p937
NNNI10
I1
I0
tp938
bS'bakalarske'
p939
tp940
Rp941
sg69
g12
(g13
(S'S58'
p942
I0
I1
tp943
Rp944
(I3
S'|'
p945
NNNI58
I1
I0
tp946
bS'pri telke, pri svieckach s partnerom, v dobrej restauracii'
p947
tp948
Rp949
sg78
g12
(g13
(S'S4'
p950
I0
I1
tp951
Rp952
(I3
S'|'
p953
NNNI4
I1
I0
tp954
bS'null'
p955
tp956
Rp957
sg87
g12
(g13
(S'S1'
p958
I0
I1
tp959
Rp960
(I3
S'|'
p961
NNNI1
I1
I0
tp962
bg28
tp963
Rp964
ssS'288021'
p965
(dp966
g10
I0
sg11
g12
(g13
(S'S17'
p967
I0
I1
tp968
Rp969
(I3
S'|'
p970
NNNI17
I1
I0
tp971
bS'anglicky, nemecky'
p972
tp973
Rp974
sg22
g12
(g13
(S'S1'
p975
I0
I1
tp976
Rp977
(I3
S'|'
p978
NNNI1
I1
I0
tp979
bg261
tp980
Rp981
sg31
g12
(g13
(S'S43'
p982
I0
I1
tp983
Rp984
(I3
S'|'
p985
NNNI43
I1
I0
tp986
bS'bratislavsky kraj, bratislava - karlova ves'
p987
tp988
Rp989
sg40
g12
(g13
(S'S4'
p990
I0
I1
tp991
Rp992
(I3
S'|'
p993
NNNI4
I1
I0
tp994
bS'null'
p995
tp996
Rp997
sg49
I0
sg50
I0
sg51
g12
(g13
(S'S1'
p998
I0
I1
tp999
Rp1000
(I3
S'|'
p1001
NNNI1
I1
I0
tp1002
bg261
tp1003
Rp1004
sg60
g12
(g13
(S'S4'
p1005
I0
I1
tp1006
Rp1007
(I3
S'|'
p1008
NNNI4
I1
I0
tp1009
bS'null'
p1010
tp1011
Rp1012
sg69
g12
(g13
(S'S4'
p1013
I0
I1
tp1014
Rp1015
(I3
S'|'
p1016
NNNI4
I1
I0
tp1017
bS'null'
p1018
tp1019
Rp1020
sg78
g12
(g13
(S'S4'
p1021
I0
I1
tp1022
Rp1023
(I3
S'|'
p1024
NNNI4
I1
I0
tp1025
bS'null'
p1026
tp1027
Rp1028
sg87
g12
(g13
(S'S1'
p1029
I0
I1
tp1030
Rp1031
(I3
S'|'
p1032
NNNI1
I1
I0
tp1033
bg28
tp1034
Rp1035
sssS'node_dict_factory'
p1036
c__builtin__
dict
p1037
sS'edge_attr_dict_factory'
p1038
g1037
sS'edge'
p1039
(dp1040
g8
(dp1041
g821
(dp1042
ssg95
(dp1043
g534
(dp1044
sg678
(dp1045
ssg167
(dp1046
g246
(dp1047
sg318
(dp1048
sg390
(dp1049
ssg246
(dp1050
g167
g1047
sg318
(dp1051
sg390
(dp1052
sg462
(dp1053
sg606
(dp1054
sg678
(dp1055
sg749
(dp1056
sg965
(dp1057
ssg318
(dp1058
V406909
p1059
g1051
sg606
(dp1060
sV115202
p1061
g1048
ssg390
(dp1062
V406909
p1063
g1052
sg821
(dp1064
sg167
g1049
ssg462
(dp1065
V406909
p1066
g1053
sg893
(dp1067
ssg749
(dp1068
S'406909'
p1069
g1056
ssg606
(dp1070
g1069
g1054
sg318
g1060
sg678
(dp1071
ssg678
(dp1072
g1069
g1055
sg534
(dp1073
sV272861
p1074
g1071
sg893
(dp1075
sg95
g1045
ssg534
(dp1076
g95
g1044
sg678
g1073
ssg821
(dp1077
g8
g1042
sg390
g1064
ssg893
(dp1078
g462
g1067
sV164956
p1079
g1075
ssg965
(dp1080
V406909
p1081
g1057
sssS'graph'
p1082
(dp1083
sS'adjlist_dict_factory'
p1084
g1037
sS'adj'
p1085
g1040
sb.