ccopy_reg
_reconstructor
p0
(cnetworkx.classes.graph
Graph
p1
c__builtin__
object
p2
Ntp3
Rp4
(dp5
S'node'
p6
(dp7
S'465892'
p8
(dp9
S'is_target'
p10
I0
sS'language'
p11
cnumpy.core.multiarray
scalar
p12
(cnumpy
dtype
p13
(S'S33'
p14
I0
I1
tp15
Rp16
(I3
S'|'
p17
NNNI33
I1
I0
tp18
bS'anglicky, taliansky,spanielsky...'
p19
tp20
Rp21
sS'gender'
p22
g12
(g13
(S'S1'
p23
I0
I1
tp24
Rp25
(I3
S'|'
p26
NNNI1
I1
I0
tp27
bS'0'
p28
tp29
Rp30
sS'region'
p31
g12
(g13
(S'S43'
p32
I0
I1
tp33
Rp34
(I3
S'|'
p35
NNNI43
I1
I0
tp36
bS'bratislavsky kraj, bratislava - karlova ves'
p37
tp38
Rp39
sS'hobbies'
p40
g12
(g13
(S'S266'
p41
I0
I1
tp42
Rp43
(I3
S'|'
p44
NNNI266
I1
I0
tp45
bS'sportovanie, fotografovanie, cestovanie, praca s pc, pc hry, surfovanie po webe, pocuvanie hudby, pozeranie filmov, chovatelstvo, malovanie, tancovanie, diskoteky, kupalisko, party, priatelia, divadlo, nakupovanie, stanovanie, diskoteky v tabore stanovanie s rodicmi'
p46
tp47
Rp48
sS'is_start'
p49
I0
sS'public_rand'
p50
I1
sS'age'
p51
g12
(g13
(S'S2'
p52
I0
I1
tp53
Rp54
(I3
S'|'
p55
NNNI2
I1
I0
tp56
bS'12'
p57
tp58
Rp59
sS'comp_edu'
p60
g12
(g13
(S'S14'
p61
I0
I1
tp62
Rp63
(I3
S'|'
p64
NNNI14
I1
I0
tp65
bS'zakladne,prima'
p66
tp67
Rp68
sS'pets'
p69
g12
(g13
(S'S31'
p70
I0
I1
tp71
Rp72
(I3
S'|'
p73
NNNI31
I1
I0
tp74
bS'pri telke, v prirode, v posteli'
p75
tp76
Rp77
sS'edu'
p78
g12
(g13
(S'S4'
p79
I0
I1
tp80
Rp81
(I3
S'|'
p82
NNNI4
I1
I0
tp83
bS'null'
p84
tp85
Rp86
sS'public'
p87
g12
(g13
(S'S1'
p88
I0
I1
tp89
Rp90
(I3
S'|'
p91
NNNI1
I1
I0
tp92
bS'1'
p93
tp94
Rp95
ssS'1042697'
p96
(dp97
g10
I0
sg11
g12
(g13
(S'S4'
p98
I0
I1
tp99
Rp100
(I3
S'|'
p101
NNNI4
I1
I0
tp102
bS'null'
p103
tp104
Rp105
sg22
g12
(g13
(S'S1'
p106
I0
I1
tp107
Rp108
(I3
S'|'
p109
NNNI1
I1
I0
tp110
bg93
tp111
Rp112
sg31
g12
(g13
(S'S43'
p113
I0
I1
tp114
Rp115
(I3
S'|'
p116
NNNI43
I1
I0
tp117
bS'bratislavsky kraj, bratislava - karlova ves'
p118
tp119
Rp120
sg40
g12
(g13
(S'S15'
p121
I0
I1
tp122
Rp123
(I3
S'|'
p124
NNNI15
I1
I0
tp125
bS'pocuvanie hudby'
p126
tp127
Rp128
sg49
I0
sg50
I0
sg51
g12
(g13
(S'S2'
p129
I0
I1
tp130
Rp131
(I3
S'|'
p132
NNNI2
I1
I0
tp133
bS'13'
p134
tp135
Rp136
sg60
g12
(g13
(S'S8'
p137
I0
I1
tp138
Rp139
(I3
S'|'
p140
NNNI8
I1
I0
tp141
bS'zakladne'
p142
tp143
Rp144
sg69
g12
(g13
(S'S4'
p145
I0
I1
tp146
Rp147
(I3
S'|'
p148
NNNI4
I1
I0
tp149
bS'null'
p150
tp151
Rp152
sg78
g12
(g13
(S'S4'
p153
I0
I1
tp154
Rp155
(I3
S'|'
p156
NNNI4
I1
I0
tp157
bS'null'
p158
tp159
Rp160
sg87
g12
(g13
(S'S1'
p161
I0
I1
tp162
Rp163
(I3
S'|'
p164
NNNI1
I1
I0
tp165
bg93
tp166
Rp167
ssV276220
p168
(dp169
g10
I0
sg11
g12
(g13
(S'S8'
p170
I0
I1
tp171
Rp172
(I3
S'|'
p173
NNNI8
I1
I0
tp174
bS'anglicky'
p175
tp176
Rp177
sg22
g12
(g13
(S'S1'
p178
I0
I1
tp179
Rp180
(I3
S'|'
p181
NNNI1
I1
I0
tp182
bg28
tp183
Rp184
sg31
g12
(g13
(S'S43'
p185
I0
I1
tp186
Rp187
(I3
S'|'
p188
NNNI43
I1
I0
tp189
bS'bratislavsky kraj, bratislava - karlova ves'
p190
tp191
Rp192
sg40
g12
(g13
(S'S242'
p193
I0
I1
tp194
Rp195
(I3
S'|'
p196
NNNI242
I1
I0
tp197
bS'sportovanie, fotografovanie, cestovanie, turistika, domace prace, praca s pc, pc hry, surfovanie po webe, citanie, pocuvanie hudby, pozeranie filmov, chovatelstvo, tancovanie, kupalisko, kino, party, priatelia, spanie, nakupovanie, stanovanie'
p198
tp199
Rp200
sg49
I0
sg50
I0
sg51
g12
(g13
(S'S2'
p201
I0
I1
tp202
Rp203
(I3
S'|'
p204
NNNI2
I1
I0
tp205
bS'14'
p206
tp207
Rp208
sg60
g12
(g13
(S'S8'
p209
I0
I1
tp210
Rp211
(I3
S'|'
p212
NNNI8
I1
I0
tp213
bS'zakladne'
p214
tp215
Rp216
sg69
g12
(g13
(S'S42'
p217
I0
I1
tp218
Rp219
(I3
S'|'
p220
NNNI42
I1
I0
tp221
bS'pri telke, v dobrej restauracii, v posteli'
p222
tp223
Rp224
sg78
g12
(g13
(S'S4'
p225
I0
I1
tp226
Rp227
(I3
S'|'
p228
NNNI4
I1
I0
tp229
bS'null'
p230
tp231
Rp232
sg87
g12
(g13
(S'S1'
p233
I0
I1
tp234
Rp235
(I3
S'|'
p236
NNNI1
I1
I0
tp237
bg93
tp238
Rp239
ssV75366
p240
(dp241
g10
I0
sg11
g12
(g13
(S'S31'
p242
I0
I1
tp243
Rp244
(I3
S'|'
p245
NNNI31
I1
I0
tp246
bS'anglicky,vietnamsky,, taliansky'
p247
tp248
Rp249
sg22
g12
(g13
(S'S1'
p250
I0
I1
tp251
Rp252
(I3
S'|'
p253
NNNI1
I1
I0
tp254
bg28
tp255
Rp256
sg31
g12
(g13
(S'S43'
p257
I0
I1
tp258
Rp259
(I3
S'|'
p260
NNNI43
I1
I0
tp261
bS'bratislavsky kraj, bratislava - karlova ves'
p262
tp263
Rp264
sg40
g12
(g13
(S'S159'
p265
I0
I1
tp266
Rp267
(I3
S'|'
p268
NNNI159
I1
I0
tp269
bS'nakupovanie,tancovanie,fotografovanie,party,priatelia,kino,pc hry,kupalisko,diskoteky,pocuvanie hudby,surfovanie po webe,sportovanie,pozeranie filmov a citanie'
p270
tp271
Rp272
sg49
I0
sg50
I1
sg51
g12
(g13
(S'S2'
p273
I0
I1
tp274
Rp275
(I3
S'|'
p276
NNNI2
I1
I0
tp277
bS'12'
p278
tp279
Rp280
sg60
g12
(g13
(S'S4'
p281
I0
I1
tp282
Rp283
(I3
S'|'
p284
NNNI4
I1
I0
tp285
bS'null'
p286
tp287
Rp288
sg69
g12
(g13
(S'S31'
p289
I0
I1
tp290
Rp291
(I3
S'|'
p292
NNNI31
I1
I0
tp293
bS'v dobrej restauraci a pri telke'
p294
tp295
Rp296
sg78
g12
(g13
(S'S836'
p297
I0
I1
tp298
Rp299
(I3
S'|'
p300
NNNI836
I1
I0
tp301
bS'<div> <a title="vstup do klubu" href="/klub/a-smee-siestacii-d">a smee siestacii :d</a> &bull;  <a title="vstup do klubu" href="/klub/skola-je-miesto-kde-za-minimalnu-dobu-maximalne-zblbnes">skola je miesto, kde za minimalnu dobu maximalne zblbnes</a> &bull;  <a title="vstup do klubu" href="/klub/nacoo-saaa-ucit-d-sak-ucitelia-sa-nad-nami-hadam-zlutuju-d-dufam-d">nacoo saaa ucit..:d sak ucitelia sa nad nami hadam zlutuju..:&shy;d dufam..:d</a> &bull;  <a title="vstup do klubu" href="/klub/neviemee-cooo-je-too-skola-_-_viemeee-cso-jeee-to-sranda">neviemee cooo je too skola!:)_-&shy;_viemeee cso jeee to sranda...:&shy;)</a> &bull;  <a title="vstup do klubu" href="/klub/ucivu-rozumiete-bezpecne-vtedy-ak-ste-ho-schopny-vysvetlit-vlastnej-babke">ucivu rozumiete bezpecne vtedy, ak ste ho schopny vysvetlit vlastnej babke</a> </div>'
p302
tp303
Rp304
sg87
g12
(g13
(S'S1'
p305
I0
I1
tp306
Rp307
(I3
S'|'
p308
NNNI1
I1
I0
tp309
bg28
tp310
Rp311
ssg12
(g13
(S'S7'
p312
I0
I1
tp313
Rp314
(I3
S'|'
p315
NNNI7
I1
I0
tp316
bS'1502209'
p317
tp318
Rp319
(dp320
g10
I1
sg11
g12
(g13
(S'S24'
p321
I0
I1
tp322
Rp323
(I3
S'|'
p324
NNNI24
I1
I0
tp325
bS'anglicky, nemecky, rusky'
p326
tp327
Rp328
sg22
g12
(g13
(S'S1'
p329
I0
I1
tp330
Rp331
(I3
S'|'
p332
NNNI1
I1
I0
tp333
bg28
tp334
Rp335
sg31
g12
(g13
(S'S43'
p336
I0
I1
tp337
Rp338
(I3
S'|'
p339
NNNI43
I1
I0
tp340
bS'bratislavsky kraj, bratislava - karlova ves'
p341
tp342
Rp343
sg40
g12
(g13
(S'S159'
p344
I0
I1
tp345
Rp346
(I3
S'|'
p347
NNNI159
I1
I0
tp348
bS'nakupovanie, kupalisko, tancovanie, pocuvanie hudby, pc hry, citanie, pozeranie filmov, spanie, fotografovanie, praca s pc, surfovanie po webe, priatelia, kino'
p349
tp350
Rp351
sg49
I0
sg50
I0
sg51
g12
(g13
(S'S2'
p352
I0
I1
tp353
Rp354
(I3
S'|'
p355
NNNI2
I1
I0
tp356
bS'14'
p357
tp358
Rp359
sg60
g12
(g13
(S'S4'
p360
I0
I1
tp361
Rp362
(I3
S'|'
p363
NNNI4
I1
I0
tp364
bS'null'
p365
tp366
Rp367
sg69
g12
(g13
(S'S63'
p368
I0
I1
tp369
Rp370
(I3
S'|'
p371
NNNI63
I1
I0
tp372
bS'v kuchyni pri stole, pri telke, v posteli, v dobrej restauracii'
p373
tp374
Rp375
sg78
g12
(g13
(S'S4'
p376
I0
I1
tp377
Rp378
(I3
S'|'
p379
NNNI4
I1
I0
tp380
bS'null'
p381
tp382
Rp383
sg87
g12
(g13
(S'S1'
p384
I0
I1
tp385
Rp386
(I3
S'|'
p387
NNNI1
I1
I0
tp388
bg93
tp389
Rp390
ssV465591
p391
(dp392
g10
I0
sg11
g12
(g13
(S'S7'
p393
I0
I1
tp394
Rp395
(I3
S'|'
p396
NNNI7
I1
I0
tp397
bS'nemecky'
p398
tp399
Rp400
sg22
g12
(g13
(S'S1'
p401
I0
I1
tp402
Rp403
(I3
S'|'
p404
NNNI1
I1
I0
tp405
bg28
tp406
Rp407
sg31
g12
(g13
(S'S43'
p408
I0
I1
tp409
Rp410
(I3
S'|'
p411
NNNI43
I1
I0
tp412
bS'bratislavsky kraj, bratislava - karlova ves'
p413
tp414
Rp415
sg40
g12
(g13
(S'S10'
p416
I0
I1
tp417
Rp418
(I3
S'|'
p419
NNNI10
I1
I0
tp420
bS'tancovanie'
p421
tp422
Rp423
sg49
I0
sg50
I0
sg51
g12
(g13
(S'S1'
p424
I0
I1
tp425
Rp426
(I3
S'|'
p427
NNNI1
I1
I0
tp428
bg28
tp429
Rp430
sg60
g12
(g13
(S'S8'
p431
I0
I1
tp432
Rp433
(I3
S'|'
p434
NNNI8
I1
I0
tp435
bS'zakladne'
p436
tp437
Rp438
sg69
g12
(g13
(S'S31'
p439
I0
I1
tp440
Rp441
(I3
S'|'
p442
NNNI31
I1
I0
tp443
bS'v dobrej restauracii, pri telke'
p444
tp445
Rp446
sg78
g12
(g13
(S'S4'
p447
I0
I1
tp448
Rp449
(I3
S'|'
p450
NNNI4
I1
I0
tp451
bS'null'
p452
tp453
Rp454
sg87
g12
(g13
(S'S1'
p455
I0
I1
tp456
Rp457
(I3
S'|'
p458
NNNI1
I1
I0
tp459
bg28
tp460
Rp461
ssS'115319'
p462
(dp463
g10
I0
sg11
g12
(g13
(S'S8'
p464
I0
I1
tp465
Rp466
(I3
S'|'
p467
NNNI8
I1
I0
tp468
bS'anglicky'
p469
tp470
Rp471
sg22
g12
(g13
(S'S1'
p472
I0
I1
tp473
Rp474
(I3
S'|'
p475
NNNI1
I1
I0
tp476
bg28
tp477
Rp478
sg31
g12
(g13
(S'S43'
p479
I0
I1
tp480
Rp481
(I3
S'|'
p482
NNNI43
I1
I0
tp483
bS'bratislavsky kraj, bratislava - karlova ves'
p484
tp485
Rp486
sg40
g12
(g13
(S'S66'
p487
I0
I1
tp488
Rp489
(I3
S'|'
p490
NNNI66
I1
I0
tp491
bS'praca s pc, surfovanie po webe, pocuvanie hudby, priatelia, spanie'
p492
tp493
Rp494
sg49
I0
sg50
I1
sg51
g12
(g13
(S'S1'
p495
I0
I1
tp496
Rp497
(I3
S'|'
p498
NNNI1
I1
I0
tp499
bg28
tp500
Rp501
sg60
g12
(g13
(S'S4'
p502
I0
I1
tp503
Rp504
(I3
S'|'
p505
NNNI4
I1
I0
tp506
bS'null'
p507
tp508
Rp509
sg69
g12
(g13
(S'S9'
p510
I0
I1
tp511
Rp512
(I3
S'|'
p513
NNNI9
I1
I0
tp514
bS'v posteli'
p515
tp516
Rp517
sg78
g12
(g13
(S'S4'
p518
I0
I1
tp519
Rp520
(I3
S'|'
p521
NNNI4
I1
I0
tp522
bS'null'
p523
tp524
Rp525
sg87
g12
(g13
(S'S1'
p526
I0
I1
tp527
Rp528
(I3
S'|'
p529
NNNI1
I1
I0
tp530
bg93
tp531
Rp532
ssV1430571
p533
(dp534
g10
I0
sg11
g12
(g13
(S'S4'
p535
I0
I1
tp536
Rp537
(I3
S'|'
p538
NNNI4
I1
I0
tp539
bS'null'
p540
tp541
Rp542
sg22
g12
(g13
(S'S1'
p543
I0
I1
tp544
Rp545
(I3
S'|'
p546
NNNI1
I1
I0
tp547
bg93
tp548
Rp549
sg31
g12
(g13
(S'S43'
p550
I0
I1
tp551
Rp552
(I3
S'|'
p553
NNNI43
I1
I0
tp554
bS'bratislavsky kraj, bratislava - karlova ves'
p555
tp556
Rp557
sg40
g12
(g13
(S'S4'
p558
I0
I1
tp559
Rp560
(I3
S'|'
p561
NNNI4
I1
I0
tp562
bS'null'
p563
tp564
Rp565
sg49
I0
sg50
I0
sg51
g12
(g13
(S'S2'
p566
I0
I1
tp567
Rp568
(I3
S'|'
p569
NNNI2
I1
I0
tp570
bS'14'
p571
tp572
Rp573
sg60
g12
(g13
(S'S4'
p574
I0
I1
tp575
Rp576
(I3
S'|'
p577
NNNI4
I1
I0
tp578
bS'null'
p579
tp580
Rp581
sg69
g12
(g13
(S'S4'
p582
I0
I1
tp583
Rp584
(I3
S'|'
p585
NNNI4
I1
I0
tp586
bS'null'
p587
tp588
Rp589
sg78
g12
(g13
(S'S4'
p590
I0
I1
tp591
Rp592
(I3
S'|'
p593
NNNI4
I1
I0
tp594
bS'null'
p595
tp596
Rp597
sg87
g12
(g13
(S'S1'
p598
I0
I1
tp599
Rp600
(I3
S'|'
p601
NNNI1
I1
I0
tp602
bg93
tp603
Rp604
ssV598977
p605
(dp606
g10
I0
sg11
g12
(g13
(S'S8'
p607
I0
I1
tp608
Rp609
(I3
S'|'
p610
NNNI8
I1
I0
tp611
bS'anglicky'
p612
tp613
Rp614
sg22
g12
(g13
(S'S1'
p615
I0
I1
tp616
Rp617
(I3
S'|'
p618
NNNI1
I1
I0
tp619
bg28
tp620
Rp621
sg31
g12
(g13
(S'S43'
p622
I0
I1
tp623
Rp624
(I3
S'|'
p625
NNNI43
I1
I0
tp626
bS'bratislavsky kraj, bratislava - karlova ves'
p627
tp628
Rp629
sg40
g12
(g13
(S'S154'
p630
I0
I1
tp631
Rp632
(I3
S'|'
p633
NNNI154
I1
I0
tp634
bS'fotografovanie, pc hry, surfovanie po webe, pocuvanie hudby, pozeranie filmov, tancovanie, kupalisko, kino, party, priatelia, spanie, divadlo, nakupovanie'
p635
tp636
Rp637
sg49
I0
sg50
I0
sg51
g12
(g13
(S'S1'
p638
I0
I1
tp639
Rp640
(I3
S'|'
p641
NNNI1
I1
I0
tp642
bg28
tp643
Rp644
sg60
g12
(g13
(S'S8'
p645
I0
I1
tp646
Rp647
(I3
S'|'
p648
NNNI8
I1
I0
tp649
bS'zakladne'
p650
tp651
Rp652
sg69
g12
(g13
(S'S4'
p653
I0
I1
tp654
Rp655
(I3
S'|'
p656
NNNI4
I1
I0
tp657
bS'null'
p658
tp659
Rp660
sg78
g12
(g13
(S'S4'
p661
I0
I1
tp662
Rp663
(I3
S'|'
p664
NNNI4
I1
I0
tp665
bS'null'
p666
tp667
Rp668
sg87
g12
(g13
(S'S1'
p669
I0
I1
tp670
Rp671
(I3
S'|'
p672
NNNI1
I1
I0
tp673
bg93
tp674
Rp675
ssV746092
p676
(dp677
g10
I0
sg11
g12
(g13
(S'S8'
p678
I0
I1
tp679
Rp680
(I3
S'|'
p681
NNNI8
I1
I0
tp682
bS'anglicky'
p683
tp684
Rp685
sg22
g12
(g13
(S'S1'
p686
I0
I1
tp687
Rp688
(I3
S'|'
p689
NNNI1
I1
I0
tp690
bg93
tp691
Rp692
sg31
g12
(g13
(S'S43'
p693
I0
I1
tp694
Rp695
(I3
S'|'
p696
NNNI43
I1
I0
tp697
bS'bratislavsky kraj, bratislava - karlova ves'
p698
tp699
Rp700
sg40
g12
(g13
(S'S133'
p701
I0
I1
tp702
Rp703
(I3
S'|'
p704
NNNI133
I1
I0
tp705
bS'sportovanie, praca s pc, surfovanie po webe, pocuvanie hudby, pozeranie filmov, malovanie, varenie, priatelia, spanie, grafity su naj'
p706
tp707
Rp708
sg49
I0
sg50
I1
sg51
g12
(g13
(S'S2'
p709
I0
I1
tp710
Rp711
(I3
S'|'
p712
NNNI2
I1
I0
tp713
bS'18'
p714
tp715
Rp716
sg60
g12
(g13
(S'S8'
p717
I0
I1
tp718
Rp719
(I3
S'|'
p720
NNNI8
I1
I0
tp721
bS'zakladne'
p722
tp723
Rp724
sg69
g12
(g13
(S'S9'
p725
I0
I1
tp726
Rp727
(I3
S'|'
p728
NNNI9
I1
I0
tp729
bS'pri telke'
p730
tp731
Rp732
sg78
g12
(g13
(S'S4'
p733
I0
I1
tp734
Rp735
(I3
S'|'
p736
NNNI4
I1
I0
tp737
bS'null'
p738
tp739
Rp740
sg87
g12
(g13
(S'S1'
p741
I0
I1
tp742
Rp743
(I3
S'|'
p744
NNNI1
I1
I0
tp745
bg28
tp746
Rp747
ssV546648
p748
(dp749
g10
I0
sg11
g12
(g13
(S'S32'
p750
I0
I1
tp751
Rp752
(I3
S'|'
p753
NNNI32
I1
I0
tp754
bS'anglicky, spanielsky a ten moj:)'
p755
tp756
Rp757
sg22
g12
(g13
(S'S1'
p758
I0
I1
tp759
Rp760
(I3
S'|'
p761
NNNI1
I1
I0
tp762
bg28
tp763
Rp764
sg31
g12
(g13
(S'S43'
p765
I0
I1
tp766
Rp767
(I3
S'|'
p768
NNNI43
I1
I0
tp769
bS'bratislavsky kraj, bratislava - karlova ves'
p770
tp771
Rp772
sg40
g12
(g13
(S'S144'
p773
I0
I1
tp774
Rp775
(I3
S'|'
p776
NNNI144
I1
I0
tp777
bS'sportovanie, tancovanie, kupalisko, party, spanie, nakupovanie, priatelia, diskoteky, surfovanie po webe, fotografovanie, chlapci, milackovci:-*'
p778
tp779
Rp780
sg49
I0
sg50
I0
sg51
g12
(g13
(S'S2'
p781
I0
I1
tp782
Rp783
(I3
S'|'
p784
NNNI2
I1
I0
tp785
bS'17'
p786
tp787
Rp788
sg60
g12
(g13
(S'S30'
p789
I0
I1
tp790
Rp791
(I3
S'|'
p792
NNNI30
I1
I0
tp793
bS'mucim sa v skolskych laviciach'
p794
tp795
Rp796
sg69
g12
(g13
(S'S4'
p797
I0
I1
tp798
Rp799
(I3
S'|'
p800
NNNI4
I1
I0
tp801
bS'null'
p802
tp803
Rp804
sg78
g12
(g13
(S'S4'
p805
I0
I1
tp806
Rp807
(I3
S'|'
p808
NNNI4
I1
I0
tp809
bS'null'
p810
tp811
Rp812
sg87
g12
(g13
(S'S1'
p813
I0
I1
tp814
Rp815
(I3
S'|'
p816
NNNI1
I1
I0
tp817
bg93
tp818
Rp819
ssg12
(g13
(S'S6'
p820
I0
I1
tp821
Rp822
(I3
S'|'
p823
NNNI6
I1
I0
tp824
bS'490483'
p825
tp826
Rp827
(dp828
g10
I0
sg11
g12
(g13
(S'S8'
p829
I0
I1
tp830
Rp831
(I3
S'|'
p832
NNNI8
I1
I0
tp833
bS'anglicky'
p834
tp835
Rp836
sg22
g12
(g13
(S'S1'
p837
I0
I1
tp838
Rp839
(I3
S'|'
p840
NNNI1
I1
I0
tp841
bg93
tp842
Rp843
sg31
g12
(g13
(S'S43'
p844
I0
I1
tp845
Rp846
(I3
S'|'
p847
NNNI43
I1
I0
tp848
bS'bratislavsky kraj, bratislava - karlova ves'
p849
tp850
Rp851
sg40
g12
(g13
(S'S131'
p852
I0
I1
tp853
Rp854
(I3
S'|'
p855
NNNI131
I1
I0
tp856
bS'sportovanie, fotografovanie, turistika, praca s pc, citanie, pocuvanie hudby, zberatelstvo, tancovanie, varenie, party, nakupovanie'
p857
tp858
Rp859
sg49
I1
sg50
I1
sg51
g12
(g13
(S'S1'
p860
I0
I1
tp861
Rp862
(I3
S'|'
p863
NNNI1
I1
I0
tp864
bg28
tp865
Rp866
sg60
g12
(g13
(S'S4'
p867
I0
I1
tp868
Rp869
(I3
S'|'
p870
NNNI4
I1
I0
tp871
bS'null'
p872
tp873
Rp874
sg69
g12
(g13
(S'S4'
p875
I0
I1
tp876
Rp877
(I3
S'|'
p878
NNNI4
I1
I0
tp879
bS'null'
p880
tp881
Rp882
sg78
g12
(g13
(S'S4'
p883
I0
I1
tp884
Rp885
(I3
S'|'
p886
NNNI4
I1
I0
tp887
bS'null'
p888
tp889
Rp890
sg87
g12
(g13
(S'S1'
p891
I0
I1
tp892
Rp893
(I3
S'|'
p894
NNNI1
I1
I0
tp895
bg93
tp896
Rp897
sssS'node_dict_factory'
p898
c__builtin__
dict
p899
sS'edge_attr_dict_factory'
p900
g899
sS'edge'
p901
(dp902
g8
(dp903
g462
(dp904
sg240
(dp905
sg605
(dp906
ssg96
(dp907
g240
(dp908
sg605
(dp909
ssg168
(dp910
g391
(dp911
sg462
(dp912
sg827
(dp913
sg240
(dp914
sg605
(dp915
ssg827
(dp916
S'746092'
p917
(dp918
sV276220
p919
g913
sg462
(dp920
sS'465591'
p921
(dp922
sS'75366'
p923
(dp924
ssg240
(dp925
g8
g905
sg96
g908
sV276220
p926
g914
sg319
(dp927
sg827
g924
sg462
(dp928
sg605
(dp929
sg533
(dp930
ssg319
(dp931
V75366
p932
g927
ssg676
(dp933
g748
(dp934
sg827
g918
ssg462
(dp935
g8
g904
sV276220
p936
g912
sV75366
p937
g928
sg605
(dp938
sg391
(dp939
sg827
g920
ssg605
(dp940
g8
g906
sg96
g909
sV276220
p941
g915
sV75366
p942
g929
sV115319
p943
g938
sV465591
p944
(dp945
ssg391
(dp946
V276220
p947
g911
sg462
g939
sg827
g922
sg605
g945
ssg748
(dp948
g917
g934
ssg533
(dp949
g923
g930
sssS'graph'
p950
(dp951
sS'adjlist_dict_factory'
p952
g899
sS'adj'
p953
g902
sb.