ccopy_reg
_reconstructor
p0
(cnetworkx.classes.graph
Graph
p1
c__builtin__
object
p2
Ntp3
Rp4
(dp5
S'node'
p6
(dp7
V46869
p8
(dp9
S'is_target'
p10
I0
sS'language'
p11
cnumpy.core.multiarray
scalar
p12
(cnumpy
dtype
p13
(S'S15'
p14
I0
I1
tp15
Rp16
(I3
S'|'
p17
NNNI15
I1
I0
tp18
bS'nemecky, polsky'
p19
tp20
Rp21
sS'gender'
p22
g12
(g13
(S'S1'
p23
I0
I1
tp24
Rp25
(I3
S'|'
p26
NNNI1
I1
I0
tp27
bS'1'
p28
tp29
Rp30
sS'region'
p31
g12
(g13
(S'S32'
p32
I0
I1
tp33
Rp34
(I3
S'|'
p35
NNNI32
I1
I0
tp36
bS'zahranicie, zahranicie - nemecko'
p37
tp38
Rp39
sS'hobbies'
p40
g12
(g13
(S'S78'
p41
I0
I1
tp42
Rp43
(I3
S'|'
p44
NNNI78
I1
I0
tp45
bS'kupalisko, jedlo, party, turistika, surfovanie po webe, chodenie do muzei, sex'
p46
tp47
Rp48
sS'is_start'
p49
I0
sS'public_rand'
p50
I1
sS'age'
p51
g12
(g13
(S'S1'
p52
I0
I1
tp53
Rp54
(I3
S'|'
p55
NNNI1
I1
I0
tp56
bS'0'
p57
tp58
Rp59
sS'comp_edu'
p60
g12
(g13
(S'S8'
p61
I0
I1
tp62
Rp63
(I3
S'|'
p64
NNNI8
I1
I0
tp65
bS'ucnovske'
p66
tp67
Rp68
sS'pets'
p69
g12
(g13
(S'S47'
p70
I0
I1
tp71
Rp72
(I3
S'|'
p73
NNNI47
I1
I0
tp74
bS'v dobrej restauracii, pri svieckach s partnerom'
p75
tp76
Rp77
sS'edu'
p78
g12
(g13
(S'S4'
p79
I0
I1
tp80
Rp81
(I3
S'|'
p82
NNNI4
I1
I0
tp83
bS'null'
p84
tp85
Rp86
sS'public'
p87
g12
(g13
(S'S1'
p88
I0
I1
tp89
Rp90
(I3
S'|'
p91
NNNI1
I1
I0
tp92
bg28
tp93
Rp94
ssV72180
p95
(dp96
g10
I0
sg11
g12
(g13
(S'S34'
p97
I0
I1
tp98
Rp99
(I3
S'|'
p100
NNNI34
I1
I0
tp101
bS'anglicky, nemecky, a slovensky ne?'
p102
tp103
Rp104
sg22
g12
(g13
(S'S1'
p105
I0
I1
tp106
Rp107
(I3
S'|'
p108
NNNI1
I1
I0
tp109
bg28
tp110
Rp111
sg31
g12
(g13
(S'S24'
p112
I0
I1
tp113
Rp114
(I3
S'|'
p115
NNNI24
I1
I0
tp116
bS'presovsky kraj, kezmarok'
p117
tp118
Rp119
sg40
g12
(g13
(S'S58'
p120
I0
I1
tp121
Rp122
(I3
S'|'
p123
NNNI58
I1
I0
tp124
bS'praca s pc, surfovanie po webe, pocuvanie hudby, priatelia'
p125
tp126
Rp127
sg49
I0
sg50
I0
sg51
g12
(g13
(S'S2'
p128
I0
I1
tp129
Rp130
(I3
S'|'
p131
NNNI2
I1
I0
tp132
bS'16'
p133
tp134
Rp135
sg60
g12
(g13
(S'S8'
p136
I0
I1
tp137
Rp138
(I3
S'|'
p139
NNNI8
I1
I0
tp140
bS'zakladne'
p141
tp142
Rp143
sg69
g12
(g13
(S'S25'
p144
I0
I1
tp145
Rp146
(I3
S'|'
p147
NNNI25
I1
I0
tp148
bS'pri svieckach s partnerom'
p149
tp150
Rp151
sg78
g12
(g13
(S'S4'
p152
I0
I1
tp153
Rp154
(I3
S'|'
p155
NNNI4
I1
I0
tp156
bS'null'
p157
tp158
Rp159
sg87
g12
(g13
(S'S1'
p160
I0
I1
tp161
Rp162
(I3
S'|'
p163
NNNI1
I1
I0
tp164
bg57
tp165
Rp166
ssV218215
p167
(dp168
g10
I0
sg11
g12
(g13
(S'S65'
p169
I0
I1
tp170
Rp171
(I3
S'|'
p172
NNNI65
I1
I0
tp173
bS'anglicky, francuzsky, a hlavne ten svoj,ten mi ide najlepsie :-))'
p174
tp175
Rp176
sg22
g12
(g13
(S'S1'
p177
I0
I1
tp178
Rp179
(I3
S'|'
p180
NNNI1
I1
I0
tp181
bg57
tp182
Rp183
sg31
g12
(g13
(S'S37'
p184
I0
I1
tp185
Rp186
(I3
S'|'
p187
NNNI37
I1
I0
tp188
bS'banskobystricky kraj, ziar nad hronom'
p189
tp190
Rp191
sg40
g12
(g13
(S'S57'
p192
I0
I1
tp193
Rp194
(I3
S'|'
p195
NNNI57
I1
I0
tp196
bS'sportovanie, tancovanie, kino, party, spanie, nakupovanie'
p197
tp198
Rp199
sg49
I0
sg50
I1
sg51
g12
(g13
(S'S1'
p200
I0
I1
tp201
Rp202
(I3
S'|'
p203
NNNI1
I1
I0
tp204
bg57
tp205
Rp206
sg60
g12
(g13
(S'S4'
p207
I0
I1
tp208
Rp209
(I3
S'|'
p210
NNNI4
I1
I0
tp211
bS'null'
p212
tp213
Rp214
sg69
g12
(g13
(S'S39'
p215
I0
I1
tp216
Rp217
(I3
S'|'
p218
NNNI39
I1
I0
tp219
bS'ked je dobre tak mi je jedno kde ho jem'
p220
tp221
Rp222
sg78
g12
(g13
(S'S4'
p223
I0
I1
tp224
Rp225
(I3
S'|'
p226
NNNI4
I1
I0
tp227
bS'null'
p228
tp229
Rp230
sg87
g12
(g13
(S'S1'
p231
I0
I1
tp232
Rp233
(I3
S'|'
p234
NNNI1
I1
I0
tp235
bg28
tp236
Rp237
ssV344450
p238
(dp239
g10
I0
sg11
g12
(g13
(S'S19'
p240
I0
I1
tp241
Rp242
(I3
S'|'
p243
NNNI19
I1
I0
tp244
bS'nemecky, francuzsky'
p245
tp246
Rp247
sg22
g12
(g13
(S'S1'
p248
I0
I1
tp249
Rp250
(I3
S'|'
p251
NNNI1
I1
I0
tp252
bg57
tp253
Rp254
sg31
g12
(g13
(S'S24'
p255
I0
I1
tp256
Rp257
(I3
S'|'
p258
NNNI24
I1
I0
tp259
bS'presovsky kraj, kezmarok'
p260
tp261
Rp262
sg40
g12
(g13
(S'S4'
p263
I0
I1
tp264
Rp265
(I3
S'|'
p266
NNNI4
I1
I0
tp267
bS'null'
p268
tp269
Rp270
sg49
I0
sg50
I0
sg51
g12
(g13
(S'S2'
p271
I0
I1
tp272
Rp273
(I3
S'|'
p274
NNNI2
I1
I0
tp275
bS'19'
p276
tp277
Rp278
sg60
g12
(g13
(S'S13'
p279
I0
I1
tp280
Rp281
(I3
S'|'
p282
NNNI13
I1
I0
tp283
bS'stredoskolske'
p284
tp285
Rp286
sg69
g12
(g13
(S'S4'
p287
I0
I1
tp288
Rp289
(I3
S'|'
p290
NNNI4
I1
I0
tp291
bS'null'
p292
tp293
Rp294
sg78
g12
(g13
(S'S4'
p295
I0
I1
tp296
Rp297
(I3
S'|'
p298
NNNI4
I1
I0
tp299
bS'null'
p300
tp301
Rp302
sg87
g12
(g13
(S'S1'
p303
I0
I1
tp304
Rp305
(I3
S'|'
p306
NNNI1
I1
I0
tp307
bg28
tp308
Rp309
ssV575044
p310
(dp311
g10
I0
sg11
g12
(g13
(S'S4'
p312
I0
I1
tp313
Rp314
(I3
S'|'
p315
NNNI4
I1
I0
tp316
bS'null'
p317
tp318
Rp319
sg22
g12
(g13
(S'S1'
p320
I0
I1
tp321
Rp322
(I3
S'|'
p323
NNNI1
I1
I0
tp324
bg57
tp325
Rp326
sg31
g12
(g13
(S'S26'
p327
I0
I1
tp328
Rp329
(I3
S'|'
p330
NNNI26
I1
I0
tp331
bS'presovsky kraj, giraltovce'
p332
tp333
Rp334
sg40
g12
(g13
(S'S79'
p335
I0
I1
tp336
Rp337
(I3
S'|'
p338
NNNI79
I1
I0
tp339
bS'pocuvanie hudby, kupalisko, priatelia, spanie, divadlo, nakupovanie, stanovanie'
p340
tp341
Rp342
sg49
I0
sg50
I1
sg51
g12
(g13
(S'S1'
p343
I0
I1
tp344
Rp345
(I3
S'|'
p346
NNNI1
I1
I0
tp347
bg57
tp348
Rp349
sg60
g12
(g13
(S'S4'
p350
I0
I1
tp351
Rp352
(I3
S'|'
p353
NNNI4
I1
I0
tp354
bS'null'
p355
tp356
Rp357
sg69
g12
(g13
(S'S4'
p358
I0
I1
tp359
Rp360
(I3
S'|'
p361
NNNI4
I1
I0
tp362
bS'null'
p363
tp364
Rp365
sg78
g12
(g13
(S'S4'
p366
I0
I1
tp367
Rp368
(I3
S'|'
p369
NNNI4
I1
I0
tp370
bS'null'
p371
tp372
Rp373
sg87
g12
(g13
(S'S1'
p374
I0
I1
tp375
Rp376
(I3
S'|'
p377
NNNI1
I1
I0
tp378
bg28
tp379
Rp380
ssV506013
p381
(dp382
g10
I0
sg11
g12
(g13
(S'S52'
p383
I0
I1
tp384
Rp385
(I3
S'|'
p386
NNNI52
I1
I0
tp387
bS'anglicky, ak sa to da povedat tak najlepsie svoj d:d'
p388
tp389
Rp390
sg22
g12
(g13
(S'S1'
p391
I0
I1
tp392
Rp393
(I3
S'|'
p394
NNNI1
I1
I0
tp395
bg28
tp396
Rp397
sg31
g12
(g13
(S'S37'
p398
I0
I1
tp399
Rp400
(I3
S'|'
p401
NNNI37
I1
I0
tp402
bS'banskobystricky kraj, ziar nad hronom'
p403
tp404
Rp405
sg40
g12
(g13
(S'S134'
p406
I0
I1
tp407
Rp408
(I3
S'|'
p409
NNNI134
I1
I0
tp410
bS'prace okolo domu, praca s pc, pc hry, surfovanie po webe, pozeranie filmov, diskoteky, kino, party, priatelia, spanie, sex, stanovanie'
p411
tp412
Rp413
sg49
I0
sg50
I1
sg51
g12
(g13
(S'S2'
p414
I0
I1
tp415
Rp416
(I3
S'|'
p417
NNNI2
I1
I0
tp418
bS'20'
p419
tp420
Rp421
sg60
g12
(g13
(S'S4'
p422
I0
I1
tp423
Rp424
(I3
S'|'
p425
NNNI4
I1
I0
tp426
bS'null'
p427
tp428
Rp429
sg69
g12
(g13
(S'S20'
p430
I0
I1
tp431
Rp432
(I3
S'|'
p433
NNNI20
I1
I0
tp434
bS'v dobrej restauracii'
p435
tp436
Rp437
sg78
g12
(g13
(S'S4'
p438
I0
I1
tp439
Rp440
(I3
S'|'
p441
NNNI4
I1
I0
tp442
bS'null'
p443
tp444
Rp445
sg87
g12
(g13
(S'S1'
p446
I0
I1
tp447
Rp448
(I3
S'|'
p449
NNNI1
I1
I0
tp450
bg28
tp451
Rp452
ssg12
(g13
(S'U6'
p453
I0
I1
tp454
Rp455
(I3
S'<'
p456
NNNI24
I4
I8
tp457
bS'5\x00\x00\x007\x00\x00\x005\x00\x00\x000\x00\x00\x004\x00\x00\x003\x00\x00\x00'
p458
tp459
Rp460
(dp461
g10
I0
sg11
g12
(g13
(S'S7'
p462
I0
I1
tp463
Rp464
(I3
S'|'
p465
NNNI7
I1
I0
tp466
bS'nemecky'
p467
tp468
Rp469
sg22
g12
(g13
(S'S1'
p470
I0
I1
tp471
Rp472
(I3
S'|'
p473
NNNI1
I1
I0
tp474
bg57
tp475
Rp476
sg31
g12
(g13
(S'S24'
p477
I0
I1
tp478
Rp479
(I3
S'|'
p480
NNNI24
I1
I0
tp481
bS'presovsky kraj, kezmarok'
p482
tp483
Rp484
sg40
g12
(g13
(S'S105'
p485
I0
I1
tp486
Rp487
(I3
S'|'
p488
NNNI105
I1
I0
tp489
bS'sportovanie, prace v zahrade, praca s pc, pocuvanie hudby, diskoteky, kupalisko, varenie, kino, priatelia'
p490
tp491
Rp492
sg49
I1
sg50
I1
sg51
g12
(g13
(S'S1'
p493
I0
I1
tp494
Rp495
(I3
S'|'
p496
NNNI1
I1
I0
tp497
bg57
tp498
Rp499
sg60
g12
(g13
(S'S8'
p500
I0
I1
tp501
Rp502
(I3
S'|'
p503
NNNI8
I1
I0
tp504
bS'ucnovske'
p505
tp506
Rp507
sg69
g12
(g13
(S'S4'
p508
I0
I1
tp509
Rp510
(I3
S'|'
p511
NNNI4
I1
I0
tp512
bS'null'
p513
tp514
Rp515
sg78
g12
(g13
(S'S4'
p516
I0
I1
tp517
Rp518
(I3
S'|'
p519
NNNI4
I1
I0
tp520
bS'null'
p521
tp522
Rp523
sg87
g12
(g13
(S'S1'
p524
I0
I1
tp525
Rp526
(I3
S'|'
p527
NNNI1
I1
I0
tp528
bg57
tp529
Rp530
ssV68043
p531
(dp532
g10
I1
sg11
g12
(g13
(S'S42'
p533
I0
I1
tp534
Rp535
(I3
S'|'
p536
NNNI42
I1
I0
tp537
bS'anglicky, francuzsky, ale aj slovensky =o)'
p538
tp539
Rp540
sg22
g12
(g13
(S'S1'
p541
I0
I1
tp542
Rp543
(I3
S'|'
p544
NNNI1
I1
I0
tp545
bg57
tp546
Rp547
sg31
g12
(g13
(S'S37'
p548
I0
I1
tp549
Rp550
(I3
S'|'
p551
NNNI37
I1
I0
tp552
bS'banskobystricky kraj, ziar nad hronom'
p553
tp554
Rp555
sg40
g12
(g13
(S'S149'
p556
I0
I1
tp557
Rp558
(I3
S'|'
p559
NNNI149
I1
I0
tp560
bS'pocuvanie hudby, pozeranie filmov, tancovanie, diskoteky, kupalisko, varenie, kino, party, priatelia, spanie, nakupovanie, stanovanie, a tak nooo :d '
p561
tp562
Rp563
sg49
I0
sg50
I0
sg51
g12
(g13
(S'S1'
p564
I0
I1
tp565
Rp566
(I3
S'|'
p567
NNNI1
I1
I0
tp568
bg57
tp569
Rp570
sg60
g12
(g13
(S'S16'
p571
I0
I1
tp572
Rp573
(I3
S'|'
p574
NNNI16
I1
I0
tp575
bS'studujem :( :d:d'
p576
tp577
Rp578
sg69
g12
(g13
(S'S78'
p579
I0
I1
tp580
Rp581
(I3
S'|'
p582
NNNI78
I1
I0
tp583
bS'pri svieckach s partnerom, v dobrej restauracii, z partnerovho bruska, hehe=o)'
p584
tp585
Rp586
sg78
g12
(g13
(S'S4'
p587
I0
I1
tp588
Rp589
(I3
S'|'
p590
NNNI4
I1
I0
tp591
bS'null'
p592
tp593
Rp594
sg87
g12
(g13
(S'S1'
p595
I0
I1
tp596
Rp597
(I3
S'|'
p598
NNNI1
I1
I0
tp599
bg57
tp600
Rp601
ssV1124134
p602
(dp603
g10
I0
sg11
g12
(g13
(S'S4'
p604
I0
I1
tp605
Rp606
(I3
S'|'
p607
NNNI4
I1
I0
tp608
bS'null'
p609
tp610
Rp611
sg22
g12
(g13
(S'S1'
p612
I0
I1
tp613
Rp614
(I3
S'|'
p615
NNNI1
I1
I0
tp616
bg28
tp617
Rp618
sg31
g12
(g13
(S'S37'
p619
I0
I1
tp620
Rp621
(I3
S'|'
p622
NNNI37
I1
I0
tp623
bS'banskobystricky kraj, ziar nad hronom'
p624
tp625
Rp626
sg40
g12
(g13
(S'S4'
p627
I0
I1
tp628
Rp629
(I3
S'|'
p630
NNNI4
I1
I0
tp631
bS'null'
p632
tp633
Rp634
sg49
I0
sg50
I1
sg51
g12
(g13
(S'S2'
p635
I0
I1
tp636
Rp637
(I3
S'|'
p638
NNNI2
I1
I0
tp639
bS'27'
p640
tp641
Rp642
sg60
g12
(g13
(S'S4'
p643
I0
I1
tp644
Rp645
(I3
S'|'
p646
NNNI4
I1
I0
tp647
bS'null'
p648
tp649
Rp650
sg69
g12
(g13
(S'S4'
p651
I0
I1
tp652
Rp653
(I3
S'|'
p654
NNNI4
I1
I0
tp655
bS'null'
p656
tp657
Rp658
sg78
g12
(g13
(S'S4'
p659
I0
I1
tp660
Rp661
(I3
S'|'
p662
NNNI4
I1
I0
tp663
bS'null'
p664
tp665
Rp666
sg87
g12
(g13
(S'S1'
p667
I0
I1
tp668
Rp669
(I3
S'|'
p670
NNNI1
I1
I0
tp671
bg57
tp672
Rp673
ssV344559
p674
(dp675
g10
I0
sg11
g12
(g13
(S'S4'
p676
I0
I1
tp677
Rp678
(I3
S'|'
p679
NNNI4
I1
I0
tp680
bS'null'
p681
tp682
Rp683
sg22
g12
(g13
(S'S1'
p684
I0
I1
tp685
Rp686
(I3
S'|'
p687
NNNI1
I1
I0
tp688
bg28
tp689
Rp690
sg31
g12
(g13
(S'S28'
p691
I0
I1
tp692
Rp693
(I3
S'|'
p694
NNNI28
I1
I0
tp695
bS'zahranicie, zahranicie - usa'
p696
tp697
Rp698
sg40
g12
(g13
(S'S4'
p699
I0
I1
tp700
Rp701
(I3
S'|'
p702
NNNI4
I1
I0
tp703
bS'null'
p704
tp705
Rp706
sg49
I0
sg50
I1
sg51
g12
(g13
(S'S1'
p707
I0
I1
tp708
Rp709
(I3
S'|'
p710
NNNI1
I1
I0
tp711
bg57
tp712
Rp713
sg60
g12
(g13
(S'S4'
p714
I0
I1
tp715
Rp716
(I3
S'|'
p717
NNNI4
I1
I0
tp718
bS'null'
p719
tp720
Rp721
sg69
g12
(g13
(S'S4'
p722
I0
I1
tp723
Rp724
(I3
S'|'
p725
NNNI4
I1
I0
tp726
bS'null'
p727
tp728
Rp729
sg78
g12
(g13
(S'S4'
p730
I0
I1
tp731
Rp732
(I3
S'|'
p733
NNNI4
I1
I0
tp734
bS'null'
p735
tp736
Rp737
sg87
g12
(g13
(S'S1'
p738
I0
I1
tp739
Rp740
(I3
S'|'
p741
NNNI1
I1
I0
tp742
bg57
tp743
Rp744
ssV187640
p745
(dp746
g10
I0
sg11
g12
(g13
(S'S97'
p747
I0
I1
tp748
Rp749
(I3
S'|'
p750
NNNI97
I1
I0
tp751
bS'anglicky, francuzsky, anglictina to je moje...na 1 sloveensky samozrejme :) le najlepsie ten svoj'
p752
tp753
Rp754
sg22
g12
(g13
(S'S1'
p755
I0
I1
tp756
Rp757
(I3
S'|'
p758
NNNI1
I1
I0
tp759
bg57
tp760
Rp761
sg31
g12
(g13
(S'S37'
p762
I0
I1
tp763
Rp764
(I3
S'|'
p765
NNNI37
I1
I0
tp766
bS'banskobystricky kraj, ziar nad hronom'
p767
tp768
Rp769
sg40
g12
(g13
(S'S357'
p770
I0
I1
tp771
Rp772
(I3
S'|'
p773
NNNI357
I1
I0
tp774
bS'sportovanie, pocuvanie hudby, tancovanie, diskoteky, varenie, jedlo, kino, party, priatelia, spanie, nakupovanie, sex, strasne rada chodim von...a niekedy to uz fakt prehanam...moja mama ma uz skoro nevidi doma....xxiixix chcelo by to prestavku....ale myslim si,ze niesom hlupa....no musim sa este vela ucit...vela toho stale nviem..idem si az svojim cielom'
p775
tp776
Rp777
sg49
I0
sg50
I1
sg51
g12
(g13
(S'S2'
p778
I0
I1
tp779
Rp780
(I3
S'|'
p781
NNNI2
I1
I0
tp782
bS'19'
p783
tp784
Rp785
sg60
g12
(g13
(S'S19'
p786
I0
I1
tp787
Rp788
(I3
S'|'
p789
NNNI19
I1
I0
tp790
bS'zakladne, vdakabohu'
p791
tp792
Rp793
sg69
g12
(g13
(S'S53'
p794
I0
I1
tp795
Rp796
(I3
S'|'
p797
NNNI53
I1
I0
tp798
bS'v dobrej restauracii, v posteli, z partnerovho bruska'
p799
tp800
Rp801
sg78
g12
(g13
(S'S4'
p802
I0
I1
tp803
Rp804
(I3
S'|'
p805
NNNI4
I1
I0
tp806
bS'null'
p807
tp808
Rp809
sg87
g12
(g13
(S'S1'
p810
I0
I1
tp811
Rp812
(I3
S'|'
p813
NNNI1
I1
I0
tp814
bg28
tp815
Rp816
ssV347207
p817
(dp818
g10
I0
sg11
g12
(g13
(S'S17'
p819
I0
I1
tp820
Rp821
(I3
S'|'
p822
NNNI17
I1
I0
tp823
bS'trochu anglicky:d'
p824
tp825
Rp826
sg22
g12
(g13
(S'S1'
p827
I0
I1
tp828
Rp829
(I3
S'|'
p830
NNNI1
I1
I0
tp831
bg28
tp832
Rp833
sg31
g12
(g13
(S'S37'
p834
I0
I1
tp835
Rp836
(I3
S'|'
p837
NNNI37
I1
I0
tp838
bS'banskobystricky kraj, ziar nad hronom'
p839
tp840
Rp841
sg40
g12
(g13
(S'S59'
p842
I0
I1
tp843
Rp844
(I3
S'|'
p845
NNNI59
I1
I0
tp846
bS'prechacka v prirodke :d  sportovanie muay thai- thajsky box'
p847
tp848
Rp849
sg49
I0
sg50
I1
sg51
g12
(g13
(S'S2'
p850
I0
I1
tp851
Rp852
(I3
S'|'
p853
NNNI2
I1
I0
tp854
bS'20'
p855
tp856
Rp857
sg60
g12
(g13
(S'S8'
p858
I0
I1
tp859
Rp860
(I3
S'|'
p861
NNNI8
I1
I0
tp862
bS'zakladne'
p863
tp864
Rp865
sg69
g12
(g13
(S'S29'
p866
I0
I1
tp867
Rp868
(I3
S'|'
p869
NNNI29
I1
I0
tp870
bS's partnerkou alebo o samote:d'
p871
tp872
Rp873
sg78
g12
(g13
(S'S4'
p874
I0
I1
tp875
Rp876
(I3
S'|'
p877
NNNI4
I1
I0
tp878
bS'null'
p879
tp880
Rp881
sg87
g12
(g13
(S'S1'
p882
I0
I1
tp883
Rp884
(I3
S'|'
p885
NNNI1
I1
I0
tp886
bg28
tp887
Rp888
ssV221002
p889
(dp890
g10
I0
sg11
g12
(g13
(S'S7'
p891
I0
I1
tp892
Rp893
(I3
S'|'
p894
NNNI7
I1
I0
tp895
bS'nemecky'
p896
tp897
Rp898
sg22
g12
(g13
(S'S1'
p899
I0
I1
tp900
Rp901
(I3
S'|'
p902
NNNI1
I1
I0
tp903
bg28
tp904
Rp905
sg31
g12
(g13
(S'S37'
p906
I0
I1
tp907
Rp908
(I3
S'|'
p909
NNNI37
I1
I0
tp910
bS'banskobystricky kraj, banska bystrica'
p911
tp912
Rp913
sg40
g12
(g13
(S'S46'
p914
I0
I1
tp915
Rp916
(I3
S'|'
p917
NNNI46
I1
I0
tp918
bS'praca s pc, pc hry, tancovanie, varenie, jedlo'
p919
tp920
Rp921
sg49
I0
sg50
I1
sg51
g12
(g13
(S'S2'
p922
I0
I1
tp923
Rp924
(I3
S'|'
p925
NNNI2
I1
I0
tp926
bS'18'
p927
tp928
Rp929
sg60
g12
(g13
(S'S13'
p930
I0
I1
tp931
Rp932
(I3
S'|'
p933
NNNI13
I1
I0
tp934
bS'stredoskolske'
p935
tp936
Rp937
sg69
g12
(g13
(S'S20'
p938
I0
I1
tp939
Rp940
(I3
S'|'
p941
NNNI20
I1
I0
tp942
bS'v dobrej restauracii'
p943
tp944
Rp945
sg78
g12
(g13
(S'S4'
p946
I0
I1
tp947
Rp948
(I3
S'|'
p949
NNNI4
I1
I0
tp950
bS'null'
p951
tp952
Rp953
sg87
g12
(g13
(S'S1'
p954
I0
I1
tp955
Rp956
(I3
S'|'
p957
NNNI1
I1
I0
tp958
bg28
tp959
Rp960
ssV575045
p961
(dp962
g10
I0
sg11
g12
(g13
(S'S20'
p963
I0
I1
tp964
Rp965
(I3
S'|'
p966
NNNI20
I1
I0
tp967
bS'anglicky, francuzsky'
p968
tp969
Rp970
sg22
g12
(g13
(S'S1'
p971
I0
I1
tp972
Rp973
(I3
S'|'
p974
NNNI1
I1
I0
tp975
bg28
tp976
Rp977
sg31
g12
(g13
(S'S32'
p978
I0
I1
tp979
Rp980
(I3
S'|'
p981
NNNI32
I1
I0
tp982
bS'zahranicie, zahranicie - ostatne'
p983
tp984
Rp985
sg40
g12
(g13
(S'S147'
p986
I0
I1
tp987
Rp988
(I3
S'|'
p989
NNNI147
I1
I0
tp990
bS'praca s pc, pc hry, surfovanie po webe, pocuvanie hudby, pozeranie filmov, chovatelstvo, kino, party, spanie, sex, world of warcraft is best :d:d:d'
p991
tp992
Rp993
sg49
I0
sg50
I1
sg51
g12
(g13
(S'S2'
p994
I0
I1
tp995
Rp996
(I3
S'|'
p997
NNNI2
I1
I0
tp998
bS'21'
p999
tp1000
Rp1001
sg60
g12
(g13
(S'S56'
p1002
I0
I1
tp1003
Rp1004
(I3
S'|'
p1005
NNNI56
I1
I0
tp1006
bS'zakladne, a snazim sa dokoncit strednu ale neviem neviem'
p1007
tp1008
Rp1009
sg69
g12
(g13
(S'S20'
p1010
I0
I1
tp1011
Rp1012
(I3
S'|'
p1013
NNNI20
I1
I0
tp1014
bS'pri telke, v posteli'
p1015
tp1016
Rp1017
sg78
g12
(g13
(S'S4'
p1018
I0
I1
tp1019
Rp1020
(I3
S'|'
p1021
NNNI4
I1
I0
tp1022
bS'null'
p1023
tp1024
Rp1025
sg87
g12
(g13
(S'S1'
p1026
I0
I1
tp1027
Rp1028
(I3
S'|'
p1029
NNNI1
I1
I0
tp1030
bg57
tp1031
Rp1032
ssV575046
p1033
(dp1034
g10
I0
sg11
g12
(g13
(S'S42'
p1035
I0
I1
tp1036
Rp1037
(I3
S'|'
p1038
NNNI42
I1
I0
tp1039
bS'myslim ze ten svoj, ale neviem ci dobre:-)'
p1040
tp1041
Rp1042
sg22
g12
(g13
(S'S1'
p1043
I0
I1
tp1044
Rp1045
(I3
S'|'
p1046
NNNI1
I1
I0
tp1047
bg57
tp1048
Rp1049
sg31
g12
(g13
(S'S21'
p1050
I0
I1
tp1051
Rp1052
(I3
S'|'
p1053
NNNI21
I1
I0
tp1054
bS'trnavsky kraj, trnava'
p1055
tp1056
Rp1057
sg40
g12
(g13
(S'S6'
p1058
I0
I1
tp1059
Rp1060
(I3
S'|'
p1061
NNNI6
I1
I0
tp1062
bS'spanie'
p1063
tp1064
Rp1065
sg49
I0
sg50
I1
sg51
g12
(g13
(S'S1'
p1066
I0
I1
tp1067
Rp1068
(I3
S'|'
p1069
NNNI1
I1
I0
tp1070
bg57
tp1071
Rp1072
sg60
g12
(g13
(S'S13'
p1073
I0
I1
tp1074
Rp1075
(I3
S'|'
p1076
NNNI13
I1
I0
tp1077
bS'stredoskolske'
p1078
tp1079
Rp1080
sg69
g12
(g13
(S'S55'
p1081
I0
I1
tp1082
Rp1083
(I3
S'|'
p1084
NNNI55
I1
I0
tp1085
bS'z partnerovho bruska, ale budem to musiet vyskusat:-)))'
p1086
tp1087
Rp1088
sg78
g12
(g13
(S'S4'
p1089
I0
I1
tp1090
Rp1091
(I3
S'|'
p1092
NNNI4
I1
I0
tp1093
bS'null'
p1094
tp1095
Rp1096
sg87
g12
(g13
(S'S1'
p1097
I0
I1
tp1098
Rp1099
(I3
S'|'
p1100
NNNI1
I1
I0
tp1101
bg57
tp1102
Rp1103
ssV835825
p1104
(dp1105
g10
I0
sg11
g12
(g13
(S'S7'
p1106
I0
I1
tp1107
Rp1108
(I3
S'|'
p1109
NNNI7
I1
I0
tp1110
bS'nemecky'
p1111
tp1112
Rp1113
sg22
g12
(g13
(S'S1'
p1114
I0
I1
tp1115
Rp1116
(I3
S'|'
p1117
NNNI1
I1
I0
tp1118
bg28
tp1119
Rp1120
sg31
g12
(g13
(S'S33'
p1121
I0
I1
tp1122
Rp1123
(I3
S'|'
p1124
NNNI33
I1
I0
tp1125
bS'presovsky kraj, spisska stara ves'
p1126
tp1127
Rp1128
sg40
g12
(g13
(S'S108'
p1129
I0
I1
tp1130
Rp1131
(I3
S'|'
p1132
NNNI108
I1
I0
tp1133
bS'sportovanie, turistika, domace prace, praca s pc, pc hry, pocuvanie hudby, kupalisko, jedlo, kino, priatelia'
p1134
tp1135
Rp1136
sg49
I0
sg50
I1
sg51
g12
(g13
(S'S2'
p1137
I0
I1
tp1138
Rp1139
(I3
S'|'
p1140
NNNI2
I1
I0
tp1141
bS'16'
p1142
tp1143
Rp1144
sg60
g12
(g13
(S'S4'
p1145
I0
I1
tp1146
Rp1147
(I3
S'|'
p1148
NNNI4
I1
I0
tp1149
bS'null'
p1150
tp1151
Rp1152
sg69
g12
(g13
(S'S31'
p1153
I0
I1
tp1154
Rp1155
(I3
S'|'
p1156
NNNI31
I1
I0
tp1157
bS'v dobrej restauracii, v prirode'
p1158
tp1159
Rp1160
sg78
g12
(g13
(S'S4'
p1161
I0
I1
tp1162
Rp1163
(I3
S'|'
p1164
NNNI4
I1
I0
tp1165
bS'null'
p1166
tp1167
Rp1168
sg87
g12
(g13
(S'S1'
p1169
I0
I1
tp1170
Rp1171
(I3
S'|'
p1172
NNNI1
I1
I0
tp1173
bg57
tp1174
Rp1175
ssV1014595
p1176
(dp1177
g10
I0
sg11
g12
(g13
(S'S8'
p1178
I0
I1
tp1179
Rp1180
(I3
S'|'
p1181
NNNI8
I1
I0
tp1182
bS'anglicky'
p1183
tp1184
Rp1185
sg22
g12
(g13
(S'S1'
p1186
I0
I1
tp1187
Rp1188
(I3
S'|'
p1189
NNNI1
I1
I0
tp1190
bg57
tp1191
Rp1192
sg31
g12
(g13
(S'S30'
p1193
I0
I1
tp1194
Rp1195
(I3
S'|'
p1196
NNNI30
I1
I0
tp1197
bS'kosicky kraj, spisska nova ves'
p1198
tp1199
Rp1200
sg40
g12
(g13
(S'S74'
p1201
I0
I1
tp1202
Rp1203
(I3
S'|'
p1204
NNNI74
I1
I0
tp1205
bS'sportovanie, praca s pc, pozeranie filmov, tancovanie, spanie, nakupovanie'
p1206
tp1207
Rp1208
sg49
I0
sg50
I1
sg51
g12
(g13
(S'S2'
p1209
I0
I1
tp1210
Rp1211
(I3
S'|'
p1212
NNNI2
I1
I0
tp1213
bS'26'
p1214
tp1215
Rp1216
sg60
g12
(g13
(S'S13'
p1217
I0
I1
tp1218
Rp1219
(I3
S'|'
p1220
NNNI13
I1
I0
tp1221
bS'stredoskolske'
p1222
tp1223
Rp1224
sg69
g12
(g13
(S'S9'
p1225
I0
I1
tp1226
Rp1227
(I3
S'|'
p1228
NNNI9
I1
I0
tp1229
bS'pri telke'
p1230
tp1231
Rp1232
sg78
g12
(g13
(S'S4'
p1233
I0
I1
tp1234
Rp1235
(I3
S'|'
p1236
NNNI4
I1
I0
tp1237
bS'null'
p1238
tp1239
Rp1240
sg87
g12
(g13
(S'S1'
p1241
I0
I1
tp1242
Rp1243
(I3
S'|'
p1244
NNNI1
I1
I0
tp1245
bg28
tp1246
Rp1247
ssV564586
p1248
(dp1249
g10
I0
sg11
g12
(g13
(S'S33'
p1250
I0
I1
tp1251
Rp1252
(I3
S'|'
p1253
NNNI33
I1
I0
tp1254
bS'japonsky, anglicky, rusky, polsky'
p1255
tp1256
Rp1257
sg22
g12
(g13
(S'S1'
p1258
I0
I1
tp1259
Rp1260
(I3
S'|'
p1261
NNNI1
I1
I0
tp1262
bg57
tp1263
Rp1264
sg31
g12
(g13
(S'S22'
p1265
I0
I1
tp1266
Rp1267
(I3
S'|'
p1268
NNNI22
I1
I0
tp1269
bS'presovsky kraj, poprad'
p1270
tp1271
Rp1272
sg40
g12
(g13
(S'S4'
p1273
I0
I1
tp1274
Rp1275
(I3
S'|'
p1276
NNNI4
I1
I0
tp1277
bS'null'
p1278
tp1279
Rp1280
sg49
I0
sg50
I1
sg51
g12
(g13
(S'S1'
p1281
I0
I1
tp1282
Rp1283
(I3
S'|'
p1284
NNNI1
I1
I0
tp1285
bg57
tp1286
Rp1287
sg60
g12
(g13
(S'S13'
p1288
I0
I1
tp1289
Rp1290
(I3
S'|'
p1291
NNNI13
I1
I0
tp1292
bS'stredoskolske'
p1293
tp1294
Rp1295
sg69
g12
(g13
(S'S4'
p1296
I0
I1
tp1297
Rp1298
(I3
S'|'
p1299
NNNI4
I1
I0
tp1300
bS'null'
p1301
tp1302
Rp1303
sg78
g12
(g13
(S'S4'
p1304
I0
I1
tp1305
Rp1306
(I3
S'|'
p1307
NNNI4
I1
I0
tp1308
bS'null'
p1309
tp1310
Rp1311
sg87
g12
(g13
(S'S1'
p1312
I0
I1
tp1313
Rp1314
(I3
S'|'
p1315
NNNI1
I1
I0
tp1316
bg28
tp1317
Rp1318
ssV564587
p1319
(dp1320
g10
I0
sg11
g12
(g13
(S'S14'
p1321
I0
I1
tp1322
Rp1323
(I3
S'|'
p1324
NNNI14
I1
I0
tp1325
bS'rusky a romsky'
p1326
tp1327
Rp1328
sg22
g12
(g13
(S'S1'
p1329
I0
I1
tp1330
Rp1331
(I3
S'|'
p1332
NNNI1
I1
I0
tp1333
bg57
tp1334
Rp1335
sg31
g12
(g13
(S'S22'
p1336
I0
I1
tp1337
Rp1338
(I3
S'|'
p1339
NNNI22
I1
I0
tp1340
bS'presovsky kraj, levoca'
p1341
tp1342
Rp1343
sg40
g12
(g13
(S'S4'
p1344
I0
I1
tp1345
Rp1346
(I3
S'|'
p1347
NNNI4
I1
I0
tp1348
bS'null'
p1349
tp1350
Rp1351
sg49
I0
sg50
I1
sg51
g12
(g13
(S'S1'
p1352
I0
I1
tp1353
Rp1354
(I3
S'|'
p1355
NNNI1
I1
I0
tp1356
bg57
tp1357
Rp1358
sg60
g12
(g13
(S'S10'
p1359
I0
I1
tp1360
Rp1361
(I3
S'|'
p1362
NNNI10
I1
I0
tp1363
bS'som vidata'
p1364
tp1365
Rp1366
sg69
g12
(g13
(S'S4'
p1367
I0
I1
tp1368
Rp1369
(I3
S'|'
p1370
NNNI4
I1
I0
tp1371
bS'null'
p1372
tp1373
Rp1374
sg78
g12
(g13
(S'S4'
p1375
I0
I1
tp1376
Rp1377
(I3
S'|'
p1378
NNNI4
I1
I0
tp1379
bS'null'
p1380
tp1381
Rp1382
sg87
g12
(g13
(S'S1'
p1383
I0
I1
tp1384
Rp1385
(I3
S'|'
p1386
NNNI1
I1
I0
tp1387
bg28
tp1388
Rp1389
ssV898473
p1390
(dp1391
g10
I0
sg11
g12
(g13
(S'S18'
p1392
I0
I1
tp1393
Rp1394
(I3
S'|'
p1395
NNNI18
I1
I0
tp1396
bS'anglicky, japonsky'
p1397
tp1398
Rp1399
sg22
g12
(g13
(S'S1'
p1400
I0
I1
tp1401
Rp1402
(I3
S'|'
p1403
NNNI1
I1
I0
tp1404
bg57
tp1405
Rp1406
sg31
g12
(g13
(S'S37'
p1407
I0
I1
tp1408
Rp1409
(I3
S'|'
p1410
NNNI37
I1
I0
tp1411
bS'banskobystricky kraj, ziar nad hronom'
p1412
tp1413
Rp1414
sg40
g12
(g13
(S'S4'
p1415
I0
I1
tp1416
Rp1417
(I3
S'|'
p1418
NNNI4
I1
I0
tp1419
bS'null'
p1420
tp1421
Rp1422
sg49
I0
sg50
I0
sg51
g12
(g13
(S'S2'
p1423
I0
I1
tp1424
Rp1425
(I3
S'|'
p1426
NNNI2
I1
I0
tp1427
bS'20'
p1428
tp1429
Rp1430
sg60
g12
(g13
(S'S4'
p1431
I0
I1
tp1432
Rp1433
(I3
S'|'
p1434
NNNI4
I1
I0
tp1435
bS'null'
p1436
tp1437
Rp1438
sg69
g12
(g13
(S'S4'
p1439
I0
I1
tp1440
Rp1441
(I3
S'|'
p1442
NNNI4
I1
I0
tp1443
bS'null'
p1444
tp1445
Rp1446
sg78
g12
(g13
(S'S4'
p1447
I0
I1
tp1448
Rp1449
(I3
S'|'
p1450
NNNI4
I1
I0
tp1451
bS'null'
p1452
tp1453
Rp1454
sg87
g12
(g13
(S'S1'
p1455
I0
I1
tp1456
Rp1457
(I3
S'|'
p1458
NNNI1
I1
I0
tp1459
bg57
tp1460
Rp1461
ssV325777
p1462
(dp1463
g10
I0
sg11
g12
(g13
(S'S8'
p1464
I0
I1
tp1465
Rp1466
(I3
S'|'
p1467
NNNI8
I1
I0
tp1468
bS'anglicky'
p1469
tp1470
Rp1471
sg22
g12
(g13
(S'S1'
p1472
I0
I1
tp1473
Rp1474
(I3
S'|'
p1475
NNNI1
I1
I0
tp1476
bg28
tp1477
Rp1478
sg31
g12
(g13
(S'S22'
p1479
I0
I1
tp1480
Rp1481
(I3
S'|'
p1482
NNNI22
I1
I0
tp1483
bS'presovsky kraj, lipany'
p1484
tp1485
Rp1486
sg40
g12
(g13
(S'S27'
p1487
I0
I1
tp1488
Rp1489
(I3
S'|'
p1490
NNNI27
I1
I0
tp1491
bS'praca s pc, pocuvanie hudby'
p1492
tp1493
Rp1494
sg49
I0
sg50
I1
sg51
g12
(g13
(S'S2'
p1495
I0
I1
tp1496
Rp1497
(I3
S'|'
p1498
NNNI2
I1
I0
tp1499
bS'20'
p1500
tp1501
Rp1502
sg60
g12
(g13
(S'S4'
p1503
I0
I1
tp1504
Rp1505
(I3
S'|'
p1506
NNNI4
I1
I0
tp1507
bS'null'
p1508
tp1509
Rp1510
sg69
g12
(g13
(S'S9'
p1511
I0
I1
tp1512
Rp1513
(I3
S'|'
p1514
NNNI9
I1
I0
tp1515
bS'pri telke'
p1516
tp1517
Rp1518
sg78
g12
(g13
(S'S4'
p1519
I0
I1
tp1520
Rp1521
(I3
S'|'
p1522
NNNI4
I1
I0
tp1523
bS'null'
p1524
tp1525
Rp1526
sg87
g12
(g13
(S'S1'
p1527
I0
I1
tp1528
Rp1529
(I3
S'|'
p1530
NNNI1
I1
I0
tp1531
bg28
tp1532
Rp1533
ssV397655
p1534
(dp1535
g10
I0
sg11
g12
(g13
(S'S77'
p1536
I0
I1
tp1537
Rp1538
(I3
S'|'
p1539
NNNI77
I1
I0
tp1540
bS'nemecky, anglicky, taliansky, japonsky, polsky, rusky, francuzsky, spanielsky'
p1541
tp1542
Rp1543
sg22
g12
(g13
(S'S1'
p1544
I0
I1
tp1545
Rp1546
(I3
S'|'
p1547
NNNI1
I1
I0
tp1548
bg28
tp1549
Rp1550
sg31
g12
(g13
(S'S22'
p1551
I0
I1
tp1552
Rp1553
(I3
S'|'
p1554
NNNI22
I1
I0
tp1555
bS'presovsky kraj, poprad'
p1556
tp1557
Rp1558
sg40
g12
(g13
(S'S37'
p1559
I0
I1
tp1560
Rp1561
(I3
S'|'
p1562
NNNI37
I1
I0
tp1563
bS'pc hry, sportovanie, praca s pc, kino'
p1564
tp1565
Rp1566
sg49
I0
sg50
I0
sg51
g12
(g13
(S'S1'
p1567
I0
I1
tp1568
Rp1569
(I3
S'|'
p1570
NNNI1
I1
I0
tp1571
bg57
tp1572
Rp1573
sg60
g12
(g13
(S'S8'
p1574
I0
I1
tp1575
Rp1576
(I3
S'|'
p1577
NNNI8
I1
I0
tp1578
bS'zakladne'
p1579
tp1580
Rp1581
sg69
g12
(g13
(S'S9'
p1582
I0
I1
tp1583
Rp1584
(I3
S'|'
p1585
NNNI9
I1
I0
tp1586
bS'pri telke'
p1587
tp1588
Rp1589
sg78
g12
(g13
(S'S451'
p1590
I0
I1
tp1591
Rp1592
(I3
S'|'
p1593
NNNI451
I1
I0
tp1594
bS'<div> <a title="vstup do klubu" href="/klub/najfajnowsie-dievcata-v-hranovnicii">najfajnows&shy;ie dievcata v hranovnici&shy;i !!</a> &bull;  <a title="vstup do klubu" href="/klub/vajcaci-1">vajcaci</a> &bull;  <a title="vstup do klubu" href="/klub/vtedy-kedy-sme-boliii-malickyyy">vtedy kedy sme boliii malickyyy</a> &bull;  <a title="vstup do klubu" href="/klub/kto-nanawidi-skolu-a-ucki-a-riaditela">kto nanawidi skolu a ucki a riaditela</a> </div>'
p1595
tp1596
Rp1597
sg87
g12
(g13
(S'S1'
p1598
I0
I1
tp1599
Rp1600
(I3
S'|'
p1601
NNNI1
I1
I0
tp1602
bg28
tp1603
Rp1604
ssV466868
p1605
(dp1606
g10
I0
sg11
g12
(g13
(S'S17'
p1607
I0
I1
tp1608
Rp1609
(I3
S'|'
p1610
NNNI17
I1
I0
tp1611
bS'anglicky, nemecky'
p1612
tp1613
Rp1614
sg22
g12
(g13
(S'S1'
p1615
I0
I1
tp1616
Rp1617
(I3
S'|'
p1618
NNNI1
I1
I0
tp1619
bg28
tp1620
Rp1621
sg31
g12
(g13
(S'S22'
p1622
I0
I1
tp1623
Rp1624
(I3
S'|'
p1625
NNNI22
I1
I0
tp1626
bS'presovsky kraj, poprad'
p1627
tp1628
Rp1629
sg40
g12
(g13
(S'S45'
p1630
I0
I1
tp1631
Rp1632
(I3
S'|'
p1633
NNNI45
I1
I0
tp1634
bS'sportovanie, tancovanie, diskoteky, priatelia'
p1635
tp1636
Rp1637
sg49
I0
sg50
I1
sg51
g12
(g13
(S'S2'
p1638
I0
I1
tp1639
Rp1640
(I3
S'|'
p1641
NNNI2
I1
I0
tp1642
bS'22'
p1643
tp1644
Rp1645
sg60
g12
(g13
(S'S4'
p1646
I0
I1
tp1647
Rp1648
(I3
S'|'
p1649
NNNI4
I1
I0
tp1650
bS'null'
p1651
tp1652
Rp1653
sg69
g12
(g13
(S'S9'
p1654
I0
I1
tp1655
Rp1656
(I3
S'|'
p1657
NNNI9
I1
I0
tp1658
bS'pri telke'
p1659
tp1660
Rp1661
sg78
g12
(g13
(S'S4'
p1662
I0
I1
tp1663
Rp1664
(I3
S'|'
p1665
NNNI4
I1
I0
tp1666
bS'null'
p1667
tp1668
Rp1669
sg87
g12
(g13
(S'S1'
p1670
I0
I1
tp1671
Rp1672
(I3
S'|'
p1673
NNNI1
I1
I0
tp1674
bg28
tp1675
Rp1676
sssS'node_dict_factory'
p1677
c__builtin__
dict
p1678
sS'edge_attr_dict_factory'
p1679
g1678
sS'edge'
p1680
(dp1681
g8
(dp1682
g961
(dp1683
sg310
(dp1684
sg1033
(dp1685
sg460
(dp1686
ssg95
(dp1687
g1605
(dp1688
ssg167
(dp1689
g381
(dp1690
sg602
(dp1691
sg1390
(dp1692
sg745
(dp1693
sg817
(dp1694
sg531
(dp1695
ssg238
(dp1696
g460
(dp1697
ssg310
(dp1698
g8
g1684
sg674
(dp1699
ssg381
(dp1700
g167
g1690
ssg460
(dp1701
g8
g1686
sg238
g1697
sg817
(dp1702
sg1605
(dp1703
sg889
(dp1704
ssg531
(dp1705
g167
g1695
ssg602
(dp1706
g167
g1691
ssg674
(dp1707
g310
g1699
sg1462
(dp1708
ssg745
(dp1709
g167
g1693
ssg817
(dp1710
g167
g1694
sV575043
p1711
g1702
ssg889
(dp1712
g1605
(dp1713
sg1711
g1704
ssg961
(dp1714
g8
g1683
ssg1033
(dp1715
g8
g1685
ssg1104
(dp1716
g1605
(dp1717
ssg1176
(dp1718
g1319
(dp1719
ssg1248
(dp1720
g1319
(dp1721
sg1605
(dp1722
sg1534
(dp1723
ssg1319
(dp1724
g1248
g1721
sg1176
g1719
ssg1390
(dp1725
g167
g1692
ssg1462
(dp1726
g674
g1708
ssg1534
(dp1727
g1248
g1723
ssg1605
(dp1728
g1248
g1722
sg95
g1688
sg889
g1713
sg1711
g1703
sg1104
g1717
sssS'graph'
p1729
(dp1730
sS'adjlist_dict_factory'
p1731
g1678
sS'adj'
p1732
g1681
sb.