ccopy_reg
_reconstructor
p0
(cnetworkx.classes.graph
Graph
p1
c__builtin__
object
p2
Ntp3
Rp4
(dp5
S'node'
p6
(dp7
V228057
p8
(dp9
S'is_target'
p10
I0
sS'language'
p11
cnumpy.core.multiarray
scalar
p12
(cnumpy
dtype
p13
(S'S17'
p14
I0
I1
tp15
Rp16
(I3
S'|'
p17
NNNI17
I1
I0
tp18
bS'anglicky  , rusky'
p19
tp20
Rp21
sS'gender'
p22
g12
(g13
(S'S1'
p23
I0
I1
tp24
Rp25
(I3
S'|'
p26
NNNI1
I1
I0
tp27
bS'1'
p28
tp29
Rp30
sS'region'
p31
g12
(g13
(S'S24'
p32
I0
I1
tp33
Rp34
(I3
S'|'
p35
NNNI24
I1
I0
tp36
bS'zilinsky kraj, namestovo'
p37
tp38
Rp39
sS'hobbies'
p40
g12
(g13
(S'S146'
p41
I0
I1
tp42
Rp43
(I3
S'|'
p44
NNNI146
I1
I0
tp45
bS'dat si veceru, ist sa opit do baru, tam nechat sekeru. potom sa tulat do ulic a spravit nieco blaznive, alebo sa pritulit a spravit nieco vasnive.'
p46
tp47
Rp48
sS'is_start'
p49
I0
sS'public_rand'
p50
I1
sS'age'
p51
g12
(g13
(S'S1'
p52
I0
I1
tp53
Rp54
(I3
S'|'
p55
NNNI1
I1
I0
tp56
bS'0'
p57
tp58
Rp59
sS'comp_edu'
p60
g12
(g13
(S'S8'
p61
I0
I1
tp62
Rp63
(I3
S'|'
p64
NNNI8
I1
I0
tp65
bS'zakladne'
p66
tp67
Rp68
sS'pets'
p69
g12
(g13
(S'S25'
p70
I0
I1
tp71
Rp72
(I3
S'|'
p73
NNNI25
I1
I0
tp74
bS'pri svieckach s partnerom'
p75
tp76
Rp77
sS'edu'
p78
g12
(g13
(S'S4'
p79
I0
I1
tp80
Rp81
(I3
S'|'
p82
NNNI4
I1
I0
tp83
bS'null'
p84
tp85
Rp86
sS'public'
p87
g12
(g13
(S'S1'
p88
I0
I1
tp89
Rp90
(I3
S'|'
p91
NNNI1
I1
I0
tp92
bg57
tp93
Rp94
ssV526349
p95
(dp96
g10
I0
sg11
g12
(g13
(S'S8'
p97
I0
I1
tp98
Rp99
(I3
S'|'
p100
NNNI8
I1
I0
tp101
bS'anglicky'
p102
tp103
Rp104
sg22
g12
(g13
(S'S1'
p105
I0
I1
tp106
Rp107
(I3
S'|'
p108
NNNI1
I1
I0
tp109
bg28
tp110
Rp111
sg31
g12
(g13
(S'S21'
p112
I0
I1
tp113
Rp114
(I3
S'|'
p115
NNNI21
I1
I0
tp116
bS'kosicky kraj, dobsina'
p117
tp118
Rp119
sg40
g12
(g13
(S'S55'
p120
I0
I1
tp121
Rp122
(I3
S'|'
p123
NNNI55
I1
I0
tp124
bS'sportovanie, surfovanie po webe, pozeranie filmov, kino'
p125
tp126
Rp127
sg49
I0
sg50
I0
sg51
g12
(g13
(S'S2'
p128
I0
I1
tp129
Rp130
(I3
S'|'
p131
NNNI2
I1
I0
tp132
bS'22'
p133
tp134
Rp135
sg60
g12
(g13
(S'S4'
p136
I0
I1
tp137
Rp138
(I3
S'|'
p139
NNNI4
I1
I0
tp140
bS'null'
p141
tp142
Rp143
sg69
g12
(g13
(S'S4'
p144
I0
I1
tp145
Rp146
(I3
S'|'
p147
NNNI4
I1
I0
tp148
bS'null'
p149
tp150
Rp151
sg78
g12
(g13
(S'S4'
p152
I0
I1
tp153
Rp154
(I3
S'|'
p155
NNNI4
I1
I0
tp156
bS'null'
p157
tp158
Rp159
sg87
g12
(g13
(S'S1'
p160
I0
I1
tp161
Rp162
(I3
S'|'
p163
NNNI1
I1
I0
tp164
bg57
tp165
Rp166
ssV490345
p167
(dp168
g10
I0
sg11
g12
(g13
(S'S6'
p169
I0
I1
tp170
Rp171
(I3
S'|'
p172
NNNI6
I1
I0
tp173
bS'angol.'
p174
tp175
Rp176
sg22
g12
(g13
(S'S1'
p177
I0
I1
tp178
Rp179
(I3
S'|'
p180
NNNI1
I1
I0
tp181
bg57
tp182
Rp183
sg31
g12
(g13
(S'S30'
p184
I0
I1
tp185
Rp186
(I3
S'|'
p187
NNNI30
I1
I0
tp188
bS'kosicky kraj, kralovsky chlmec'
p189
tp190
Rp191
sg40
g12
(g13
(S'S55'
p192
I0
I1
tp193
Rp194
(I3
S'|'
p195
NNNI55
I1
I0
tp196
bS'kupalisko, spanie, varenie, pocuvanie hudby, praca s pc'
p197
tp198
Rp199
sg49
I0
sg50
I1
sg51
g12
(g13
(S'S2'
p200
I0
I1
tp201
Rp202
(I3
S'|'
p203
NNNI2
I1
I0
tp204
bS'22'
p205
tp206
Rp207
sg60
g12
(g13
(S'S8'
p208
I0
I1
tp209
Rp210
(I3
S'|'
p211
NNNI8
I1
I0
tp212
bS'zakladne'
p213
tp214
Rp215
sg69
g12
(g13
(S'S47'
p216
I0
I1
tp217
Rp218
(I3
S'|'
p219
NNNI47
I1
I0
tp220
bS'pri svieckach s partnerom, v dobrej restauracii'
p221
tp222
Rp223
sg78
g12
(g13
(S'S4'
p224
I0
I1
tp225
Rp226
(I3
S'|'
p227
NNNI4
I1
I0
tp228
bS'null'
p229
tp230
Rp231
sg87
g12
(g13
(S'S1'
p232
I0
I1
tp233
Rp234
(I3
S'|'
p235
NNNI1
I1
I0
tp236
bg28
tp237
Rp238
ssV178901
p239
(dp240
g10
I0
sg11
g12
(g13
(S'S4'
p241
I0
I1
tp242
Rp243
(I3
S'|'
p244
NNNI4
I1
I0
tp245
bS'null'
p246
tp247
Rp248
sg22
g12
(g13
(S'S1'
p249
I0
I1
tp250
Rp251
(I3
S'|'
p252
NNNI1
I1
I0
tp253
bg28
tp254
Rp255
sg31
g12
(g13
(S'S24'
p256
I0
I1
tp257
Rp258
(I3
S'|'
p259
NNNI24
I1
I0
tp260
bS'zilinsky kraj, namestovo'
p261
tp262
Rp263
sg40
g12
(g13
(S'S4'
p264
I0
I1
tp265
Rp266
(I3
S'|'
p267
NNNI4
I1
I0
tp268
bS'null'
p269
tp270
Rp271
sg49
I0
sg50
I1
sg51
g12
(g13
(S'S1'
p272
I0
I1
tp273
Rp274
(I3
S'|'
p275
NNNI1
I1
I0
tp276
bg57
tp277
Rp278
sg60
g12
(g13
(S'S4'
p279
I0
I1
tp280
Rp281
(I3
S'|'
p282
NNNI4
I1
I0
tp283
bS'null'
p284
tp285
Rp286
sg69
g12
(g13
(S'S4'
p287
I0
I1
tp288
Rp289
(I3
S'|'
p290
NNNI4
I1
I0
tp291
bS'null'
p292
tp293
Rp294
sg78
g12
(g13
(S'S308'
p295
I0
I1
tp296
Rp297
(I3
S'|'
p298
NNNI308
I1
I0
tp299
bS'<div> <a title="vstup do klubu" href="/klub/zrps-zajtra-rano-podpalime-skolu-nech-nikdy-neni-skola">zrps-zajtr&shy;a rano podpalime skolu               nech nikdy neni skola :((((</a> &bull;  <a title="vstup do klubu" href="/klub/milujem-skolu-nenavidim-ucenie">milujem  skolu nenavidim ucenie !!!</a> </div>'
p300
tp301
Rp302
sg87
g12
(g13
(S'S1'
p303
I0
I1
tp304
Rp305
(I3
S'|'
p306
NNNI1
I1
I0
tp307
bg57
tp308
Rp309
ssV377223
p310
(dp311
g10
I0
sg11
g12
(g13
(S'S57'
p312
I0
I1
tp313
Rp314
(I3
S'|'
p315
NNNI57
I1
I0
tp316
bS'anglicky, spanielsky, madarsky,latinsky,slovensky,nemecky'
p317
tp318
Rp319
sg22
g12
(g13
(S'S1'
p320
I0
I1
tp321
Rp322
(I3
S'|'
p323
NNNI1
I1
I0
tp324
bg57
tp325
Rp326
sg31
g12
(g13
(S'S27'
p327
I0
I1
tp328
Rp329
(I3
S'|'
p330
NNNI27
I1
I0
tp331
bS'nitriansky kraj, zeliezovce'
p332
tp333
Rp334
sg40
g12
(g13
(S'S106'
p335
I0
I1
tp336
Rp337
(I3
S'|'
p338
NNNI106
I1
I0
tp339
bS'sportovanie, cestovanie, praca s pc, pocuvanie hudby, tancovanie, kupalisko, party, priatelia, nakupovanie'
p340
tp341
Rp342
sg49
I0
sg50
I1
sg51
g12
(g13
(S'S2'
p343
I0
I1
tp344
Rp345
(I3
S'|'
p346
NNNI2
I1
I0
tp347
bS'17'
p348
tp349
Rp350
sg60
g12
(g13
(S'S8'
p351
I0
I1
tp352
Rp353
(I3
S'|'
p354
NNNI8
I1
I0
tp355
bS'zakladne'
p356
tp357
Rp358
sg69
g12
(g13
(S'S25'
p359
I0
I1
tp360
Rp361
(I3
S'|'
p362
NNNI25
I1
I0
tp363
bS'pri svieckach s partnerom'
p364
tp365
Rp366
sg78
g12
(g13
(S'S4'
p367
I0
I1
tp368
Rp369
(I3
S'|'
p370
NNNI4
I1
I0
tp371
bS'null'
p372
tp373
Rp374
sg87
g12
(g13
(S'S1'
p375
I0
I1
tp376
Rp377
(I3
S'|'
p378
NNNI1
I1
I0
tp379
bg28
tp380
Rp381
ssg12
(g13
(S'U5'
p382
I0
I1
tp383
Rp384
(I3
S'<'
p385
NNNI20
I4
I8
tp386
bS'5\x00\x00\x007\x00\x00\x009\x00\x00\x004\x00\x00\x000\x00\x00\x00'
p387
tp388
Rp389
(dp390
g10
I0
sg11
g12
(g13
(S'S29'
p391
I0
I1
tp392
Rp393
(I3
S'|'
p394
NNNI29
I1
I0
tp395
bS'anglicky a trosku po madarsky'
p396
tp397
Rp398
sg22
g12
(g13
(S'S1'
p399
I0
I1
tp400
Rp401
(I3
S'|'
p402
NNNI1
I1
I0
tp403
bg57
tp404
Rp405
sg31
g12
(g13
(S'S22'
p406
I0
I1
tp407
Rp408
(I3
S'|'
p409
NNNI22
I1
I0
tp410
bS'kosicky kraj, trebisov'
p411
tp412
Rp413
sg40
g12
(g13
(S'S188'
p414
I0
I1
tp415
Rp416
(I3
S'|'
p417
NNNI188
I1
I0
tp418
bS'sportovanie, pc hry, citanie, kupalisko, stanovanie, malovanie, pocuvanie hudby, praca s pc, divadlo, cestovanie, prace okolo domu, pozeranie filmov, tancovanie, turistika, prace v zahrade'
p419
tp420
Rp421
sg49
I1
sg50
I1
sg51
g12
(g13
(S'S2'
p422
I0
I1
tp423
Rp424
(I3
S'|'
p425
NNNI2
I1
I0
tp426
bS'11'
p427
tp428
Rp429
sg60
g12
(g13
(S'S8'
p430
I0
I1
tp431
Rp432
(I3
S'|'
p433
NNNI8
I1
I0
tp434
bS'zakladne'
p435
tp436
Rp437
sg69
g12
(g13
(S'S31'
p438
I0
I1
tp439
Rp440
(I3
S'|'
p441
NNNI31
I1
I0
tp442
bS'pri telke, v dobrej restauracii'
p443
tp444
Rp445
sg78
g12
(g13
(S'S4'
p446
I0
I1
tp447
Rp448
(I3
S'|'
p449
NNNI4
I1
I0
tp450
bS'null'
p451
tp452
Rp453
sg87
g12
(g13
(S'S1'
p454
I0
I1
tp455
Rp456
(I3
S'|'
p457
NNNI1
I1
I0
tp458
bg57
tp459
Rp460
ssV89371
p461
(dp462
g10
I0
sg11
g12
(g13
(S'S73'
p463
I0
I1
tp464
Rp465
(I3
S'|'
p466
NNNI73
I1
I0
tp467
bS'fuu najlepsie anglicky ...trosku rusky ,nemecky a samozrejme slovensky :d'
p468
tp469
Rp470
sg22
g12
(g13
(S'S1'
p471
I0
I1
tp472
Rp473
(I3
S'|'
p474
NNNI1
I1
I0
tp475
bg57
tp476
Rp477
sg31
g12
(g13
(S'S37'
p478
I0
I1
tp479
Rp480
(I3
S'|'
p481
NNNI37
I1
I0
tp482
bS'banskobystricky kraj, banska bystrica'
p483
tp484
Rp485
sg40
g12
(g13
(S'S66'
p486
I0
I1
tp487
Rp488
(I3
S'|'
p489
NNNI66
I1
I0
tp490
bS'tancovanie, chovatelstvo, party, nakupovanie, pocuvanie hudby,spev'
p491
tp492
Rp493
sg49
I0
sg50
I0
sg51
g12
(g13
(S'S1'
p494
I0
I1
tp495
Rp496
(I3
S'|'
p497
NNNI1
I1
I0
tp498
bg57
tp499
Rp500
sg60
g12
(g13
(S'S4'
p501
I0
I1
tp502
Rp503
(I3
S'|'
p504
NNNI4
I1
I0
tp505
bS'null'
p506
tp507
Rp508
sg69
g12
(g13
(S'S19'
p509
I0
I1
tp510
Rp511
(I3
S'|'
p512
NNNI19
I1
I0
tp513
bS'v kuchyni pri stole'
p514
tp515
Rp516
sg78
g12
(g13
(S'S570'
p517
I0
I1
tp518
Rp519
(I3
S'|'
p520
NNNI570
I1
I0
tp521
bS'<div> <a title="vstup do klubu" href="/klub/pre-kamosku">pre kamosku :)</a> &bull;  <a title="vstup do klubu" href="/klub/gympl-film-tomas-vorel-jr-a-jiri-madl-ily">gympl - film :-*  tomas vorel jr.  a  jiri madl  ..ily!</a> &bull;  <a title="vstup do klubu" href="/klub/vs-tc1-sm3-p-knyy">vs\xe2\x82\xactc1 sm3 p\xe2\x82\xacknyy</a> &bull;  <a title="vstup do klubu" href="/klub/0n-0f-th-b-st">?! 0n\xe2\x82\xac 0f th\xe2\x82\xac b\xe2\x82\xacst ?!</a> &bull;  <a title="vstup do klubu" href="/klub/neznassam-ustne-vody-kde-je-nypisane-no-alcohol">neznassam ustne vody kde je nypisane ,,no alcohol&quot;</a> </div>'
p522
tp523
Rp524
sg87
g12
(g13
(S'S1'
p525
I0
I1
tp526
Rp527
(I3
S'|'
p528
NNNI1
I1
I0
tp529
bg28
tp530
Rp531
ssV300871
p532
(dp533
g10
I0
sg11
g12
(g13
(S'S27'
p534
I0
I1
tp535
Rp536
(I3
S'|'
p537
NNNI27
I1
I0
tp538
bS'slovensky, anglicky, polsky'
p539
tp540
Rp541
sg22
g12
(g13
(S'S1'
p542
I0
I1
tp543
Rp544
(I3
S'|'
p545
NNNI1
I1
I0
tp546
bg28
tp547
Rp548
sg31
g12
(g13
(S'S22'
p549
I0
I1
tp550
Rp551
(I3
S'|'
p552
NNNI22
I1
I0
tp553
bS'zilinsky kraj, trstena'
p554
tp555
Rp556
sg40
g12
(g13
(S'S55'
p557
I0
I1
tp558
Rp559
(I3
S'|'
p560
NNNI55
I1
I0
tp561
bS'pc hry, priatelia,, sportovanie,, diskoteky,, malovanie'
p562
tp563
Rp564
sg49
I0
sg50
I1
sg51
g12
(g13
(S'S1'
p565
I0
I1
tp566
Rp567
(I3
S'|'
p568
NNNI1
I1
I0
tp569
bg57
tp570
Rp571
sg60
g12
(g13
(S'S4'
p572
I0
I1
tp573
Rp574
(I3
S'|'
p575
NNNI4
I1
I0
tp576
bS'ziak'
p577
tp578
Rp579
sg69
g12
(g13
(S'S19'
p580
I0
I1
tp581
Rp582
(I3
S'|'
p583
NNNI19
I1
I0
tp584
bS'v kuchyni pri stole'
p585
tp586
Rp587
sg78
g12
(g13
(S'S4'
p588
I0
I1
tp589
Rp590
(I3
S'|'
p591
NNNI4
I1
I0
tp592
bS'null'
p593
tp594
Rp595
sg87
g12
(g13
(S'S1'
p596
I0
I1
tp597
Rp598
(I3
S'|'
p599
NNNI1
I1
I0
tp600
bg28
tp601
Rp602
ssV90686
p603
(dp604
g10
I0
sg11
g12
(g13
(S'S4'
p605
I0
I1
tp606
Rp607
(I3
S'|'
p608
NNNI4
I1
I0
tp609
bS'null'
p610
tp611
Rp612
sg22
g12
(g13
(S'S1'
p613
I0
I1
tp614
Rp615
(I3
S'|'
p616
NNNI1
I1
I0
tp617
bg57
tp618
Rp619
sg31
g12
(g13
(S'S22'
p620
I0
I1
tp621
Rp622
(I3
S'|'
p623
NNNI22
I1
I0
tp624
bS'nitriansky kraj, nitra'
p625
tp626
Rp627
sg40
g12
(g13
(S'S4'
p628
I0
I1
tp629
Rp630
(I3
S'|'
p631
NNNI4
I1
I0
tp632
bS'null'
p633
tp634
Rp635
sg49
I0
sg50
I1
sg51
g12
(g13
(S'S1'
p636
I0
I1
tp637
Rp638
(I3
S'|'
p639
NNNI1
I1
I0
tp640
bg57
tp641
Rp642
sg60
g12
(g13
(S'S4'
p643
I0
I1
tp644
Rp645
(I3
S'|'
p646
NNNI4
I1
I0
tp647
bS'null'
p648
tp649
Rp650
sg69
g12
(g13
(S'S4'
p651
I0
I1
tp652
Rp653
(I3
S'|'
p654
NNNI4
I1
I0
tp655
bS'null'
p656
tp657
Rp658
sg78
g12
(g13
(S'S4'
p659
I0
I1
tp660
Rp661
(I3
S'|'
p662
NNNI4
I1
I0
tp663
bS'null'
p664
tp665
Rp666
sg87
g12
(g13
(S'S1'
p667
I0
I1
tp668
Rp669
(I3
S'|'
p670
NNNI1
I1
I0
tp671
bg28
tp672
Rp673
ssV425878
p674
(dp675
g10
I0
sg11
g12
(g13
(S'S7'
p676
I0
I1
tp677
Rp678
(I3
S'|'
p679
NNNI7
I1
I0
tp680
bS'nemecky'
p681
tp682
Rp683
sg22
g12
(g13
(S'S1'
p684
I0
I1
tp685
Rp686
(I3
S'|'
p687
NNNI1
I1
I0
tp688
bg28
tp689
Rp690
sg31
g12
(g13
(S'S22'
p691
I0
I1
tp692
Rp693
(I3
S'|'
p694
NNNI22
I1
I0
tp695
bS'zilinsky kraj, trstena'
p696
tp697
Rp698
sg40
g12
(g13
(S'S53'
p699
I0
I1
tp700
Rp701
(I3
S'|'
p702
NNNI53
I1
I0
tp703
bS'turistika, prace okolo domu, pc hry, pozeranie filmov'
p704
tp705
Rp706
sg49
I0
sg50
I0
sg51
g12
(g13
(S'S2'
p707
I0
I1
tp708
Rp709
(I3
S'|'
p710
NNNI2
I1
I0
tp711
bS'15'
p712
tp713
Rp714
sg60
g12
(g13
(S'S4'
p715
I0
I1
tp716
Rp717
(I3
S'|'
p718
NNNI4
I1
I0
tp719
bS'null'
p720
tp721
Rp722
sg69
g12
(g13
(S'S42'
p723
I0
I1
tp724
Rp725
(I3
S'|'
p726
NNNI42
I1
I0
tp727
bS'pri telke, v dobrej restauracii, v posteli'
p728
tp729
Rp730
sg78
g12
(g13
(S'S4'
p731
I0
I1
tp732
Rp733
(I3
S'|'
p734
NNNI4
I1
I0
tp735
bS'null'
p736
tp737
Rp738
sg87
g12
(g13
(S'S1'
p739
I0
I1
tp740
Rp741
(I3
S'|'
p742
NNNI1
I1
I0
tp743
bg28
tp744
Rp745
ssV11545
p746
(dp747
g10
I0
sg11
g12
(g13
(S'S4'
p748
I0
I1
tp749
Rp750
(I3
S'|'
p751
NNNI4
I1
I0
tp752
bS'null'
p753
tp754
Rp755
sg22
g12
(g13
(S'S1'
p756
I0
I1
tp757
Rp758
(I3
S'|'
p759
NNNI1
I1
I0
tp760
bg57
tp761
Rp762
sg31
g12
(g13
(S'S21'
p763
I0
I1
tp764
Rp765
(I3
S'|'
p766
NNNI21
I1
I0
tp767
bS'zilinsky kraj, zilina'
p768
tp769
Rp770
sg40
g12
(g13
(S'S4'
p771
I0
I1
tp772
Rp773
(I3
S'|'
p774
NNNI4
I1
I0
tp775
bS'null'
p776
tp777
Rp778
sg49
I0
sg50
I0
sg51
g12
(g13
(S'S1'
p779
I0
I1
tp780
Rp781
(I3
S'|'
p782
NNNI1
I1
I0
tp783
bg57
tp784
Rp785
sg60
g12
(g13
(S'S4'
p786
I0
I1
tp787
Rp788
(I3
S'|'
p789
NNNI4
I1
I0
tp790
bS'null'
p791
tp792
Rp793
sg69
g12
(g13
(S'S4'
p794
I0
I1
tp795
Rp796
(I3
S'|'
p797
NNNI4
I1
I0
tp798
bS'null'
p799
tp800
Rp801
sg78
g12
(g13
(S'S4'
p802
I0
I1
tp803
Rp804
(I3
S'|'
p805
NNNI4
I1
I0
tp806
bS'null'
p807
tp808
Rp809
sg87
g12
(g13
(S'S1'
p810
I0
I1
tp811
Rp812
(I3
S'|'
p813
NNNI1
I1
I0
tp814
bg28
tp815
Rp816
ssV425876
p817
(dp818
g10
I0
sg11
g12
(g13
(S'S25'
p819
I0
I1
tp820
Rp821
(I3
S'|'
p822
NNNI25
I1
I0
tp823
bS'ucim sa anglicky, nemecky'
p824
tp825
Rp826
sg22
g12
(g13
(S'S1'
p827
I0
I1
tp828
Rp829
(I3
S'|'
p830
NNNI1
I1
I0
tp831
bg57
tp832
Rp833
sg31
g12
(g13
(S'S22'
p834
I0
I1
tp835
Rp836
(I3
S'|'
p837
NNNI22
I1
I0
tp838
bS'zilinsky kraj, trstena'
p839
tp840
Rp841
sg40
g12
(g13
(S'S109'
p842
I0
I1
tp843
Rp844
(I3
S'|'
p845
NNNI109
I1
I0
tp846
bS'cestovanie, surfovanie po webe, pocuvanie hudby, pozeranie filmov, tancovanie, priatelia, spanie, nakupovanie'
p847
tp848
Rp849
sg49
I0
sg50
I0
sg51
g12
(g13
(S'S2'
p850
I0
I1
tp851
Rp852
(I3
S'|'
p853
NNNI2
I1
I0
tp854
bS'17'
p855
tp856
Rp857
sg60
g12
(g13
(S'S8'
p858
I0
I1
tp859
Rp860
(I3
S'|'
p861
NNNI8
I1
I0
tp862
bS'zakladne'
p863
tp864
Rp865
sg69
g12
(g13
(S'S58'
p866
I0
I1
tp867
Rp868
(I3
S'|'
p869
NNNI58
I1
I0
tp870
bS'pri telke, pri svieckach s partnerom, v dobrej restauracii'
p871
tp872
Rp873
sg78
g12
(g13
(S'S384'
p874
I0
I1
tp875
Rp876
(I3
S'|'
p877
NNNI384
I1
I0
tp878
bS'<div> <a title="vstup do klubu" href="/klub/prazdniny-sa-pomaly-ale-isto-koncia">prazdniny sa pomaly ale isto koncia :(</a> &bull;  <a title="vstup do klubu" href="/klub/co-cumis-saaq-sa-pridaj-dd">co cumis ?? saaq sa pridaj =dd</a> &bull;  <a title="vstup do klubu" href="/klub/skola-nieje-krcma-aby-si-tam-chodil-kazdy-den-1">skola nieje krcma aby si tam chodil kazdy den</a> </div>'
p879
tp880
Rp881
sg87
g12
(g13
(S'S1'
p882
I0
I1
tp883
Rp884
(I3
S'|'
p885
NNNI1
I1
I0
tp886
bg57
tp887
Rp888
ssV425874
p889
(dp890
g10
I0
sg11
g12
(g13
(S'S4'
p891
I0
I1
tp892
Rp893
(I3
S'|'
p894
NNNI4
I1
I0
tp895
bS'null'
p896
tp897
Rp898
sg22
g12
(g13
(S'S1'
p899
I0
I1
tp900
Rp901
(I3
S'|'
p902
NNNI1
I1
I0
tp903
bg57
tp904
Rp905
sg31
g12
(g13
(S'S22'
p906
I0
I1
tp907
Rp908
(I3
S'|'
p909
NNNI22
I1
I0
tp910
bS'zilinsky kraj, trstena'
p911
tp912
Rp913
sg40
g12
(g13
(S'S4'
p914
I0
I1
tp915
Rp916
(I3
S'|'
p917
NNNI4
I1
I0
tp918
bS'null'
p919
tp920
Rp921
sg49
I0
sg50
I1
sg51
g12
(g13
(S'S2'
p922
I0
I1
tp923
Rp924
(I3
S'|'
p925
NNNI2
I1
I0
tp926
bS'17'
p927
tp928
Rp929
sg60
g12
(g13
(S'S4'
p930
I0
I1
tp931
Rp932
(I3
S'|'
p933
NNNI4
I1
I0
tp934
bS'null'
p935
tp936
Rp937
sg69
g12
(g13
(S'S4'
p938
I0
I1
tp939
Rp940
(I3
S'|'
p941
NNNI4
I1
I0
tp942
bS'null'
p943
tp944
Rp945
sg78
g12
(g13
(S'S4'
p946
I0
I1
tp947
Rp948
(I3
S'|'
p949
NNNI4
I1
I0
tp950
bS'null'
p951
tp952
Rp953
sg87
g12
(g13
(S'S1'
p954
I0
I1
tp955
Rp956
(I3
S'|'
p957
NNNI1
I1
I0
tp958
bg57
tp959
Rp960
ssV425875
p961
(dp962
g10
I0
sg11
g12
(g13
(S'S4'
p963
I0
I1
tp964
Rp965
(I3
S'|'
p966
NNNI4
I1
I0
tp967
bS'null'
p968
tp969
Rp970
sg22
g12
(g13
(S'S1'
p971
I0
I1
tp972
Rp973
(I3
S'|'
p974
NNNI1
I1
I0
tp975
bg57
tp976
Rp977
sg31
g12
(g13
(S'S22'
p978
I0
I1
tp979
Rp980
(I3
S'|'
p981
NNNI22
I1
I0
tp982
bS'zilinsky kraj, trstena'
p983
tp984
Rp985
sg40
g12
(g13
(S'S4'
p986
I0
I1
tp987
Rp988
(I3
S'|'
p989
NNNI4
I1
I0
tp990
bS'null'
p991
tp992
Rp993
sg49
I0
sg50
I1
sg51
g12
(g13
(S'S1'
p994
I0
I1
tp995
Rp996
(I3
S'|'
p997
NNNI1
I1
I0
tp998
bg57
tp999
Rp1000
sg60
g12
(g13
(S'S4'
p1001
I0
I1
tp1002
Rp1003
(I3
S'|'
p1004
NNNI4
I1
I0
tp1005
bS'null'
p1006
tp1007
Rp1008
sg69
g12
(g13
(S'S4'
p1009
I0
I1
tp1010
Rp1011
(I3
S'|'
p1012
NNNI4
I1
I0
tp1013
bS'null'
p1014
tp1015
Rp1016
sg78
g12
(g13
(S'S4'
p1017
I0
I1
tp1018
Rp1019
(I3
S'|'
p1020
NNNI4
I1
I0
tp1021
bS'null'
p1022
tp1023
Rp1024
sg87
g12
(g13
(S'S1'
p1025
I0
I1
tp1026
Rp1027
(I3
S'|'
p1028
NNNI1
I1
I0
tp1029
bg57
tp1030
Rp1031
ssV425870
p1032
(dp1033
g10
I0
sg11
g12
(g13
(S'S27'
p1034
I0
I1
tp1035
Rp1036
(I3
S'|'
p1037
NNNI27
I1
I0
tp1038
bS'nemecky, a trosku  anglicky'
p1039
tp1040
Rp1041
sg22
g12
(g13
(S'S1'
p1042
I0
I1
tp1043
Rp1044
(I3
S'|'
p1045
NNNI1
I1
I0
tp1046
bg57
tp1047
Rp1048
sg31
g12
(g13
(S'S22'
p1049
I0
I1
tp1050
Rp1051
(I3
S'|'
p1052
NNNI22
I1
I0
tp1053
bS'zilinsky kraj, trstena'
p1054
tp1055
Rp1056
sg40
g12
(g13
(S'S48'
p1057
I0
I1
tp1058
Rp1059
(I3
S'|'
p1060
NNNI48
I1
I0
tp1061
bS'priatelia, pocuvanie hudby, kupalisko, diskoteky'
p1062
tp1063
Rp1064
sg49
I0
sg50
I1
sg51
g12
(g13
(S'S1'
p1065
I0
I1
tp1066
Rp1067
(I3
S'|'
p1068
NNNI1
I1
I0
tp1069
bg57
tp1070
Rp1071
sg60
g12
(g13
(S'S8'
p1072
I0
I1
tp1073
Rp1074
(I3
S'|'
p1075
NNNI8
I1
I0
tp1076
bS'zakladne'
p1077
tp1078
Rp1079
sg69
g12
(g13
(S'S52'
p1080
I0
I1
tp1081
Rp1082
(I3
S'|'
p1083
NNNI52
I1
I0
tp1084
bS'v dobrej restauracii, pri telke, v kuchyni pri stole'
p1085
tp1086
Rp1087
sg78
g12
(g13
(S'S4'
p1088
I0
I1
tp1089
Rp1090
(I3
S'|'
p1091
NNNI4
I1
I0
tp1092
bS'null'
p1093
tp1094
Rp1095
sg87
g12
(g13
(S'S1'
p1096
I0
I1
tp1097
Rp1098
(I3
S'|'
p1099
NNNI1
I1
I0
tp1100
bg57
tp1101
Rp1102
ssV425871
p1103
(dp1104
g10
I0
sg11
g12
(g13
(S'S65'
p1105
I0
I1
tp1106
Rp1107
(I3
S'|'
p1108
NNNI65
I1
I0
tp1109
bS'nemecky iba cez sk. rok:d:d, vitanovsky no a ten nas slovensky:o)'
p1110
tp1111
Rp1112
sg22
g12
(g13
(S'S1'
p1113
I0
I1
tp1114
Rp1115
(I3
S'|'
p1116
NNNI1
I1
I0
tp1117
bg57
tp1118
Rp1119
sg31
g12
(g13
(S'S22'
p1120
I0
I1
tp1121
Rp1122
(I3
S'|'
p1123
NNNI22
I1
I0
tp1124
bS'zilinsky kraj, trstena'
p1125
tp1126
Rp1127
sg40
g12
(g13
(S'S129'
p1128
I0
I1
tp1129
Rp1130
(I3
S'|'
p1131
NNNI129
I1
I0
tp1132
bS'sportovanie, cestovanie, pocuvanie hudby, pozeranie filmov, tancovanie, diskoteky, kupalisko, kino, party, priatelia, nakupovanie'
p1133
tp1134
Rp1135
sg49
I0
sg50
I1
sg51
g12
(g13
(S'S1'
p1136
I0
I1
tp1137
Rp1138
(I3
S'|'
p1139
NNNI1
I1
I0
tp1140
bg57
tp1141
Rp1142
sg60
g12
(g13
(S'S4'
p1143
I0
I1
tp1144
Rp1145
(I3
S'|'
p1146
NNNI4
I1
I0
tp1147
bS'null'
p1148
tp1149
Rp1150
sg69
g12
(g13
(S'S52'
p1151
I0
I1
tp1152
Rp1153
(I3
S'|'
p1154
NNNI52
I1
I0
tp1155
bS'v kuchyni pri stole, pri telke, v dobrej restauracii'
p1156
tp1157
Rp1158
sg78
g12
(g13
(S'S113'
p1159
I0
I1
tp1160
Rp1161
(I3
S'|'
p1162
NNNI113
I1
I0
tp1163
bS'<div> <a title="vstup do klubu" href="/klub/co-cumis-saaq-sa-pridaj-dd">co cumis ?? saaq sa pridaj =dd</a> </div>'
p1164
tp1165
Rp1166
sg87
g12
(g13
(S'S1'
p1167
I0
I1
tp1168
Rp1169
(I3
S'|'
p1170
NNNI1
I1
I0
tp1171
bg28
tp1172
Rp1173
ssV170132
p1174
(dp1175
g10
I0
sg11
g12
(g13
(S'S4'
p1176
I0
I1
tp1177
Rp1178
(I3
S'|'
p1179
NNNI4
I1
I0
tp1180
bS'null'
p1181
tp1182
Rp1183
sg22
g12
(g13
(S'S1'
p1184
I0
I1
tp1185
Rp1186
(I3
S'|'
p1187
NNNI1
I1
I0
tp1188
bg28
tp1189
Rp1190
sg31
g12
(g13
(S'S32'
p1191
I0
I1
tp1192
Rp1193
(I3
S'|'
p1194
NNNI32
I1
I0
tp1195
bS'zahranicie, zahranicie - ostatne'
p1196
tp1197
Rp1198
sg40
g12
(g13
(S'S4'
p1199
I0
I1
tp1200
Rp1201
(I3
S'|'
p1202
NNNI4
I1
I0
tp1203
bS'null'
p1204
tp1205
Rp1206
sg49
I0
sg50
I1
sg51
g12
(g13
(S'S1'
p1207
I0
I1
tp1208
Rp1209
(I3
S'|'
p1210
NNNI1
I1
I0
tp1211
bg57
tp1212
Rp1213
sg60
g12
(g13
(S'S4'
p1214
I0
I1
tp1215
Rp1216
(I3
S'|'
p1217
NNNI4
I1
I0
tp1218
bS'null'
p1219
tp1220
Rp1221
sg69
g12
(g13
(S'S4'
p1222
I0
I1
tp1223
Rp1224
(I3
S'|'
p1225
NNNI4
I1
I0
tp1226
bS'null'
p1227
tp1228
Rp1229
sg78
g12
(g13
(S'S4'
p1230
I0
I1
tp1231
Rp1232
(I3
S'|'
p1233
NNNI4
I1
I0
tp1234
bS'null'
p1235
tp1236
Rp1237
sg87
g12
(g13
(S'S1'
p1238
I0
I1
tp1239
Rp1240
(I3
S'|'
p1241
NNNI1
I1
I0
tp1242
bg57
tp1243
Rp1244
ssV255345
p1245
(dp1246
g10
I0
sg11
g12
(g13
(S'S63'
p1247
I0
I1
tp1248
Rp1249
(I3
S'|'
p1250
NNNI63
I1
I0
tp1251
bS'ucim sa anglicky , spanielsky,taliansky,swahilsky,bulharsky :dd'
p1252
tp1253
Rp1254
sg22
g12
(g13
(S'S1'
p1255
I0
I1
tp1256
Rp1257
(I3
S'|'
p1258
NNNI1
I1
I0
tp1259
bg57
tp1260
Rp1261
sg31
g12
(g13
(S'S21'
p1262
I0
I1
tp1263
Rp1264
(I3
S'|'
p1265
NNNI21
I1
I0
tp1266
bS'zilinsky kraj, martin'
p1267
tp1268
Rp1269
sg40
g12
(g13
(S'S130'
p1270
I0
I1
tp1271
Rp1272
(I3
S'|'
p1273
NNNI130
I1
I0
tp1274
bS'sportovanie, cestovanie, turistika, surfovanie po webe, pocuvanie hudby, pozeranie filmov, kupalisko, kino, priatelia, nakupovanie'
p1275
tp1276
Rp1277
sg49
I0
sg50
I1
sg51
g12
(g13
(S'S2'
p1278
I0
I1
tp1279
Rp1280
(I3
S'|'
p1281
NNNI2
I1
I0
tp1282
bS'16'
p1283
tp1284
Rp1285
sg60
g12
(g13
(S'S25'
p1286
I0
I1
tp1287
Rp1288
(I3
S'|'
p1289
NNNI25
I1
I0
tp1290
bS'studujem na gymnaziu-gvpt'
p1291
tp1292
Rp1293
sg69
g12
(g13
(S'S42'
p1294
I0
I1
tp1295
Rp1296
(I3
S'|'
p1297
NNNI42
I1
I0
tp1298
bS'pri telke, v dobrej restauracii, v prirode'
p1299
tp1300
Rp1301
sg78
g12
(g13
(S'S4'
p1302
I0
I1
tp1303
Rp1304
(I3
S'|'
p1305
NNNI4
I1
I0
tp1306
bS'null'
p1307
tp1308
Rp1309
sg87
g12
(g13
(S'S1'
p1310
I0
I1
tp1311
Rp1312
(I3
S'|'
p1313
NNNI1
I1
I0
tp1314
bg28
tp1315
Rp1316
ssV256383
p1317
(dp1318
g10
I0
sg11
g12
(g13
(S'S29'
p1319
I0
I1
tp1320
Rp1321
(I3
S'|'
p1322
NNNI29
I1
I0
tp1323
bS'anglicky, rusky a hlawne swoj'
p1324
tp1325
Rp1326
sg22
g12
(g13
(S'S1'
p1327
I0
I1
tp1328
Rp1329
(I3
S'|'
p1330
NNNI1
I1
I0
tp1331
bg28
tp1332
Rp1333
sg31
g12
(g13
(S'S22'
p1334
I0
I1
tp1335
Rp1336
(I3
S'|'
p1337
NNNI22
I1
I0
tp1338
bS'presovsky kraj, presov'
p1339
tp1340
Rp1341
sg40
g12
(g13
(S'S76'
p1342
I0
I1
tp1343
Rp1344
(I3
S'|'
p1345
NNNI76
I1
I0
tp1346
bS'party, jedlo, sex, priatelia, diskoteky, pocuvanie hudby, surfovanie po webe'
p1347
tp1348
Rp1349
sg49
I0
sg50
I0
sg51
g12
(g13
(S'S1'
p1350
I0
I1
tp1351
Rp1352
(I3
S'|'
p1353
NNNI1
I1
I0
tp1354
bg57
tp1355
Rp1356
sg60
g12
(g13
(S'S27'
p1357
I0
I1
tp1358
Rp1359
(I3
S'|'
p1360
NNNI27
I1
I0
tp1361
bS'stredoskolske sos technicka'
p1362
tp1363
Rp1364
sg69
g12
(g13
(S'S52'
p1365
I0
I1
tp1366
Rp1367
(I3
S'|'
p1368
NNNI52
I1
I0
tp1369
bS'v kuchyni pri stole, pri telke, v dobrej restauracii'
p1370
tp1371
Rp1372
sg78
g12
(g13
(S'S4'
p1373
I0
I1
tp1374
Rp1375
(I3
S'|'
p1376
NNNI4
I1
I0
tp1377
bS'null'
p1378
tp1379
Rp1380
sg87
g12
(g13
(S'S1'
p1381
I0
I1
tp1382
Rp1383
(I3
S'|'
p1384
NNNI1
I1
I0
tp1385
bg57
tp1386
Rp1387
ssV458518
p1388
(dp1389
g10
I0
sg11
g12
(g13
(S'S16'
p1390
I0
I1
tp1391
Rp1392
(I3
S'|'
p1393
NNNI16
I1
I0
tp1394
bS'trochu, anglicky'
p1395
tp1396
Rp1397
sg22
g12
(g13
(S'S1'
p1398
I0
I1
tp1399
Rp1400
(I3
S'|'
p1401
NNNI1
I1
I0
tp1402
bg28
tp1403
Rp1404
sg31
g12
(g13
(S'S22'
p1405
I0
I1
tp1406
Rp1407
(I3
S'|'
p1408
NNNI22
I1
I0
tp1409
bS'zilinsky kraj, trstena'
p1410
tp1411
Rp1412
sg40
g12
(g13
(S'S71'
p1413
I0
I1
tp1414
Rp1415
(I3
S'|'
p1416
NNNI71
I1
I0
tp1417
bS'sportovanie, priatelia, pocuvanie hudby, praca s pc, surfovanie po webe'
p1418
tp1419
Rp1420
sg49
I0
sg50
I1
sg51
g12
(g13
(S'S2'
p1421
I0
I1
tp1422
Rp1423
(I3
S'|'
p1424
NNNI2
I1
I0
tp1425
bS'17'
p1426
tp1427
Rp1428
sg60
g12
(g13
(S'S8'
p1429
I0
I1
tp1430
Rp1431
(I3
S'|'
p1432
NNNI8
I1
I0
tp1433
bS'zakladne'
p1434
tp1435
Rp1436
sg69
g12
(g13
(S'S19'
p1437
I0
I1
tp1438
Rp1439
(I3
S'|'
p1440
NNNI19
I1
I0
tp1441
bS'v kuchyni pri stole'
p1442
tp1443
Rp1444
sg78
g12
(g13
(S'S4'
p1445
I0
I1
tp1446
Rp1447
(I3
S'|'
p1448
NNNI4
I1
I0
tp1449
bS'null'
p1450
tp1451
Rp1452
sg87
g12
(g13
(S'S1'
p1453
I0
I1
tp1454
Rp1455
(I3
S'|'
p1456
NNNI1
I1
I0
tp1457
bg28
tp1458
Rp1459
ssV382705
p1460
(dp1461
g10
I0
sg11
g12
(g13
(S'S4'
p1462
I0
I1
tp1463
Rp1464
(I3
S'|'
p1465
NNNI4
I1
I0
tp1466
bS'null'
p1467
tp1468
Rp1469
sg22
g12
(g13
(S'S1'
p1470
I0
I1
tp1471
Rp1472
(I3
S'|'
p1473
NNNI1
I1
I0
tp1474
bg28
tp1475
Rp1476
sg31
g12
(g13
(S'S39'
p1477
I0
I1
tp1478
Rp1479
(I3
S'|'
p1480
NNNI39
I1
I0
tp1481
bS'bratislavsky kraj, bratislava - ruzinov'
p1482
tp1483
Rp1484
sg40
g12
(g13
(S'S4'
p1485
I0
I1
tp1486
Rp1487
(I3
S'|'
p1488
NNNI4
I1
I0
tp1489
bS'null'
p1490
tp1491
Rp1492
sg49
I0
sg50
I1
sg51
g12
(g13
(S'S2'
p1493
I0
I1
tp1494
Rp1495
(I3
S'|'
p1496
NNNI2
I1
I0
tp1497
bS'16'
p1498
tp1499
Rp1500
sg60
g12
(g13
(S'S4'
p1501
I0
I1
tp1502
Rp1503
(I3
S'|'
p1504
NNNI4
I1
I0
tp1505
bS'null'
p1506
tp1507
Rp1508
sg69
g12
(g13
(S'S4'
p1509
I0
I1
tp1510
Rp1511
(I3
S'|'
p1512
NNNI4
I1
I0
tp1513
bS'null'
p1514
tp1515
Rp1516
sg78
g12
(g13
(S'S4'
p1517
I0
I1
tp1518
Rp1519
(I3
S'|'
p1520
NNNI4
I1
I0
tp1521
bS'null'
p1522
tp1523
Rp1524
sg87
g12
(g13
(S'S1'
p1525
I0
I1
tp1526
Rp1527
(I3
S'|'
p1528
NNNI1
I1
I0
tp1529
bg28
tp1530
Rp1531
ssV411706
p1532
(dp1533
g10
I0
sg11
g12
(g13
(S'S4'
p1534
I0
I1
tp1535
Rp1536
(I3
S'|'
p1537
NNNI4
I1
I0
tp1538
bS'null'
p1539
tp1540
Rp1541
sg22
g12
(g13
(S'S1'
p1542
I0
I1
tp1543
Rp1544
(I3
S'|'
p1545
NNNI1
I1
I0
tp1546
bg28
tp1547
Rp1548
sg31
g12
(g13
(S'S30'
p1549
I0
I1
tp1550
Rp1551
(I3
S'|'
p1552
NNNI30
I1
I0
tp1553
bS'kosicky kraj, kralovsky chlmec'
p1554
tp1555
Rp1556
sg40
g12
(g13
(S'S4'
p1557
I0
I1
tp1558
Rp1559
(I3
S'|'
p1560
NNNI4
I1
I0
tp1561
bS'null'
p1562
tp1563
Rp1564
sg49
I0
sg50
I1
sg51
g12
(g13
(S'S2'
p1565
I0
I1
tp1566
Rp1567
(I3
S'|'
p1568
NNNI2
I1
I0
tp1569
bS'16'
p1570
tp1571
Rp1572
sg60
g12
(g13
(S'S4'
p1573
I0
I1
tp1574
Rp1575
(I3
S'|'
p1576
NNNI4
I1
I0
tp1577
bS'null'
p1578
tp1579
Rp1580
sg69
g12
(g13
(S'S4'
p1581
I0
I1
tp1582
Rp1583
(I3
S'|'
p1584
NNNI4
I1
I0
tp1585
bS'null'
p1586
tp1587
Rp1588
sg78
g12
(g13
(S'S4'
p1589
I0
I1
tp1590
Rp1591
(I3
S'|'
p1592
NNNI4
I1
I0
tp1593
bS'null'
p1594
tp1595
Rp1596
sg87
g12
(g13
(S'S1'
p1597
I0
I1
tp1598
Rp1599
(I3
S'|'
p1600
NNNI1
I1
I0
tp1601
bg28
tp1602
Rp1603
ssV776536
p1604
(dp1605
g10
I0
sg11
g12
(g13
(S'S8'
p1606
I0
I1
tp1607
Rp1608
(I3
S'|'
p1609
NNNI8
I1
I0
tp1610
bS'anglicky'
p1611
tp1612
Rp1613
sg22
g12
(g13
(S'S1'
p1614
I0
I1
tp1615
Rp1616
(I3
S'|'
p1617
NNNI1
I1
I0
tp1618
bg28
tp1619
Rp1620
sg31
g12
(g13
(S'S22'
p1621
I0
I1
tp1622
Rp1623
(I3
S'|'
p1624
NNNI22
I1
I0
tp1625
bS'presovsky kraj, presov'
p1626
tp1627
Rp1628
sg40
g12
(g13
(S'S4'
p1629
I0
I1
tp1630
Rp1631
(I3
S'|'
p1632
NNNI4
I1
I0
tp1633
bS'null'
p1634
tp1635
Rp1636
sg49
I0
sg50
I1
sg51
g12
(g13
(S'S2'
p1637
I0
I1
tp1638
Rp1639
(I3
S'|'
p1640
NNNI2
I1
I0
tp1641
bS'12'
p1642
tp1643
Rp1644
sg60
g12
(g13
(S'S8'
p1645
I0
I1
tp1646
Rp1647
(I3
S'|'
p1648
NNNI8
I1
I0
tp1649
bS'zakladne'
p1650
tp1651
Rp1652
sg69
g12
(g13
(S'S4'
p1653
I0
I1
tp1654
Rp1655
(I3
S'|'
p1656
NNNI4
I1
I0
tp1657
bS'null'
p1658
tp1659
Rp1660
sg78
g12
(g13
(S'S4'
p1661
I0
I1
tp1662
Rp1663
(I3
S'|'
p1664
NNNI4
I1
I0
tp1665
bS'null'
p1666
tp1667
Rp1668
sg87
g12
(g13
(S'S1'
p1669
I0
I1
tp1670
Rp1671
(I3
S'|'
p1672
NNNI1
I1
I0
tp1673
bg28
tp1674
Rp1675
ssV627320
p1676
(dp1677
g10
I0
sg11
g12
(g13
(S'S4'
p1678
I0
I1
tp1679
Rp1680
(I3
S'|'
p1681
NNNI4
I1
I0
tp1682
bS'null'
p1683
tp1684
Rp1685
sg22
g12
(g13
(S'S1'
p1686
I0
I1
tp1687
Rp1688
(I3
S'|'
p1689
NNNI1
I1
I0
tp1690
bg57
tp1691
Rp1692
sg31
g12
(g13
(S'S32'
p1693
I0
I1
tp1694
Rp1695
(I3
S'|'
p1696
NNNI32
I1
I0
tp1697
bS'zahranicie, zahranicie - ostatne'
p1698
tp1699
Rp1700
sg40
g12
(g13
(S'S4'
p1701
I0
I1
tp1702
Rp1703
(I3
S'|'
p1704
NNNI4
I1
I0
tp1705
bS'null'
p1706
tp1707
Rp1708
sg49
I0
sg50
I1
sg51
g12
(g13
(S'S1'
p1709
I0
I1
tp1710
Rp1711
(I3
S'|'
p1712
NNNI1
I1
I0
tp1713
bg57
tp1714
Rp1715
sg60
g12
(g13
(S'S4'
p1716
I0
I1
tp1717
Rp1718
(I3
S'|'
p1719
NNNI4
I1
I0
tp1720
bS'null'
p1721
tp1722
Rp1723
sg69
g12
(g13
(S'S4'
p1724
I0
I1
tp1725
Rp1726
(I3
S'|'
p1727
NNNI4
I1
I0
tp1728
bS'null'
p1729
tp1730
Rp1731
sg78
g12
(g13
(S'S4'
p1732
I0
I1
tp1733
Rp1734
(I3
S'|'
p1735
NNNI4
I1
I0
tp1736
bS'null'
p1737
tp1738
Rp1739
sg87
g12
(g13
(S'S1'
p1740
I0
I1
tp1741
Rp1742
(I3
S'|'
p1743
NNNI1
I1
I0
tp1744
bg57
tp1745
Rp1746
ssV103540
p1747
(dp1748
g10
I0
sg11
g12
(g13
(S'S4'
p1749
I0
I1
tp1750
Rp1751
(I3
S'|'
p1752
NNNI4
I1
I0
tp1753
bS'null'
p1754
tp1755
Rp1756
sg22
g12
(g13
(S'S1'
p1757
I0
I1
tp1758
Rp1759
(I3
S'|'
p1760
NNNI1
I1
I0
tp1761
bg57
tp1762
Rp1763
sg31
g12
(g13
(S'S21'
p1764
I0
I1
tp1765
Rp1766
(I3
S'|'
p1767
NNNI21
I1
I0
tp1768
bS'trnavsky kraj, trnava'
p1769
tp1770
Rp1771
sg40
g12
(g13
(S'S3'
p1772
I0
I1
tp1773
Rp1774
(I3
S'|'
p1775
NNNI3
I1
I0
tp1776
bS':-)'
p1777
tp1778
Rp1779
sg49
I0
sg50
I1
sg51
g12
(g13
(S'S2'
p1780
I0
I1
tp1781
Rp1782
(I3
S'|'
p1783
NNNI2
I1
I0
tp1784
bS'18'
p1785
tp1786
Rp1787
sg60
g12
(g13
(S'S26'
p1788
I0
I1
tp1789
Rp1790
(I3
S'|'
p1791
NNNI26
I1
I0
tp1792
bS'obchodna akademia, pezinok'
p1793
tp1794
Rp1795
sg69
g12
(g13
(S'S4'
p1796
I0
I1
tp1797
Rp1798
(I3
S'|'
p1799
NNNI4
I1
I0
tp1800
bS'null'
p1801
tp1802
Rp1803
sg78
g12
(g13
(S'S4'
p1804
I0
I1
tp1805
Rp1806
(I3
S'|'
p1807
NNNI4
I1
I0
tp1808
bS'null'
p1809
tp1810
Rp1811
sg87
g12
(g13
(S'S1'
p1812
I0
I1
tp1813
Rp1814
(I3
S'|'
p1815
NNNI1
I1
I0
tp1816
bg28
tp1817
Rp1818
ssV103546
p1819
(dp1820
g10
I0
sg11
g12
(g13
(S'S32'
p1821
I0
I1
tp1822
Rp1823
(I3
S'|'
p1824
NNNI32
I1
I0
tp1825
bS'anglicky,tak trochu aj slovensky'
p1826
tp1827
Rp1828
sg22
g12
(g13
(S'S1'
p1829
I0
I1
tp1830
Rp1831
(I3
S'|'
p1832
NNNI1
I1
I0
tp1833
bg28
tp1834
Rp1835
sg31
g12
(g13
(S'S28'
p1836
I0
I1
tp1837
Rp1838
(I3
S'|'
p1839
NNNI28
I1
I0
tp1840
bS'banskobystricky kraj, brezno'
p1841
tp1842
Rp1843
sg40
g12
(g13
(S'S51'
p1844
I0
I1
tp1845
Rp1846
(I3
S'|'
p1847
NNNI51
I1
I0
tp1848
bS'priatelia, turistika, sportovanie, prace okolo domu'
p1849
tp1850
Rp1851
sg49
I0
sg50
I0
sg51
g12
(g13
(S'S1'
p1852
I0
I1
tp1853
Rp1854
(I3
S'|'
p1855
NNNI1
I1
I0
tp1856
bg57
tp1857
Rp1858
sg60
g12
(g13
(S'S13'
p1859
I0
I1
tp1860
Rp1861
(I3
S'|'
p1862
NNNI13
I1
I0
tp1863
bS'stredoskolske'
p1864
tp1865
Rp1866
sg69
g12
(g13
(S'S41'
p1867
I0
I1
tp1868
Rp1869
(I3
S'|'
p1870
NNNI41
I1
I0
tp1871
bS'v kuchyni pri stole, v dobrej restauracii'
p1872
tp1873
Rp1874
sg78
g12
(g13
(S'S4'
p1875
I0
I1
tp1876
Rp1877
(I3
S'|'
p1878
NNNI4
I1
I0
tp1879
bS'null'
p1880
tp1881
Rp1882
sg87
g12
(g13
(S'S1'
p1883
I0
I1
tp1884
Rp1885
(I3
S'|'
p1886
NNNI1
I1
I0
tp1887
bg57
tp1888
Rp1889
ssV440446
p1890
(dp1891
g10
I0
sg11
g12
(g13
(S'S14'
p1892
I0
I1
tp1893
Rp1894
(I3
S'|'
p1895
NNNI14
I1
I0
tp1896
bS'svk and inglis'
p1897
tp1898
Rp1899
sg22
g12
(g13
(S'S1'
p1900
I0
I1
tp1901
Rp1902
(I3
S'|'
p1903
NNNI1
I1
I0
tp1904
bg28
tp1905
Rp1906
sg31
g12
(g13
(S'S42'
p1907
I0
I1
tp1908
Rp1909
(I3
S'|'
p1910
NNNI42
I1
I0
tp1911
bS'kosicky kraj, kosice - dargovskych hrdinov'
p1912
tp1913
Rp1914
sg40
g12
(g13
(S'S23'
p1915
I0
I1
tp1916
Rp1917
(I3
S'|'
p1918
NNNI23
I1
I0
tp1919
bS'na co sa citim to robim'
p1920
tp1921
Rp1922
sg49
I0
sg50
I0
sg51
g12
(g13
(S'S1'
p1923
I0
I1
tp1924
Rp1925
(I3
S'|'
p1926
NNNI1
I1
I0
tp1927
bg57
tp1928
Rp1929
sg60
g12
(g13
(S'S4'
p1930
I0
I1
tp1931
Rp1932
(I3
S'|'
p1933
NNNI4
I1
I0
tp1934
bS'null'
p1935
tp1936
Rp1937
sg69
g12
(g13
(S'S28'
p1938
I0
I1
tp1939
Rp1940
(I3
S'|'
p1941
NNNI28
I1
I0
tp1942
bS'ked ma chiti hlad tak si dam'
p1943
tp1944
Rp1945
sg78
g12
(g13
(S'S167'
p1946
I0
I1
tp1947
Rp1948
(I3
S'|'
p1949
NNNI167
I1
I0
tp1950
bS'<div> <a title="vstup do klubu" href="/klub/extremna-premena-v-photoshope-to-musite-vidiet">extremna premena v photoshope&shy;. . . - . . . to musite vidiet</a> </div>'
p1951
tp1952
Rp1953
sg87
g12
(g13
(S'S1'
p1954
I0
I1
tp1955
Rp1956
(I3
S'|'
p1957
NNNI1
I1
I0
tp1958
bg28
tp1959
Rp1960
ssV347968
p1961
(dp1962
g10
I0
sg11
g12
(g13
(S'S40'
p1963
I0
I1
tp1964
Rp1965
(I3
S'|'
p1966
NNNI40
I1
I0
tp1967
bS'nemam jazyk cize nic neovladam z jazykom'
p1968
tp1969
Rp1970
sg22
g12
(g13
(S'S1'
p1971
I0
I1
tp1972
Rp1973
(I3
S'|'
p1974
NNNI1
I1
I0
tp1975
bg28
tp1976
Rp1977
sg31
g12
(g13
(S'S31'
p1978
I0
I1
tp1979
Rp1980
(I3
S'|'
p1981
NNNI31
I1
I0
tp1982
bS'zahranicie, zahranicie - kanada'
p1983
tp1984
Rp1985
sg40
g12
(g13
(S'S15'
p1986
I0
I1
tp1987
Rp1988
(I3
S'|'
p1989
NNNI15
I1
I0
tp1990
bS'bicovat otrokov'
p1991
tp1992
Rp1993
sg49
I0
sg50
I1
sg51
g12
(g13
(S'S1'
p1994
I0
I1
tp1995
Rp1996
(I3
S'|'
p1997
NNNI1
I1
I0
tp1998
bg57
tp1999
Rp2000
sg60
g12
(g13
(S'S17'
p2001
I0
I1
tp2002
Rp2003
(I3
S'|'
p2004
NNNI17
I1
I0
tp2005
bS'materske zakladne'
p2006
tp2007
Rp2008
sg69
g12
(g13
(S'S8'
p2009
I0
I1
tp2010
Rp2011
(I3
S'|'
p2012
NNNI8
I1
I0
tp2013
bS'vo vlaku'
p2014
tp2015
Rp2016
sg78
g12
(g13
(S'S4'
p2017
I0
I1
tp2018
Rp2019
(I3
S'|'
p2020
NNNI4
I1
I0
tp2021
bS'null'
p2022
tp2023
Rp2024
sg87
g12
(g13
(S'S1'
p2025
I0
I1
tp2026
Rp2027
(I3
S'|'
p2028
NNNI1
I1
I0
tp2029
bg57
tp2030
Rp2031
ssV260528
p2032
(dp2033
g10
I0
sg11
g12
(g13
(S'S4'
p2034
I0
I1
tp2035
Rp2036
(I3
S'|'
p2037
NNNI4
I1
I0
tp2038
bS'null'
p2039
tp2040
Rp2041
sg22
g12
(g13
(S'S1'
p2042
I0
I1
tp2043
Rp2044
(I3
S'|'
p2045
NNNI1
I1
I0
tp2046
bg28
tp2047
Rp2048
sg31
g12
(g13
(S'S37'
p2049
I0
I1
tp2050
Rp2051
(I3
S'|'
p2052
NNNI37
I1
I0
tp2053
bS'banskobystricky kraj, rimavska sobota'
p2054
tp2055
Rp2056
sg40
g12
(g13
(S'S4'
p2057
I0
I1
tp2058
Rp2059
(I3
S'|'
p2060
NNNI4
I1
I0
tp2061
bS'null'
p2062
tp2063
Rp2064
sg49
I0
sg50
I1
sg51
g12
(g13
(S'S2'
p2065
I0
I1
tp2066
Rp2067
(I3
S'|'
p2068
NNNI2
I1
I0
tp2069
bS'21'
p2070
tp2071
Rp2072
sg60
g12
(g13
(S'S4'
p2073
I0
I1
tp2074
Rp2075
(I3
S'|'
p2076
NNNI4
I1
I0
tp2077
bS'null'
p2078
tp2079
Rp2080
sg69
g12
(g13
(S'S4'
p2081
I0
I1
tp2082
Rp2083
(I3
S'|'
p2084
NNNI4
I1
I0
tp2085
bS'null'
p2086
tp2087
Rp2088
sg78
g12
(g13
(S'S4'
p2089
I0
I1
tp2090
Rp2091
(I3
S'|'
p2092
NNNI4
I1
I0
tp2093
bS'null'
p2094
tp2095
Rp2096
sg87
g12
(g13
(S'S1'
p2097
I0
I1
tp2098
Rp2099
(I3
S'|'
p2100
NNNI1
I1
I0
tp2101
bg28
tp2102
Rp2103
ssV897955
p2104
(dp2105
g10
I0
sg11
g12
(g13
(S'S4'
p2106
I0
I1
tp2107
Rp2108
(I3
S'|'
p2109
NNNI4
I1
I0
tp2110
bS'null'
p2111
tp2112
Rp2113
sg22
g12
(g13
(S'S1'
p2114
I0
I1
tp2115
Rp2116
(I3
S'|'
p2117
NNNI1
I1
I0
tp2118
bg28
tp2119
Rp2120
sg31
g12
(g13
(S'S30'
p2121
I0
I1
tp2122
Rp2123
(I3
S'|'
p2124
NNNI30
I1
I0
tp2125
bS'kosicky kraj, cierna nad tisou'
p2126
tp2127
Rp2128
sg40
g12
(g13
(S'S4'
p2129
I0
I1
tp2130
Rp2131
(I3
S'|'
p2132
NNNI4
I1
I0
tp2133
bS'null'
p2134
tp2135
Rp2136
sg49
I0
sg50
I1
sg51
g12
(g13
(S'S2'
p2137
I0
I1
tp2138
Rp2139
(I3
S'|'
p2140
NNNI2
I1
I0
tp2141
bS'29'
p2142
tp2143
Rp2144
sg60
g12
(g13
(S'S4'
p2145
I0
I1
tp2146
Rp2147
(I3
S'|'
p2148
NNNI4
I1
I0
tp2149
bS'null'
p2150
tp2151
Rp2152
sg69
g12
(g13
(S'S4'
p2153
I0
I1
tp2154
Rp2155
(I3
S'|'
p2156
NNNI4
I1
I0
tp2157
bS'null'
p2158
tp2159
Rp2160
sg78
g12
(g13
(S'S4'
p2161
I0
I1
tp2162
Rp2163
(I3
S'|'
p2164
NNNI4
I1
I0
tp2165
bS'null'
p2166
tp2167
Rp2168
sg87
g12
(g13
(S'S1'
p2169
I0
I1
tp2170
Rp2171
(I3
S'|'
p2172
NNNI1
I1
I0
tp2173
bg28
tp2174
Rp2175
ssV410347
p2176
(dp2177
g10
I0
sg11
g12
(g13
(S'S4'
p2178
I0
I1
tp2179
Rp2180
(I3
S'|'
p2181
NNNI4
I1
I0
tp2182
bS'null'
p2183
tp2184
Rp2185
sg22
g12
(g13
(S'S1'
p2186
I0
I1
tp2187
Rp2188
(I3
S'|'
p2189
NNNI1
I1
I0
tp2190
bg28
tp2191
Rp2192
sg31
g12
(g13
(S'S21'
p2193
I0
I1
tp2194
Rp2195
(I3
S'|'
p2196
NNNI21
I1
I0
tp2197
bS'kosicky kraj, dobsina'
p2198
tp2199
Rp2200
sg40
g12
(g13
(S'S4'
p2201
I0
I1
tp2202
Rp2203
(I3
S'|'
p2204
NNNI4
I1
I0
tp2205
bS'null'
p2206
tp2207
Rp2208
sg49
I0
sg50
I0
sg51
g12
(g13
(S'S1'
p2209
I0
I1
tp2210
Rp2211
(I3
S'|'
p2212
NNNI1
I1
I0
tp2213
bg57
tp2214
Rp2215
sg60
g12
(g13
(S'S23'
p2216
I0
I1
tp2217
Rp2218
(I3
S'|'
p2219
NNNI23
I1
I0
tp2220
bS'zakladne, stredoskolske'
p2221
tp2222
Rp2223
sg69
g12
(g13
(S'S4'
p2224
I0
I1
tp2225
Rp2226
(I3
S'|'
p2227
NNNI4
I1
I0
tp2228
bS'null'
p2229
tp2230
Rp2231
sg78
g12
(g13
(S'S4'
p2232
I0
I1
tp2233
Rp2234
(I3
S'|'
p2235
NNNI4
I1
I0
tp2236
bS'null'
p2237
tp2238
Rp2239
sg87
g12
(g13
(S'S1'
p2240
I0
I1
tp2241
Rp2242
(I3
S'|'
p2243
NNNI1
I1
I0
tp2244
bg28
tp2245
Rp2246
ssV333030
p2247
(dp2248
g10
I0
sg11
g12
(g13
(S'S4'
p2249
I0
I1
tp2250
Rp2251
(I3
S'|'
p2252
NNNI4
I1
I0
tp2253
bS'null'
p2254
tp2255
Rp2256
sg22
g12
(g13
(S'S1'
p2257
I0
I1
tp2258
Rp2259
(I3
S'|'
p2260
NNNI1
I1
I0
tp2261
bg57
tp2262
Rp2263
sg31
g12
(g13
(S'S29'
p2264
I0
I1
tp2265
Rp2266
(I3
S'|'
p2267
NNNI29
I1
I0
tp2268
bS'banskobystricky kraj, tornala'
p2269
tp2270
Rp2271
sg40
g12
(g13
(S'S4'
p2272
I0
I1
tp2273
Rp2274
(I3
S'|'
p2275
NNNI4
I1
I0
tp2276
bS'null'
p2277
tp2278
Rp2279
sg49
I0
sg50
I1
sg51
g12
(g13
(S'S2'
p2280
I0
I1
tp2281
Rp2282
(I3
S'|'
p2283
NNNI2
I1
I0
tp2284
bS'18'
p2285
tp2286
Rp2287
sg60
g12
(g13
(S'S4'
p2288
I0
I1
tp2289
Rp2290
(I3
S'|'
p2291
NNNI4
I1
I0
tp2292
bS'null'
p2293
tp2294
Rp2295
sg69
g12
(g13
(S'S4'
p2296
I0
I1
tp2297
Rp2298
(I3
S'|'
p2299
NNNI4
I1
I0
tp2300
bS'null'
p2301
tp2302
Rp2303
sg78
g12
(g13
(S'S4'
p2304
I0
I1
tp2305
Rp2306
(I3
S'|'
p2307
NNNI4
I1
I0
tp2308
bS'null'
p2309
tp2310
Rp2311
sg87
g12
(g13
(S'S1'
p2312
I0
I1
tp2313
Rp2314
(I3
S'|'
p2315
NNNI1
I1
I0
tp2316
bg28
tp2317
Rp2318
ssV333032
p2319
(dp2320
g10
I0
sg11
g12
(g13
(S'S4'
p2321
I0
I1
tp2322
Rp2323
(I3
S'|'
p2324
NNNI4
I1
I0
tp2325
bS'null'
p2326
tp2327
Rp2328
sg22
g12
(g13
(S'S1'
p2329
I0
I1
tp2330
Rp2331
(I3
S'|'
p2332
NNNI1
I1
I0
tp2333
bg28
tp2334
Rp2335
sg31
g12
(g13
(S'S29'
p2336
I0
I1
tp2337
Rp2338
(I3
S'|'
p2339
NNNI29
I1
I0
tp2340
bS'banskobystricky kraj, tornala'
p2341
tp2342
Rp2343
sg40
g12
(g13
(S'S4'
p2344
I0
I1
tp2345
Rp2346
(I3
S'|'
p2347
NNNI4
I1
I0
tp2348
bS'null'
p2349
tp2350
Rp2351
sg49
I0
sg50
I1
sg51
g12
(g13
(S'S1'
p2352
I0
I1
tp2353
Rp2354
(I3
S'|'
p2355
NNNI1
I1
I0
tp2356
bg57
tp2357
Rp2358
sg60
g12
(g13
(S'S4'
p2359
I0
I1
tp2360
Rp2361
(I3
S'|'
p2362
NNNI4
I1
I0
tp2363
bS'null'
p2364
tp2365
Rp2366
sg69
g12
(g13
(S'S4'
p2367
I0
I1
tp2368
Rp2369
(I3
S'|'
p2370
NNNI4
I1
I0
tp2371
bS'null'
p2372
tp2373
Rp2374
sg78
g12
(g13
(S'S4'
p2375
I0
I1
tp2376
Rp2377
(I3
S'|'
p2378
NNNI4
I1
I0
tp2379
bS'null'
p2380
tp2381
Rp2382
sg87
g12
(g13
(S'S1'
p2383
I0
I1
tp2384
Rp2385
(I3
S'|'
p2386
NNNI1
I1
I0
tp2387
bg28
tp2388
Rp2389
ssV300258
p2390
(dp2391
g10
I0
sg11
g12
(g13
(S'S72'
p2392
I0
I1
tp2393
Rp2394
(I3
S'|'
p2395
NNNI72
I1
I0
tp2396
bS'slovensky, cesky a rusnacky :d a ucim sa anglicky, nemecky a latinsky :)'
p2397
tp2398
Rp2399
sg22
g12
(g13
(S'S1'
p2400
I0
I1
tp2401
Rp2402
(I3
S'|'
p2403
NNNI1
I1
I0
tp2404
bg57
tp2405
Rp2406
sg31
g12
(g13
(S'S22'
p2407
I0
I1
tp2408
Rp2409
(I3
S'|'
p2410
NNNI22
I1
I0
tp2411
bS'presovsky kraj, presov'
p2412
tp2413
Rp2414
sg40
g12
(g13
(S'S122'
p2415
I0
I1
tp2416
Rp2417
(I3
S'|'
p2418
NNNI122
I1
I0
tp2419
bS'sportovanie, fotografovanie, cestovanie, turistika,opekacky,stanovacky , pc hry, surfovanie po webe, pozeranie filmov, ...'
p2420
tp2421
Rp2422
sg49
I0
sg50
I1
sg51
g12
(g13
(S'S2'
p2423
I0
I1
tp2424
Rp2425
(I3
S'|'
p2426
NNNI2
I1
I0
tp2427
bS'17'
p2428
tp2429
Rp2430
sg60
g12
(g13
(S'S26'
p2431
I0
I1
tp2432
Rp2433
(I3
S'|'
p2434
NNNI26
I1
I0
tp2435
bS'skolka a zakladna skola :)'
p2436
tp2437
Rp2438
sg69
g12
(g13
(S'S42'
p2439
I0
I1
tp2440
Rp2441
(I3
S'|'
p2442
NNNI42
I1
I0
tp2443
bS'pri telke, v dobrej restauracii, v posteli'
p2444
tp2445
Rp2446
sg78
g12
(g13
(S'S4'
p2447
I0
I1
tp2448
Rp2449
(I3
S'|'
p2450
NNNI4
I1
I0
tp2451
bS'null'
p2452
tp2453
Rp2454
sg87
g12
(g13
(S'S1'
p2455
I0
I1
tp2456
Rp2457
(I3
S'|'
p2458
NNNI1
I1
I0
tp2459
bg28
tp2460
Rp2461
ssV254675
p2462
(dp2463
g10
I0
sg11
g12
(g13
(S'S4'
p2464
I0
I1
tp2465
Rp2466
(I3
S'|'
p2467
NNNI4
I1
I0
tp2468
bS'null'
p2469
tp2470
Rp2471
sg22
g12
(g13
(S'S1'
p2472
I0
I1
tp2473
Rp2474
(I3
S'|'
p2475
NNNI1
I1
I0
tp2476
bg57
tp2477
Rp2478
sg31
g12
(g13
(S'S29'
p2479
I0
I1
tp2480
Rp2481
(I3
S'|'
p2482
NNNI29
I1
I0
tp2483
bS'banskobystricky kraj, tornala'
p2484
tp2485
Rp2486
sg40
g12
(g13
(S'S4'
p2487
I0
I1
tp2488
Rp2489
(I3
S'|'
p2490
NNNI4
I1
I0
tp2491
bS'null'
p2492
tp2493
Rp2494
sg49
I0
sg50
I1
sg51
g12
(g13
(S'S2'
p2495
I0
I1
tp2496
Rp2497
(I3
S'|'
p2498
NNNI2
I1
I0
tp2499
bS'13'
p2500
tp2501
Rp2502
sg60
g12
(g13
(S'S4'
p2503
I0
I1
tp2504
Rp2505
(I3
S'|'
p2506
NNNI4
I1
I0
tp2507
bS'null'
p2508
tp2509
Rp2510
sg69
g12
(g13
(S'S4'
p2511
I0
I1
tp2512
Rp2513
(I3
S'|'
p2514
NNNI4
I1
I0
tp2515
bS'null'
p2516
tp2517
Rp2518
sg78
g12
(g13
(S'S4'
p2519
I0
I1
tp2520
Rp2521
(I3
S'|'
p2522
NNNI4
I1
I0
tp2523
bS'null'
p2524
tp2525
Rp2526
sg87
g12
(g13
(S'S1'
p2527
I0
I1
tp2528
Rp2529
(I3
S'|'
p2530
NNNI1
I1
I0
tp2531
bg28
tp2532
Rp2533
ssV410349
p2534
(dp2535
g10
I0
sg11
g12
(g13
(S'S34'
p2536
I0
I1
tp2537
Rp2538
(I3
S'|'
p2539
NNNI34
I1
I0
tp2540
bS'anglicky,slovensky, nemecky trochu'
p2541
tp2542
Rp2543
sg22
g12
(g13
(S'S1'
p2544
I0
I1
tp2545
Rp2546
(I3
S'|'
p2547
NNNI1
I1
I0
tp2548
bg28
tp2549
Rp2550
sg31
g12
(g13
(S'S21'
p2551
I0
I1
tp2552
Rp2553
(I3
S'|'
p2554
NNNI21
I1
I0
tp2555
bS'kosicky kraj, dobsina'
p2556
tp2557
Rp2558
sg40
g12
(g13
(S'S87'
p2559
I0
I1
tp2560
Rp2561
(I3
S'|'
p2562
NNNI87
I1
I0
tp2563
bS'priatelia, diskoteky, pocuvanie hudby, turistika, pozeranie filmov, pc hry, sportovanie'
p2564
tp2565
Rp2566
sg49
I0
sg50
I1
sg51
g12
(g13
(S'S2'
p2567
I0
I1
tp2568
Rp2569
(I3
S'|'
p2570
NNNI2
I1
I0
tp2571
bS'21'
p2572
tp2573
Rp2574
sg60
g12
(g13
(S'S27'
p2575
I0
I1
tp2576
Rp2577
(I3
S'|'
p2578
NNNI27
I1
I0
tp2579
bS'stredoskolske, som na vyske'
p2580
tp2581
Rp2582
sg69
g12
(g13
(S'S9'
p2583
I0
I1
tp2584
Rp2585
(I3
S'|'
p2586
NNNI9
I1
I0
tp2587
bS'pri telke'
p2588
tp2589
Rp2590
sg78
g12
(g13
(S'S4'
p2591
I0
I1
tp2592
Rp2593
(I3
S'|'
p2594
NNNI4
I1
I0
tp2595
bS'null'
p2596
tp2597
Rp2598
sg87
g12
(g13
(S'S1'
p2599
I0
I1
tp2600
Rp2601
(I3
S'|'
p2602
NNNI1
I1
I0
tp2603
bg28
tp2604
Rp2605
ssV51829
p2606
(dp2607
g10
I0
sg11
g12
(g13
(S'S13'
p2608
I0
I1
tp2609
Rp2610
(I3
S'|'
p2611
NNNI13
I1
I0
tp2612
bS'samozrejme :p'
p2613
tp2614
Rp2615
sg22
g12
(g13
(S'S1'
p2616
I0
I1
tp2617
Rp2618
(I3
S'|'
p2619
NNNI1
I1
I0
tp2620
bg57
tp2621
Rp2622
sg31
g12
(g13
(S'S32'
p2623
I0
I1
tp2624
Rp2625
(I3
S'|'
p2626
NNNI32
I1
I0
tp2627
bS'zahranicie, zahranicie - ostatne'
p2628
tp2629
Rp2630
sg40
g12
(g13
(S'S219'
p2631
I0
I1
tp2632
Rp2633
(I3
S'|'
p2634
NNNI219
I1
I0
tp2635
bS'cestovanie, sportovanie, pozeranie filmov, tancovanie, party, jedlo, spanie, nakupovanie, stanovanie, fotografovanie, surfovanie po webe, pocuvanie hudby, diskoteky, kino, priatelia, divadlo, sex ... noo dost je toho :d'
p2636
tp2637
Rp2638
sg49
I0
sg50
I1
sg51
g12
(g13
(S'S2'
p2639
I0
I1
tp2640
Rp2641
(I3
S'|'
p2642
NNNI2
I1
I0
tp2643
bS'19'
p2644
tp2645
Rp2646
sg60
g12
(g13
(S'S27'
p2647
I0
I1
tp2648
Rp2649
(I3
S'|'
p2650
NNNI27
I1
I0
tp2651
bS'zakladne .. teraz gympel ;)'
p2652
tp2653
Rp2654
sg69
g12
(g13
(S'S4'
p2655
I0
I1
tp2656
Rp2657
(I3
S'|'
p2658
NNNI4
I1
I0
tp2659
bS'null'
p2660
tp2661
Rp2662
sg78
g12
(g13
(S'S4'
p2663
I0
I1
tp2664
Rp2665
(I3
S'|'
p2666
NNNI4
I1
I0
tp2667
bS'null'
p2668
tp2669
Rp2670
sg87
g12
(g13
(S'S1'
p2671
I0
I1
tp2672
Rp2673
(I3
S'|'
p2674
NNNI1
I1
I0
tp2675
bg28
tp2676
Rp2677
ssV210200
p2678
(dp2679
g10
I0
sg11
g12
(g13
(S'S8'
p2680
I0
I1
tp2681
Rp2682
(I3
S'|'
p2683
NNNI8
I1
I0
tp2684
bS'anglicky'
p2685
tp2686
Rp2687
sg22
g12
(g13
(S'S1'
p2688
I0
I1
tp2689
Rp2690
(I3
S'|'
p2691
NNNI1
I1
I0
tp2692
bg57
tp2693
Rp2694
sg31
g12
(g13
(S'S26'
p2695
I0
I1
tp2696
Rp2697
(I3
S'|'
p2698
NNNI26
I1
I0
tp2699
bS'bratislavsky kraj, malacky'
p2700
tp2701
Rp2702
sg40
g12
(g13
(S'S52'
p2703
I0
I1
tp2704
Rp2705
(I3
S'|'
p2706
NNNI52
I1
I0
tp2707
bS'pozeranie filmov, kupalisko, nakupovanie, stanovanie'
p2708
tp2709
Rp2710
sg49
I0
sg50
I0
sg51
g12
(g13
(S'S1'
p2711
I0
I1
tp2712
Rp2713
(I3
S'|'
p2714
NNNI1
I1
I0
tp2715
bg57
tp2716
Rp2717
sg60
g12
(g13
(S'S4'
p2718
I0
I1
tp2719
Rp2720
(I3
S'|'
p2721
NNNI4
I1
I0
tp2722
bS'null'
p2723
tp2724
Rp2725
sg69
g12
(g13
(S'S20'
p2726
I0
I1
tp2727
Rp2728
(I3
S'|'
p2729
NNNI20
I1
I0
tp2730
bS'v dobrej restauracii'
p2731
tp2732
Rp2733
sg78
g12
(g13
(S'S4'
p2734
I0
I1
tp2735
Rp2736
(I3
S'|'
p2737
NNNI4
I1
I0
tp2738
bS'null'
p2739
tp2740
Rp2741
sg87
g12
(g13
(S'S1'
p2742
I0
I1
tp2743
Rp2744
(I3
S'|'
p2745
NNNI1
I1
I0
tp2746
bg28
tp2747
Rp2748
ssV873367
p2749
(dp2750
g10
I0
sg11
g12
(g13
(S'S4'
p2751
I0
I1
tp2752
Rp2753
(I3
S'|'
p2754
NNNI4
I1
I0
tp2755
bS'null'
p2756
tp2757
Rp2758
sg22
g12
(g13
(S'S1'
p2759
I0
I1
tp2760
Rp2761
(I3
S'|'
p2762
NNNI1
I1
I0
tp2763
bg28
tp2764
Rp2765
sg31
g12
(g13
(S'S39'
p2766
I0
I1
tp2767
Rp2768
(I3
S'|'
p2769
NNNI39
I1
I0
tp2770
bS'bratislavsky kraj, bratislava - ostatne'
p2771
tp2772
Rp2773
sg40
g12
(g13
(S'S4'
p2774
I0
I1
tp2775
Rp2776
(I3
S'|'
p2777
NNNI4
I1
I0
tp2778
bS'null'
p2779
tp2780
Rp2781
sg49
I0
sg50
I1
sg51
g12
(g13
(S'S1'
p2782
I0
I1
tp2783
Rp2784
(I3
S'|'
p2785
NNNI1
I1
I0
tp2786
bg57
tp2787
Rp2788
sg60
g12
(g13
(S'S4'
p2789
I0
I1
tp2790
Rp2791
(I3
S'|'
p2792
NNNI4
I1
I0
tp2793
bS'null'
p2794
tp2795
Rp2796
sg69
g12
(g13
(S'S4'
p2797
I0
I1
tp2798
Rp2799
(I3
S'|'
p2800
NNNI4
I1
I0
tp2801
bS'null'
p2802
tp2803
Rp2804
sg78
g12
(g13
(S'S4'
p2805
I0
I1
tp2806
Rp2807
(I3
S'|'
p2808
NNNI4
I1
I0
tp2809
bS'null'
p2810
tp2811
Rp2812
sg87
g12
(g13
(S'S1'
p2813
I0
I1
tp2814
Rp2815
(I3
S'|'
p2816
NNNI1
I1
I0
tp2817
bg28
tp2818
Rp2819
ssV494920
p2820
(dp2821
g10
I0
sg11
g12
(g13
(S'S4'
p2822
I0
I1
tp2823
Rp2824
(I3
S'|'
p2825
NNNI4
I1
I0
tp2826
bS'null'
p2827
tp2828
Rp2829
sg22
g12
(g13
(S'S1'
p2830
I0
I1
tp2831
Rp2832
(I3
S'|'
p2833
NNNI1
I1
I0
tp2834
bg28
tp2835
Rp2836
sg31
g12
(g13
(S'S37'
p2837
I0
I1
tp2838
Rp2839
(I3
S'|'
p2840
NNNI37
I1
I0
tp2841
bS'banskobystricky kraj, rimavska sobota'
p2842
tp2843
Rp2844
sg40
g12
(g13
(S'S4'
p2845
I0
I1
tp2846
Rp2847
(I3
S'|'
p2848
NNNI4
I1
I0
tp2849
bS'null'
p2850
tp2851
Rp2852
sg49
I0
sg50
I0
sg51
g12
(g13
(S'S1'
p2853
I0
I1
tp2854
Rp2855
(I3
S'|'
p2856
NNNI1
I1
I0
tp2857
bg57
tp2858
Rp2859
sg60
g12
(g13
(S'S4'
p2860
I0
I1
tp2861
Rp2862
(I3
S'|'
p2863
NNNI4
I1
I0
tp2864
bS'null'
p2865
tp2866
Rp2867
sg69
g12
(g13
(S'S4'
p2868
I0
I1
tp2869
Rp2870
(I3
S'|'
p2871
NNNI4
I1
I0
tp2872
bS'null'
p2873
tp2874
Rp2875
sg78
g12
(g13
(S'S4'
p2876
I0
I1
tp2877
Rp2878
(I3
S'|'
p2879
NNNI4
I1
I0
tp2880
bS'null'
p2881
tp2882
Rp2883
sg87
g12
(g13
(S'S1'
p2884
I0
I1
tp2885
Rp2886
(I3
S'|'
p2887
NNNI1
I1
I0
tp2888
bg28
tp2889
Rp2890
ssV345896
p2891
(dp2892
g10
I0
sg11
g12
(g13
(S'S18'
p2893
I0
I1
tp2894
Rp2895
(I3
S'|'
p2896
NNNI18
I1
I0
tp2897
bS'anglicky, japonsky'
p2898
tp2899
Rp2900
sg22
g12
(g13
(S'S1'
p2901
I0
I1
tp2902
Rp2903
(I3
S'|'
p2904
NNNI1
I1
I0
tp2905
bg28
tp2906
Rp2907
sg31
g12
(g13
(S'S22'
p2908
I0
I1
tp2909
Rp2910
(I3
S'|'
p2911
NNNI22
I1
I0
tp2912
bS'kosicky kraj, trebisov'
p2913
tp2914
Rp2915
sg40
g12
(g13
(S'S99'
p2916
I0
I1
tp2917
Rp2918
(I3
S'|'
p2919
NNNI99
I1
I0
tp2920
bS'nakupovanie, party, kupalisko, surfovanie po webe, pocuvanie hudby, diskoteky, kino, priatelia, sex'
p2921
tp2922
Rp2923
sg49
I0
sg50
I0
sg51
g12
(g13
(S'S2'
p2924
I0
I1
tp2925
Rp2926
(I3
S'|'
p2927
NNNI2
I1
I0
tp2928
bS'10'
p2929
tp2930
Rp2931
sg60
g12
(g13
(S'S13'
p2932
I0
I1
tp2933
Rp2934
(I3
S'|'
p2935
NNNI13
I1
I0
tp2936
bS'stredoskolske'
p2937
tp2938
Rp2939
sg69
g12
(g13
(S'S4'
p2940
I0
I1
tp2941
Rp2942
(I3
S'|'
p2943
NNNI4
I1
I0
tp2944
bS'null'
p2945
tp2946
Rp2947
sg78
g12
(g13
(S'S4'
p2948
I0
I1
tp2949
Rp2950
(I3
S'|'
p2951
NNNI4
I1
I0
tp2952
bS'null'
p2953
tp2954
Rp2955
sg87
g12
(g13
(S'S1'
p2956
I0
I1
tp2957
Rp2958
(I3
S'|'
p2959
NNNI1
I1
I0
tp2960
bg28
tp2961
Rp2962
ssV494922
p2963
(dp2964
g10
I0
sg11
g12
(g13
(S'S31'
p2965
I0
I1
tp2966
Rp2967
(I3
S'|'
p2968
NNNI31
I1
I0
tp2969
bS'anglicky, nemecky, slovensky :d'
p2970
tp2971
Rp2972
sg22
g12
(g13
(S'S1'
p2973
I0
I1
tp2974
Rp2975
(I3
S'|'
p2976
NNNI1
I1
I0
tp2977
bg57
tp2978
Rp2979
sg31
g12
(g13
(S'S31'
p2980
I0
I1
tp2981
Rp2982
(I3
S'|'
p2983
NNNI31
I1
I0
tp2984
bS'banskobystricky kraj, nova bana'
p2985
tp2986
Rp2987
sg40
g12
(g13
(S'S186'
p2988
I0
I1
tp2989
Rp2990
(I3
S'|'
p2991
NNNI186
I1
I0
tp2992
bS'sportovanie, fotografovanie, cestovanie, praca s pc, surfovanie po webe, pocuvanie hudby, pozeranie filmov, kupalisko, priatelia, nakupovanie, stanovanie, vyplnat quizy na facebooku :ddd'
p2993
tp2994
Rp2995
sg49
I0
sg50
I1
sg51
g12
(g13
(S'S1'
p2996
I0
I1
tp2997
Rp2998
(I3
S'|'
p2999
NNNI1
I1
I0
tp3000
bg57
tp3001
Rp3002
sg60
g12
(g13
(S'S6'
p3003
I0
I1
tp3004
Rp3005
(I3
S'|'
p3006
NNNI6
I1
I0
tp3007
bS'skolka'
p3008
tp3009
Rp3010
sg69
g12
(g13
(S'S67'
p3011
I0
I1
tp3012
Rp3013
(I3
S'|'
p3014
NNNI67
I1
I0
tp3015
bS'v dobrej restauracii, doma :d pred kompom ked mam zapnuty pkc:d :dd'
p3016
tp3017
Rp3018
sg78
g12
(g13
(S'S4'
p3019
I0
I1
tp3020
Rp3021
(I3
S'|'
p3022
NNNI4
I1
I0
tp3023
bS'null'
p3024
tp3025
Rp3026
sg87
g12
(g13
(S'S1'
p3027
I0
I1
tp3028
Rp3029
(I3
S'|'
p3030
NNNI1
I1
I0
tp3031
bg28
tp3032
Rp3033
ssV183994
p3034
(dp3035
g10
I0
sg11
g12
(g13
(S'S4'
p3036
I0
I1
tp3037
Rp3038
(I3
S'|'
p3039
NNNI4
I1
I0
tp3040
bS'null'
p3041
tp3042
Rp3043
sg22
g12
(g13
(S'S1'
p3044
I0
I1
tp3045
Rp3046
(I3
S'|'
p3047
NNNI1
I1
I0
tp3048
bg57
tp3049
Rp3050
sg31
g12
(g13
(S'S38'
p3051
I0
I1
tp3052
Rp3053
(I3
S'|'
p3054
NNNI38
I1
I0
tp3055
bS'ceska republika, cz - budejovicky kraj'
p3056
tp3057
Rp3058
sg40
g12
(g13
(S'S4'
p3059
I0
I1
tp3060
Rp3061
(I3
S'|'
p3062
NNNI4
I1
I0
tp3063
bS'null'
p3064
tp3065
Rp3066
sg49
I0
sg50
I0
sg51
g12
(g13
(S'S2'
p3067
I0
I1
tp3068
Rp3069
(I3
S'|'
p3070
NNNI2
I1
I0
tp3071
bS'16'
p3072
tp3073
Rp3074
sg60
g12
(g13
(S'S4'
p3075
I0
I1
tp3076
Rp3077
(I3
S'|'
p3078
NNNI4
I1
I0
tp3079
bS'null'
p3080
tp3081
Rp3082
sg69
g12
(g13
(S'S4'
p3083
I0
I1
tp3084
Rp3085
(I3
S'|'
p3086
NNNI4
I1
I0
tp3087
bS'null'
p3088
tp3089
Rp3090
sg78
g12
(g13
(S'S4'
p3091
I0
I1
tp3092
Rp3093
(I3
S'|'
p3094
NNNI4
I1
I0
tp3095
bS'null'
p3096
tp3097
Rp3098
sg87
g12
(g13
(S'S1'
p3099
I0
I1
tp3100
Rp3101
(I3
S'|'
p3102
NNNI1
I1
I0
tp3103
bg28
tp3104
Rp3105
ssV897782
p3106
(dp3107
g10
I0
sg11
g12
(g13
(S'S7'
p3108
I0
I1
tp3109
Rp3110
(I3
S'|'
p3111
NNNI7
I1
I0
tp3112
bS'nemecky'
p3113
tp3114
Rp3115
sg22
g12
(g13
(S'S1'
p3116
I0
I1
tp3117
Rp3118
(I3
S'|'
p3119
NNNI1
I1
I0
tp3120
bg28
tp3121
Rp3122
sg31
g12
(g13
(S'S29'
p3123
I0
I1
tp3124
Rp3125
(I3
S'|'
p3126
NNNI29
I1
I0
tp3127
bS'banskobystricky kraj, tornala'
p3128
tp3129
Rp3130
sg40
g12
(g13
(S'S105'
p3131
I0
I1
tp3132
Rp3133
(I3
S'|'
p3134
NNNI105
I1
I0
tp3135
bS'sportovanie, cestovanie, domace prace, prace okolo domu, pc hry, surfovanie po webe, kupalisko, priatelia'
p3136
tp3137
Rp3138
sg49
I0
sg50
I0
sg51
g12
(g13
(S'S2'
p3139
I0
I1
tp3140
Rp3141
(I3
S'|'
p3142
NNNI2
I1
I0
tp3143
bS'18'
p3144
tp3145
Rp3146
sg60
g12
(g13
(S'S8'
p3147
I0
I1
tp3148
Rp3149
(I3
S'|'
p3150
NNNI8
I1
I0
tp3151
bS'zakladne'
p3152
tp3153
Rp3154
sg69
g12
(g13
(S'S20'
p3155
I0
I1
tp3156
Rp3157
(I3
S'|'
p3158
NNNI20
I1
I0
tp3159
bS'v dobrej restauracii'
p3160
tp3161
Rp3162
sg78
g12
(g13
(S'S4'
p3163
I0
I1
tp3164
Rp3165
(I3
S'|'
p3166
NNNI4
I1
I0
tp3167
bS'null'
p3168
tp3169
Rp3170
sg87
g12
(g13
(S'S1'
p3171
I0
I1
tp3172
Rp3173
(I3
S'|'
p3174
NNNI1
I1
I0
tp3175
bg28
tp3176
Rp3177
ssV143435
p3178
(dp3179
g10
I0
sg11
g12
(g13
(S'S4'
p3180
I0
I1
tp3181
Rp3182
(I3
S'|'
p3183
NNNI4
I1
I0
tp3184
bS'null'
p3185
tp3186
Rp3187
sg22
g12
(g13
(S'S1'
p3188
I0
I1
tp3189
Rp3190
(I3
S'|'
p3191
NNNI1
I1
I0
tp3192
bg57
tp3193
Rp3194
sg31
g12
(g13
(S'S22'
p3195
I0
I1
tp3196
Rp3197
(I3
S'|'
p3198
NNNI22
I1
I0
tp3199
bS'kosicky kraj, trebisov'
p3200
tp3201
Rp3202
sg40
g12
(g13
(S'S4'
p3203
I0
I1
tp3204
Rp3205
(I3
S'|'
p3206
NNNI4
I1
I0
tp3207
bS'null'
p3208
tp3209
Rp3210
sg49
I0
sg50
I1
sg51
g12
(g13
(S'S2'
p3211
I0
I1
tp3212
Rp3213
(I3
S'|'
p3214
NNNI2
I1
I0
tp3215
bS'17'
p3216
tp3217
Rp3218
sg60
g12
(g13
(S'S4'
p3219
I0
I1
tp3220
Rp3221
(I3
S'|'
p3222
NNNI4
I1
I0
tp3223
bS'null'
p3224
tp3225
Rp3226
sg69
g12
(g13
(S'S4'
p3227
I0
I1
tp3228
Rp3229
(I3
S'|'
p3230
NNNI4
I1
I0
tp3231
bS'null'
p3232
tp3233
Rp3234
sg78
g12
(g13
(S'S4'
p3235
I0
I1
tp3236
Rp3237
(I3
S'|'
p3238
NNNI4
I1
I0
tp3239
bS'null'
p3240
tp3241
Rp3242
sg87
g12
(g13
(S'S1'
p3243
I0
I1
tp3244
Rp3245
(I3
S'|'
p3246
NNNI1
I1
I0
tp3247
bg28
tp3248
Rp3249
ssV478890
p3250
(dp3251
g10
I0
sg11
g12
(g13
(S'S25'
p3252
I0
I1
tp3253
Rp3254
(I3
S'|'
p3255
NNNI25
I1
I0
tp3256
bS'slovensky trochu madarsky'
p3257
tp3258
Rp3259
sg22
g12
(g13
(S'S1'
p3260
I0
I1
tp3261
Rp3262
(I3
S'|'
p3263
NNNI1
I1
I0
tp3264
bg28
tp3265
Rp3266
sg31
g12
(g13
(S'S27'
p3267
I0
I1
tp3268
Rp3269
(I3
S'|'
p3270
NNNI27
I1
I0
tp3271
bS'nitriansky kraj, zeliezovce'
p3272
tp3273
Rp3274
sg40
g12
(g13
(S'S38'
p3275
I0
I1
tp3276
Rp3277
(I3
S'|'
p3278
NNNI38
I1
I0
tp3279
bS'futbal bicyklowanie a dam aj ten hokej'
p3280
tp3281
Rp3282
sg49
I0
sg50
I1
sg51
g12
(g13
(S'S2'
p3283
I0
I1
tp3284
Rp3285
(I3
S'|'
p3286
NNNI2
I1
I0
tp3287
bS'18'
p3288
tp3289
Rp3290
sg60
g12
(g13
(S'S8'
p3291
I0
I1
tp3292
Rp3293
(I3
S'|'
p3294
NNNI8
I1
I0
tp3295
bS'zakladne'
p3296
tp3297
Rp3298
sg69
g12
(g13
(S'S4'
p3299
I0
I1
tp3300
Rp3301
(I3
S'|'
p3302
NNNI4
I1
I0
tp3303
bS'doma'
p3304
tp3305
Rp3306
sg78
g12
(g13
(S'S4'
p3307
I0
I1
tp3308
Rp3309
(I3
S'|'
p3310
NNNI4
I1
I0
tp3311
bS'null'
p3312
tp3313
Rp3314
sg87
g12
(g13
(S'S1'
p3315
I0
I1
tp3316
Rp3317
(I3
S'|'
p3318
NNNI1
I1
I0
tp3319
bg28
tp3320
Rp3321
ssV353882
p3322
(dp3323
g10
I0
sg11
g12
(g13
(S'S52'
p3324
I0
I1
tp3325
Rp3326
(I3
S'|'
p3327
NNNI52
I1
I0
tp3328
bS'anglicky, nemecky, a hadamze aj slovensky,a cesky =p'
p3329
tp3330
Rp3331
sg22
g12
(g13
(S'S1'
p3332
I0
I1
tp3333
Rp3334
(I3
S'|'
p3335
NNNI1
I1
I0
tp3336
bg57
tp3337
Rp3338
sg31
g12
(g13
(S'S24'
p3339
I0
I1
tp3340
Rp3341
(I3
S'|'
p3342
NNNI24
I1
I0
tp3343
bS'zilinsky kraj, namestovo'
p3344
tp3345
Rp3346
sg40
g12
(g13
(S'S187'
p3347
I0
I1
tp3348
Rp3349
(I3
S'|'
p3350
NNNI187
I1
I0
tp3351
bS'sportovanie, cestovanie, surfovanie po webe, pocuvanie hudby, pozeranie filmov, malovanie, tancovanie, diskoteky, kupalisko, jedlo, kino, party, priatelia, spanie, nakupovanie, stanovanie'
p3352
tp3353
Rp3354
sg49
I0
sg50
I1
sg51
g12
(g13
(S'S2'
p3355
I0
I1
tp3356
Rp3357
(I3
S'|'
p3358
NNNI2
I1
I0
tp3359
bS'16'
p3360
tp3361
Rp3362
sg60
g12
(g13
(S'S4'
p3363
I0
I1
tp3364
Rp3365
(I3
S'|'
p3366
NNNI4
I1
I0
tp3367
bS'null'
p3368
tp3369
Rp3370
sg69
g12
(g13
(S'S42'
p3371
I0
I1
tp3372
Rp3373
(I3
S'|'
p3374
NNNI42
I1
I0
tp3375
bS'pri telke, v dobrej restauracii, v posteli'
p3376
tp3377
Rp3378
sg78
g12
(g13
(S'S4'
p3379
I0
I1
tp3380
Rp3381
(I3
S'|'
p3382
NNNI4
I1
I0
tp3383
bS'null'
p3384
tp3385
Rp3386
sg87
g12
(g13
(S'S1'
p3387
I0
I1
tp3388
Rp3389
(I3
S'|'
p3390
NNNI1
I1
I0
tp3391
bg28
tp3392
Rp3393
ssV143439
p3394
(dp3395
g10
I0
sg11
g12
(g13
(S'S20'
p3396
I0
I1
tp3397
Rp3398
(I3
S'|'
p3399
NNNI20
I1
I0
tp3400
bS'anglicky, francuzsky'
p3401
tp3402
Rp3403
sg22
g12
(g13
(S'S1'
p3404
I0
I1
tp3405
Rp3406
(I3
S'|'
p3407
NNNI1
I1
I0
tp3408
bg57
tp3409
Rp3410
sg31
g12
(g13
(S'S22'
p3411
I0
I1
tp3412
Rp3413
(I3
S'|'
p3414
NNNI22
I1
I0
tp3415
bS'kosicky kraj, trebisov'
p3416
tp3417
Rp3418
sg40
g12
(g13
(S'S38'
p3419
I0
I1
tp3420
Rp3421
(I3
S'|'
p3422
NNNI38
I1
I0
tp3423
bS'fotografovanie, pocuvanie hudby, spev '
p3424
tp3425
Rp3426
sg49
I0
sg50
I1
sg51
g12
(g13
(S'S2'
p3427
I0
I1
tp3428
Rp3429
(I3
S'|'
p3430
NNNI2
I1
I0
tp3431
bS'17'
p3432
tp3433
Rp3434
sg60
g12
(g13
(S'S8'
p3435
I0
I1
tp3436
Rp3437
(I3
S'|'
p3438
NNNI8
I1
I0
tp3439
bS'zakladne'
p3440
tp3441
Rp3442
sg69
g12
(g13
(S'S4'
p3443
I0
I1
tp3444
Rp3445
(I3
S'|'
p3446
NNNI4
I1
I0
tp3447
bS'null'
p3448
tp3449
Rp3450
sg78
g12
(g13
(S'S4'
p3451
I0
I1
tp3452
Rp3453
(I3
S'|'
p3454
NNNI4
I1
I0
tp3455
bS'null'
p3456
tp3457
Rp3458
sg87
g12
(g13
(S'S1'
p3459
I0
I1
tp3460
Rp3461
(I3
S'|'
p3462
NNNI1
I1
I0
tp3463
bg57
tp3464
Rp3465
ssV207314
p3466
(dp3467
g10
I0
sg11
g12
(g13
(S'S4'
p3468
I0
I1
tp3469
Rp3470
(I3
S'|'
p3471
NNNI4
I1
I0
tp3472
bS'null'
p3473
tp3474
Rp3475
sg22
g12
(g13
(S'S1'
p3476
I0
I1
tp3477
Rp3478
(I3
S'|'
p3479
NNNI1
I1
I0
tp3480
bg28
tp3481
Rp3482
sg31
g12
(g13
(S'S22'
p3483
I0
I1
tp3484
Rp3485
(I3
S'|'
p3486
NNNI22
I1
I0
tp3487
bS'nitriansky kraj, nitra'
p3488
tp3489
Rp3490
sg40
g12
(g13
(S'S4'
p3491
I0
I1
tp3492
Rp3493
(I3
S'|'
p3494
NNNI4
I1
I0
tp3495
bS'null'
p3496
tp3497
Rp3498
sg49
I0
sg50
I1
sg51
g12
(g13
(S'S2'
p3499
I0
I1
tp3500
Rp3501
(I3
S'|'
p3502
NNNI2
I1
I0
tp3503
bS'18'
p3504
tp3505
Rp3506
sg60
g12
(g13
(S'S4'
p3507
I0
I1
tp3508
Rp3509
(I3
S'|'
p3510
NNNI4
I1
I0
tp3511
bS'null'
p3512
tp3513
Rp3514
sg69
g12
(g13
(S'S4'
p3515
I0
I1
tp3516
Rp3517
(I3
S'|'
p3518
NNNI4
I1
I0
tp3519
bS'null'
p3520
tp3521
Rp3522
sg78
g12
(g13
(S'S4'
p3523
I0
I1
tp3524
Rp3525
(I3
S'|'
p3526
NNNI4
I1
I0
tp3527
bS'null'
p3528
tp3529
Rp3530
sg87
g12
(g13
(S'S1'
p3531
I0
I1
tp3532
Rp3533
(I3
S'|'
p3534
NNNI1
I1
I0
tp3535
bg57
tp3536
Rp3537
ssV75533
p3538
(dp3539
g10
I0
sg11
g12
(g13
(S'S11'
p3540
I0
I1
tp3541
Rp3542
(I3
S'|'
p3543
NNNI11
I1
I0
tp3544
bS'moj vlastny'
p3545
tp3546
Rp3547
sg22
g12
(g13
(S'S1'
p3548
I0
I1
tp3549
Rp3550
(I3
S'|'
p3551
NNNI1
I1
I0
tp3552
bg28
tp3553
Rp3554
sg31
g12
(g13
(S'S21'
p3555
I0
I1
tp3556
Rp3557
(I3
S'|'
p3558
NNNI21
I1
I0
tp3559
bS'kosicky kraj, roznava'
p3560
tp3561
Rp3562
sg40
g12
(g13
(S'S98'
p3563
I0
I1
tp3564
Rp3565
(I3
S'|'
p3566
NNNI98
I1
I0
tp3567
bS'praca s pc, pocuvanie hudby, pozeranie filmov, priatelia, najkrajsia zaluba a vasen je moj anjelik'
p3568
tp3569
Rp3570
sg49
I0
sg50
I1
sg51
g12
(g13
(S'S2'
p3571
I0
I1
tp3572
Rp3573
(I3
S'|'
p3574
NNNI2
I1
I0
tp3575
bS'24'
p3576
tp3577
Rp3578
sg60
g12
(g13
(S'S34'
p3579
I0
I1
tp3580
Rp3581
(I3
S'|'
p3582
NNNI34
I1
I0
tp3583
bS'stredoskolske, uspesne po maturach'
p3584
tp3585
Rp3586
sg69
g12
(g13
(S'S9'
p3587
I0
I1
tp3588
Rp3589
(I3
S'|'
p3590
NNNI9
I1
I0
tp3591
bS'pri telke'
p3592
tp3593
Rp3594
sg78
g12
(g13
(S'S4'
p3595
I0
I1
tp3596
Rp3597
(I3
S'|'
p3598
NNNI4
I1
I0
tp3599
bS'null'
p3600
tp3601
Rp3602
sg87
g12
(g13
(S'S1'
p3603
I0
I1
tp3604
Rp3605
(I3
S'|'
p3606
NNNI1
I1
I0
tp3607
bg28
tp3608
Rp3609
ssV515060
p3610
(dp3611
g10
I0
sg11
g12
(g13
(S'S4'
p3612
I0
I1
tp3613
Rp3614
(I3
S'|'
p3615
NNNI4
I1
I0
tp3616
bS'null'
p3617
tp3618
Rp3619
sg22
g12
(g13
(S'S1'
p3620
I0
I1
tp3621
Rp3622
(I3
S'|'
p3623
NNNI1
I1
I0
tp3624
bg28
tp3625
Rp3626
sg31
g12
(g13
(S'S24'
p3627
I0
I1
tp3628
Rp3629
(I3
S'|'
p3630
NNNI24
I1
I0
tp3631
bS'kosicky kraj, michalovce'
p3632
tp3633
Rp3634
sg40
g12
(g13
(S'S36'
p3635
I0
I1
tp3636
Rp3637
(I3
S'|'
p3638
NNNI36
I1
I0
tp3639
bS'auto fet hudba jedine rytmus blubery'
p3640
tp3641
Rp3642
sg49
I0
sg50
I0
sg51
g12
(g13
(S'S1'
p3643
I0
I1
tp3644
Rp3645
(I3
S'|'
p3646
NNNI1
I1
I0
tp3647
bg57
tp3648
Rp3649
sg60
g12
(g13
(S'S4'
p3650
I0
I1
tp3651
Rp3652
(I3
S'|'
p3653
NNNI4
I1
I0
tp3654
bS'null'
p3655
tp3656
Rp3657
sg69
g12
(g13
(S'S4'
p3658
I0
I1
tp3659
Rp3660
(I3
S'|'
p3661
NNNI4
I1
I0
tp3662
bS'null'
p3663
tp3664
Rp3665
sg78
g12
(g13
(S'S4'
p3666
I0
I1
tp3667
Rp3668
(I3
S'|'
p3669
NNNI4
I1
I0
tp3670
bS'null'
p3671
tp3672
Rp3673
sg87
g12
(g13
(S'S1'
p3674
I0
I1
tp3675
Rp3676
(I3
S'|'
p3677
NNNI1
I1
I0
tp3678
bg28
tp3679
Rp3680
ssV617342
p3681
(dp3682
g10
I0
sg11
g12
(g13
(S'S4'
p3683
I0
I1
tp3684
Rp3685
(I3
S'|'
p3686
NNNI4
I1
I0
tp3687
bS'null'
p3688
tp3689
Rp3690
sg22
g12
(g13
(S'S1'
p3691
I0
I1
tp3692
Rp3693
(I3
S'|'
p3694
NNNI1
I1
I0
tp3695
bg57
tp3696
Rp3697
sg31
g12
(g13
(S'S28'
p3698
I0
I1
tp3699
Rp3700
(I3
S'|'
p3701
NNNI28
I1
I0
tp3702
bS'kosicky kraj, kosice - zapad'
p3703
tp3704
Rp3705
sg40
g12
(g13
(S'S41'
p3706
I0
I1
tp3707
Rp3708
(I3
S'|'
p3709
NNNI41
I1
I0
tp3710
bS'kreslenie, fotenie, a mam rada basketball'
p3711
tp3712
Rp3713
sg49
I0
sg50
I1
sg51
g12
(g13
(S'S2'
p3714
I0
I1
tp3715
Rp3716
(I3
S'|'
p3717
NNNI2
I1
I0
tp3718
bS'22'
p3719
tp3720
Rp3721
sg60
g12
(g13
(S'S4'
p3722
I0
I1
tp3723
Rp3724
(I3
S'|'
p3725
NNNI4
I1
I0
tp3726
bS'null'
p3727
tp3728
Rp3729
sg69
g12
(g13
(S'S19'
p3730
I0
I1
tp3731
Rp3732
(I3
S'|'
p3733
NNNI19
I1
I0
tp3734
bS'ked som hladna ....'
p3735
tp3736
Rp3737
sg78
g12
(g13
(S'S4'
p3738
I0
I1
tp3739
Rp3740
(I3
S'|'
p3741
NNNI4
I1
I0
tp3742
bS'null'
p3743
tp3744
Rp3745
sg87
g12
(g13
(S'S1'
p3746
I0
I1
tp3747
Rp3748
(I3
S'|'
p3749
NNNI1
I1
I0
tp3750
bg28
tp3751
Rp3752
ssV425879
p3753
(dp3754
g10
I0
sg11
g12
(g13
(S'S7'
p3755
I0
I1
tp3756
Rp3757
(I3
S'|'
p3758
NNNI7
I1
I0
tp3759
bS'nemecky'
p3760
tp3761
Rp3762
sg22
g12
(g13
(S'S1'
p3763
I0
I1
tp3764
Rp3765
(I3
S'|'
p3766
NNNI1
I1
I0
tp3767
bg57
tp3768
Rp3769
sg31
g12
(g13
(S'S22'
p3770
I0
I1
tp3771
Rp3772
(I3
S'|'
p3773
NNNI22
I1
I0
tp3774
bS'zilinsky kraj, trstena'
p3775
tp3776
Rp3777
sg40
g12
(g13
(S'S86'
p3778
I0
I1
tp3779
Rp3780
(I3
S'|'
p3781
NNNI86
I1
I0
tp3782
bS'sportovanie, pc hry, citanie, pocuvanie hudby, diskoteky, kupalisko, kino, nakupovanie'
p3783
tp3784
Rp3785
sg49
I0
sg50
I1
sg51
g12
(g13
(S'S1'
p3786
I0
I1
tp3787
Rp3788
(I3
S'|'
p3789
NNNI1
I1
I0
tp3790
bg57
tp3791
Rp3792
sg60
g12
(g13
(S'S8'
p3793
I0
I1
tp3794
Rp3795
(I3
S'|'
p3796
NNNI8
I1
I0
tp3797
bS'zakladne'
p3798
tp3799
Rp3800
sg69
g12
(g13
(S'S31'
p3801
I0
I1
tp3802
Rp3803
(I3
S'|'
p3804
NNNI31
I1
I0
tp3805
bS'pri telke, v dobrej restauracii'
p3806
tp3807
Rp3808
sg78
g12
(g13
(S'S4'
p3809
I0
I1
tp3810
Rp3811
(I3
S'|'
p3812
NNNI4
I1
I0
tp3813
bS'null'
p3814
tp3815
Rp3816
sg87
g12
(g13
(S'S1'
p3817
I0
I1
tp3818
Rp3819
(I3
S'|'
p3820
NNNI1
I1
I0
tp3821
bg28
tp3822
Rp3823
ssV417224
p3824
(dp3825
g10
I0
sg11
g12
(g13
(S'S18'
p3826
I0
I1
tp3827
Rp3828
(I3
S'|'
p3829
NNNI18
I1
I0
tp3830
bS'anglicky, madarsky'
p3831
tp3832
Rp3833
sg22
g12
(g13
(S'S1'
p3834
I0
I1
tp3835
Rp3836
(I3
S'|'
p3837
NNNI1
I1
I0
tp3838
bg28
tp3839
Rp3840
sg31
g12
(g13
(S'S27'
p3841
I0
I1
tp3842
Rp3843
(I3
S'|'
p3844
NNNI27
I1
I0
tp3845
bS'nitriansky kraj, zeliezovce'
p3846
tp3847
Rp3848
sg40
g12
(g13
(S'S135'
p3849
I0
I1
tp3850
Rp3851
(I3
S'|'
p3852
NNNI135
I1
I0
tp3853
bS'sportovanie, cestovanie, sitie, praca s pc, surfovanie po webe, pocuvanie hudby, pozeranie filmov, party, priatelia, spanie, stanovanie'
p3854
tp3855
Rp3856
sg49
I0
sg50
I0
sg51
g12
(g13
(S'S2'
p3857
I0
I1
tp3858
Rp3859
(I3
S'|'
p3860
NNNI2
I1
I0
tp3861
bS'20'
p3862
tp3863
Rp3864
sg60
g12
(g13
(S'S17'
p3865
I0
I1
tp3866
Rp3867
(I3
S'|'
p3868
NNNI17
I1
I0
tp3869
bS'zakladne, skvolka'
p3870
tp3871
Rp3872
sg69
g12
(g13
(S'S31'
p3873
I0
I1
tp3874
Rp3875
(I3
S'|'
p3876
NNNI31
I1
I0
tp3877
bS'pri telke, v dobrej restauracii'
p3878
tp3879
Rp3880
sg78
g12
(g13
(S'S4'
p3881
I0
I1
tp3882
Rp3883
(I3
S'|'
p3884
NNNI4
I1
I0
tp3885
bS'null'
p3886
tp3887
Rp3888
sg87
g12
(g13
(S'S1'
p3889
I0
I1
tp3890
Rp3891
(I3
S'|'
p3892
NNNI1
I1
I0
tp3893
bg57
tp3894
Rp3895
ssV350464
p3896
(dp3897
g10
I0
sg11
g12
(g13
(S'S28'
p3898
I0
I1
tp3899
Rp3900
(I3
S'|'
p3901
NNNI28
I1
I0
tp3902
bS'anglicky, taliansky, nemecky'
p3903
tp3904
Rp3905
sg22
g12
(g13
(S'S1'
p3906
I0
I1
tp3907
Rp3908
(I3
S'|'
p3909
NNNI1
I1
I0
tp3910
bg57
tp3911
Rp3912
sg31
g12
(g13
(S'S42'
p3913
I0
I1
tp3914
Rp3915
(I3
S'|'
p3916
NNNI42
I1
I0
tp3917
bS'kosicky kraj, kosice - dargovskych hrdinov'
p3918
tp3919
Rp3920
sg40
g12
(g13
(S'S215'
p3921
I0
I1
tp3922
Rp3923
(I3
S'|'
p3924
NNNI215
I1
I0
tp3925
bS'stanovanie, nakupovanie, spanie, party, kupalisko, tancovanie, pozeranie filmov, pc hry, sportovanie, fotografovanie, turistika, praca s pc, surfovanie po webe, pocuvanie hudby, malovanie, diskoteky, kino, priatelia'
p3926
tp3927
Rp3928
sg49
I0
sg50
I1
sg51
g12
(g13
(S'S2'
p3929
I0
I1
tp3930
Rp3931
(I3
S'|'
p3932
NNNI2
I1
I0
tp3933
bS'15'
p3934
tp3935
Rp3936
sg60
g12
(g13
(S'S4'
p3937
I0
I1
tp3938
Rp3939
(I3
S'|'
p3940
NNNI4
I1
I0
tp3941
bS'null'
p3942
tp3943
Rp3944
sg69
g12
(g13
(S'S4'
p3945
I0
I1
tp3946
Rp3947
(I3
S'|'
p3948
NNNI4
I1
I0
tp3949
bS'null'
p3950
tp3951
Rp3952
sg78
g12
(g13
(S'S298'
p3953
I0
I1
tp3954
Rp3955
(I3
S'|'
p3956
NNNI298
I1
I0
tp3957
bS'<div> <a title="vstup do klubu" href="/klub/extremna-premena-v-photoshope-to-musite-vidiet">extremna premena v photoshope&shy;. . . - . . . to musite vidiet</a> &bull;  <a title="vstup do klubu" href="/klub/na-pisomke-po-minute-to-co-je-more-d-d">na pisomke po minute ..to co je more:d:d</a> </div>'
p3958
tp3959
Rp3960
sg87
g12
(g13
(S'S1'
p3961
I0
I1
tp3962
Rp3963
(I3
S'|'
p3964
NNNI1
I1
I0
tp3965
bg57
tp3966
Rp3967
ssV132661
p3968
(dp3969
g10
I0
sg11
g12
(g13
(S'S58'
p3970
I0
I1
tp3971
Rp3972
(I3
S'|'
p3973
NNNI58
I1
I0
tp3974
bS'ten svoj naaajlepiee, po anglicky a nemecky sa iba ucim xd'
p3975
tp3976
Rp3977
sg22
g12
(g13
(S'S1'
p3978
I0
I1
tp3979
Rp3980
(I3
S'|'
p3981
NNNI1
I1
I0
tp3982
bg57
tp3983
Rp3984
sg31
g12
(g13
(S'S32'
p3985
I0
I1
tp3986
Rp3987
(I3
S'|'
p3988
NNNI32
I1
I0
tp3989
bS'zahranicie, zahranicie - ostatne'
p3990
tp3991
Rp3992
sg40
g12
(g13
(S'S141'
p3993
I0
I1
tp3994
Rp3995
(I3
S'|'
p3996
NNNI141
I1
I0
tp3997
bS'fotografovanie, surfovanie po webe, pocuvanie hudby, pozeranie filmov, tancovanie, kupalisko, kino, party, priatelia, nakupovanie, stanovanie'
p3998
tp3999
Rp4000
sg49
I0
sg50
I1
sg51
g12
(g13
(S'S1'
p4001
I0
I1
tp4002
Rp4003
(I3
S'|'
p4004
NNNI1
I1
I0
tp4005
bg57
tp4006
Rp4007
sg60
g12
(g13
(S'S11'
p4008
I0
I1
tp4009
Rp4010
(I3
S'|'
p4011
NNNI11
I1
I0
tp4012
bS'zakladne xd'
p4013
tp4014
Rp4015
sg69
g12
(g13
(S'S36'
p4016
I0
I1
tp4017
Rp4018
(I3
S'|'
p4019
NNNI36
I1
I0
tp4020
bS'pri telqe...pri pc..v posteli....xdd'
p4021
tp4022
Rp4023
sg78
g12
(g13
(S'S224'
p4024
I0
I1
tp4025
Rp4026
(I3
S'|'
p4027
NNNI224
I1
I0
tp4028
bS'<div> <a title="vstup do klubu" href="/klub/viem-ze-nic-neviem-xd-a-ani-to-neviem-xd">viem ze nic neviem xd a ani to neviem xd</a> &bull;  <a title="vstup do klubu" href="/klub/ssos-animus-1">ssos animus / levicka</a> </div>'
p4029
tp4030
Rp4031
sg87
g12
(g13
(S'S1'
p4032
I0
I1
tp4033
Rp4034
(I3
S'|'
p4035
NNNI1
I1
I0
tp4036
bg57
tp4037
Rp4038
ssV350773
p4039
(dp4040
g10
I0
sg11
g12
(g13
(S'S4'
p4041
I0
I1
tp4042
Rp4043
(I3
S'|'
p4044
NNNI4
I1
I0
tp4045
bS'null'
p4046
tp4047
Rp4048
sg22
g12
(g13
(S'S1'
p4049
I0
I1
tp4050
Rp4051
(I3
S'|'
p4052
NNNI1
I1
I0
tp4053
bg57
tp4054
Rp4055
sg31
g12
(g13
(S'S21'
p4056
I0
I1
tp4057
Rp4058
(I3
S'|'
p4059
NNNI21
I1
I0
tp4060
bS'kosicky kraj, roznava'
p4061
tp4062
Rp4063
sg40
g12
(g13
(S'S4'
p4064
I0
I1
tp4065
Rp4066
(I3
S'|'
p4067
NNNI4
I1
I0
tp4068
bS'null'
p4069
tp4070
Rp4071
sg49
I0
sg50
I1
sg51
g12
(g13
(S'S2'
p4072
I0
I1
tp4073
Rp4074
(I3
S'|'
p4075
NNNI2
I1
I0
tp4076
bS'19'
p4077
tp4078
Rp4079
sg60
g12
(g13
(S'S4'
p4080
I0
I1
tp4081
Rp4082
(I3
S'|'
p4083
NNNI4
I1
I0
tp4084
bS'null'
p4085
tp4086
Rp4087
sg69
g12
(g13
(S'S4'
p4088
I0
I1
tp4089
Rp4090
(I3
S'|'
p4091
NNNI4
I1
I0
tp4092
bS'null'
p4093
tp4094
Rp4095
sg78
g12
(g13
(S'S227'
p4096
I0
I1
tp4097
Rp4098
(I3
S'|'
p4099
NNNI227
I1
I0
tp4100
bS'<div> <a title="vstup do klubu" href="/klub/oarv">oarv</a> &bull;  <a title="vstup do klubu" href="/klub/naco-chodit-do-skoly-ked-desiatu-mozem-zjest-aj-doma-2">naco chodit do skoly ked desiatu mozem zjest aj doma :)</a> </div>'
p4101
tp4102
Rp4103
sg87
g12
(g13
(S'S1'
p4104
I0
I1
tp4105
Rp4106
(I3
S'|'
p4107
NNNI1
I1
I0
tp4108
bg28
tp4109
Rp4110
ssV359345
p4111
(dp4112
g10
I0
sg11
g12
(g13
(S'S75'
p4113
I0
I1
tp4114
Rp4115
(I3
S'|'
p4116
NNNI75
I1
I0
tp4117
bS'ako tak nemecky , spanielcina a anglictina ma zaujima , takze postupne.. :)'
p4118
tp4119
Rp4120
sg22
g12
(g13
(S'S1'
p4121
I0
I1
tp4122
Rp4123
(I3
S'|'
p4124
NNNI1
I1
I0
tp4125
bg57
tp4126
Rp4127
sg31
g12
(g13
(S'S23'
p4128
I0
I1
tp4129
Rp4130
(I3
S'|'
p4131
NNNI23
I1
I0
tp4132
bS'nitriansky kraj, vrable'
p4133
tp4134
Rp4135
sg40
g12
(g13
(S'S224'
p4136
I0
I1
tp4137
Rp4138
(I3
S'|'
p4139
NNNI224
I1
I0
tp4140
bS'spanie, nakupovanie, stanovanie, jedlo, kupalisko, pozeranie filmov, prace okolo domu, domace prace, sportovanie, fotografovanie, prace v zahrade, oslavy , surfovanie po webe, pocuvanie hudby, priatelia , prechadzanie sa ...'
p4141
tp4142
Rp4143
sg49
I0
sg50
I1
sg51
g12
(g13
(S'S2'
p4144
I0
I1
tp4145
Rp4146
(I3
S'|'
p4147
NNNI2
I1
I0
tp4148
bS'20'
p4149
tp4150
Rp4151
sg60
g12
(g13
(S'S8'
p4152
I0
I1
tp4153
Rp4154
(I3
S'|'
p4155
NNNI8
I1
I0
tp4156
bS'zakladne'
p4157
tp4158
Rp4159
sg69
g12
(g13
(S'S57'
p4160
I0
I1
tp4161
Rp4162
(I3
S'|'
p4163
NNNI57
I1
I0
tp4164
bS'pri telke, v dobrej restauracii, v posteli a z ruky :d ha'
p4165
tp4166
Rp4167
sg78
g12
(g13
(S'S4'
p4168
I0
I1
tp4169
Rp4170
(I3
S'|'
p4171
NNNI4
I1
I0
tp4172
bS'null'
p4173
tp4174
Rp4175
sg87
g12
(g13
(S'S1'
p4176
I0
I1
tp4177
Rp4178
(I3
S'|'
p4179
NNNI1
I1
I0
tp4180
bg28
tp4181
Rp4182
ssV606495
p4183
(dp4184
g10
I0
sg11
g12
(g13
(S'S17'
p4185
I0
I1
tp4186
Rp4187
(I3
S'|'
p4188
NNNI17
I1
I0
tp4189
bS'anglicky, nemecky'
p4190
tp4191
Rp4192
sg22
g12
(g13
(S'S1'
p4193
I0
I1
tp4194
Rp4195
(I3
S'|'
p4196
NNNI1
I1
I0
tp4197
bg28
tp4198
Rp4199
sg31
g12
(g13
(S'S21'
p4200
I0
I1
tp4201
Rp4202
(I3
S'|'
p4203
NNNI21
I1
I0
tp4204
bS'kosicky kraj, dobsina'
p4205
tp4206
Rp4207
sg40
g12
(g13
(S'S89'
p4208
I0
I1
tp4209
Rp4210
(I3
S'|'
p4211
NNNI89
I1
I0
tp4212
bS'sportovanie, pc hry, pozeranie filmov, jedlo, turistika, praca s pc, kino, priatelia, sex'
p4213
tp4214
Rp4215
sg49
I0
sg50
I1
sg51
g12
(g13
(S'S2'
p4216
I0
I1
tp4217
Rp4218
(I3
S'|'
p4219
NNNI2
I1
I0
tp4220
bS'30'
p4221
tp4222
Rp4223
sg60
g12
(g13
(S'S13'
p4224
I0
I1
tp4225
Rp4226
(I3
S'|'
p4227
NNNI13
I1
I0
tp4228
bS'vysokoskolske'
p4229
tp4230
Rp4231
sg69
g12
(g13
(S'S25'
p4232
I0
I1
tp4233
Rp4234
(I3
S'|'
p4235
NNNI25
I1
I0
tp4236
bS'pri svieckach s partnerom'
p4237
tp4238
Rp4239
sg78
g12
(g13
(S'S4'
p4240
I0
I1
tp4241
Rp4242
(I3
S'|'
p4243
NNNI4
I1
I0
tp4244
bS'null'
p4245
tp4246
Rp4247
sg87
g12
(g13
(S'S1'
p4248
I0
I1
tp4249
Rp4250
(I3
S'|'
p4251
NNNI1
I1
I0
tp4252
bg28
tp4253
Rp4254
ssV359343
p4255
(dp4256
g10
I0
sg11
g12
(g13
(S'S4'
p4257
I0
I1
tp4258
Rp4259
(I3
S'|'
p4260
NNNI4
I1
I0
tp4261
bS'null'
p4262
tp4263
Rp4264
sg22
g12
(g13
(S'S1'
p4265
I0
I1
tp4266
Rp4267
(I3
S'|'
p4268
NNNI1
I1
I0
tp4269
bg57
tp4270
Rp4271
sg31
g12
(g13
(S'S23'
p4272
I0
I1
tp4273
Rp4274
(I3
S'|'
p4275
NNNI23
I1
I0
tp4276
bS'nitriansky kraj, vrable'
p4277
tp4278
Rp4279
sg40
g12
(g13
(S'S4'
p4280
I0
I1
tp4281
Rp4282
(I3
S'|'
p4283
NNNI4
I1
I0
tp4284
bS'null'
p4285
tp4286
Rp4287
sg49
I0
sg50
I1
sg51
g12
(g13
(S'S2'
p4288
I0
I1
tp4289
Rp4290
(I3
S'|'
p4291
NNNI2
I1
I0
tp4292
bS'18'
p4293
tp4294
Rp4295
sg60
g12
(g13
(S'S4'
p4296
I0
I1
tp4297
Rp4298
(I3
S'|'
p4299
NNNI4
I1
I0
tp4300
bS'null'
p4301
tp4302
Rp4303
sg69
g12
(g13
(S'S4'
p4304
I0
I1
tp4305
Rp4306
(I3
S'|'
p4307
NNNI4
I1
I0
tp4308
bS'null'
p4309
tp4310
Rp4311
sg78
g12
(g13
(S'S135'
p4312
I0
I1
tp4313
Rp4314
(I3
S'|'
p4315
NNNI135
I1
I0
tp4316
bS'<div> <a title="vstup do klubu" href="/klub/na-pisomke-po-minute-to-co-je-more-d-d">na pisomke po minute ..to co je more:d:d</a> </div>'
p4317
tp4318
Rp4319
sg87
g12
(g13
(S'S1'
p4320
I0
I1
tp4321
Rp4322
(I3
S'|'
p4323
NNNI1
I1
I0
tp4324
bg28
tp4325
Rp4326
ssV267508
p4327
(dp4328
g10
I0
sg11
g12
(g13
(S'S17'
p4329
I0
I1
tp4330
Rp4331
(I3
S'|'
p4332
NNNI17
I1
I0
tp4333
bS'anglicky, nemecky'
p4334
tp4335
Rp4336
sg22
g12
(g13
(S'S1'
p4337
I0
I1
tp4338
Rp4339
(I3
S'|'
p4340
NNNI1
I1
I0
tp4341
bg57
tp4342
Rp4343
sg31
g12
(g13
(S'S29'
p4344
I0
I1
tp4345
Rp4346
(I3
S'|'
p4347
NNNI29
I1
I0
tp4348
bS'banskobystricky kraj, tornala'
p4349
tp4350
Rp4351
sg40
g12
(g13
(S'S24'
p4352
I0
I1
tp4353
Rp4354
(I3
S'|'
p4355
NNNI24
I1
I0
tp4356
bS'a misi bend mentsegggggg'
p4357
tp4358
Rp4359
sg49
I0
sg50
I1
sg51
g12
(g13
(S'S1'
p4360
I0
I1
tp4361
Rp4362
(I3
S'|'
p4363
NNNI1
I1
I0
tp4364
bg57
tp4365
Rp4366
sg60
g12
(g13
(S'S4'
p4367
I0
I1
tp4368
Rp4369
(I3
S'|'
p4370
NNNI4
I1
I0
tp4371
bS'null'
p4372
tp4373
Rp4374
sg69
g12
(g13
(S'S4'
p4375
I0
I1
tp4376
Rp4377
(I3
S'|'
p4378
NNNI4
I1
I0
tp4379
bS'null'
p4380
tp4381
Rp4382
sg78
g12
(g13
(S'S4'
p4383
I0
I1
tp4384
Rp4385
(I3
S'|'
p4386
NNNI4
I1
I0
tp4387
bS'null'
p4388
tp4389
Rp4390
sg87
g12
(g13
(S'S1'
p4391
I0
I1
tp4392
Rp4393
(I3
S'|'
p4394
NNNI1
I1
I0
tp4395
bg28
tp4396
Rp4397
ssV583932
p4398
(dp4399
g10
I0
sg11
g12
(g13
(S'S4'
p4400
I0
I1
tp4401
Rp4402
(I3
S'|'
p4403
NNNI4
I1
I0
tp4404
bS'null'
p4405
tp4406
Rp4407
sg22
g12
(g13
(S'S1'
p4408
I0
I1
tp4409
Rp4410
(I3
S'|'
p4411
NNNI1
I1
I0
tp4412
bg57
tp4413
Rp4414
sg31
g12
(g13
(S'S31'
p4415
I0
I1
tp4416
Rp4417
(I3
S'|'
p4418
NNNI31
I1
I0
tp4419
bS'banskobystricky kraj, nova bana'
p4420
tp4421
Rp4422
sg40
g12
(g13
(S'S4'
p4423
I0
I1
tp4424
Rp4425
(I3
S'|'
p4426
NNNI4
I1
I0
tp4427
bS'null'
p4428
tp4429
Rp4430
sg49
I0
sg50
I1
sg51
g12
(g13
(S'S2'
p4431
I0
I1
tp4432
Rp4433
(I3
S'|'
p4434
NNNI2
I1
I0
tp4435
bS'17'
p4436
tp4437
Rp4438
sg60
g12
(g13
(S'S4'
p4439
I0
I1
tp4440
Rp4441
(I3
S'|'
p4442
NNNI4
I1
I0
tp4443
bS'null'
p4444
tp4445
Rp4446
sg69
g12
(g13
(S'S4'
p4447
I0
I1
tp4448
Rp4449
(I3
S'|'
p4450
NNNI4
I1
I0
tp4451
bS'null'
p4452
tp4453
Rp4454
sg78
g12
(g13
(S'S4'
p4455
I0
I1
tp4456
Rp4457
(I3
S'|'
p4458
NNNI4
I1
I0
tp4459
bS'null'
p4460
tp4461
Rp4462
sg87
g12
(g13
(S'S1'
p4463
I0
I1
tp4464
Rp4465
(I3
S'|'
p4466
NNNI1
I1
I0
tp4467
bg28
tp4468
Rp4469
ssV333104
p4470
(dp4471
g10
I0
sg11
g12
(g13
(S'S93'
p4472
I0
I1
tp4473
Rp4474
(I3
S'|'
p4475
NNNI93
I1
I0
tp4476
bS'anglicky, madarsky,slovensky ... alhee thenn swohjj wemhh najlepshiee ... !!! :p :d xd ;) 8-)'
p4477
tp4478
Rp4479
sg22
g12
(g13
(S'S1'
p4480
I0
I1
tp4481
Rp4482
(I3
S'|'
p4483
NNNI1
I1
I0
tp4484
bg57
tp4485
Rp4486
sg31
g12
(g13
(S'S29'
p4487
I0
I1
tp4488
Rp4489
(I3
S'|'
p4490
NNNI29
I1
I0
tp4491
bS'banskobystricky kraj, tornala'
p4492
tp4493
Rp4494
sg40
g12
(g13
(S'S299'
p4495
I0
I1
tp4496
Rp4497
(I3
S'|'
p4498
NNNI299
I1
I0
tp4499
bS'tancovanhiie - hlawnhee !!! ptm : cestowhanie ,pozeranie filmow ,pc hry, beach - kupaliskhoo . !! :) party .. ,shopinghh ... ajhh tho welmhii .. !!! fotografowanhiee ... , turistikha,surfowanhi po webhe,pocuwanhie hudbyy,malhowanhie ,kinhoo-, priateliaa - (zabawa s priatelmi .. !! :p :d xd  ) , ...'
p4500
tp4501
Rp4502
sg49
I0
sg50
I1
sg51
g12
(g13
(S'S2'
p4503
I0
I1
tp4504
Rp4505
(I3
S'|'
p4506
NNNI2
I1
I0
tp4507
bS'15'
p4508
tp4509
Rp4510
sg60
g12
(g13
(S'S12'
p4511
I0
I1
tp4512
Rp4513
(I3
S'|'
p4514
NNNI12
I1
I0
tp4515
bS'zakladne ...'
p4516
tp4517
Rp4518
sg69
g12
(g13
(S'S88'
p4519
I0
I1
tp4520
Rp4521
(I3
S'|'
p4522
NNNI88
I1
I0
tp4523
bS'pri telke, v dobrej restauracii, v posteli ... hlawne s priathelhomhh .. !!! :p xd :d :)'
p4524
tp4525
Rp4526
sg78
g12
(g13
(S'S4'
p4527
I0
I1
tp4528
Rp4529
(I3
S'|'
p4530
NNNI4
I1
I0
tp4531
bS'null'
p4532
tp4533
Rp4534
sg87
g12
(g13
(S'S1'
p4535
I0
I1
tp4536
Rp4537
(I3
S'|'
p4538
NNNI1
I1
I0
tp4539
bg28
tp4540
Rp4541
ssV1174043
p4542
(dp4543
g10
I0
sg11
g12
(g13
(S'S4'
p4544
I0
I1
tp4545
Rp4546
(I3
S'|'
p4547
NNNI4
I1
I0
tp4548
bS'null'
p4549
tp4550
Rp4551
sg22
g12
(g13
(S'S1'
p4552
I0
I1
tp4553
Rp4554
(I3
S'|'
p4555
NNNI1
I1
I0
tp4556
bg28
tp4557
Rp4558
sg31
g12
(g13
(S'S30'
p4559
I0
I1
tp4560
Rp4561
(I3
S'|'
p4562
NNNI30
I1
I0
tp4563
bS'kosicky kraj, kralovsky chlmec'
p4564
tp4565
Rp4566
sg40
g12
(g13
(S'S4'
p4567
I0
I1
tp4568
Rp4569
(I3
S'|'
p4570
NNNI4
I1
I0
tp4571
bS'null'
p4572
tp4573
Rp4574
sg49
I0
sg50
I1
sg51
g12
(g13
(S'S2'
p4575
I0
I1
tp4576
Rp4577
(I3
S'|'
p4578
NNNI2
I1
I0
tp4579
bS'15'
p4580
tp4581
Rp4582
sg60
g12
(g13
(S'S4'
p4583
I0
I1
tp4584
Rp4585
(I3
S'|'
p4586
NNNI4
I1
I0
tp4587
bS'null'
p4588
tp4589
Rp4590
sg69
g12
(g13
(S'S4'
p4591
I0
I1
tp4592
Rp4593
(I3
S'|'
p4594
NNNI4
I1
I0
tp4595
bS'null'
p4596
tp4597
Rp4598
sg78
g12
(g13
(S'S4'
p4599
I0
I1
tp4600
Rp4601
(I3
S'|'
p4602
NNNI4
I1
I0
tp4603
bS'null'
p4604
tp4605
Rp4606
sg87
g12
(g13
(S'S1'
p4607
I0
I1
tp4608
Rp4609
(I3
S'|'
p4610
NNNI1
I1
I0
tp4611
bg28
tp4612
Rp4613
ssV333107
p4614
(dp4615
g10
I0
sg11
g12
(g13
(S'S26'
p4616
I0
I1
tp4617
Rp4618
(I3
S'|'
p4619
NNNI26
I1
I0
tp4620
bS'anglicky, nemecky,madarsky'
p4621
tp4622
Rp4623
sg22
g12
(g13
(S'S1'
p4624
I0
I1
tp4625
Rp4626
(I3
S'|'
p4627
NNNI1
I1
I0
tp4628
bg57
tp4629
Rp4630
sg31
g12
(g13
(S'S37'
p4631
I0
I1
tp4632
Rp4633
(I3
S'|'
p4634
NNNI37
I1
I0
tp4635
bS'banskobystricky kraj, rimavska sobota'
p4636
tp4637
Rp4638
sg40
g12
(g13
(S'S89'
p4639
I0
I1
tp4640
Rp4641
(I3
S'|'
p4642
NNNI89
I1
I0
tp4643
bS'party, spanie, sex, nakupovanie, pozeranie filmov, kupalisko, stanovanie, pocuvanie hudby'
p4644
tp4645
Rp4646
sg49
I0
sg50
I1
sg51
g12
(g13
(S'S2'
p4647
I0
I1
tp4648
Rp4649
(I3
S'|'
p4650
NNNI2
I1
I0
tp4651
bS'22'
p4652
tp4653
Rp4654
sg60
g12
(g13
(S'S13'
p4655
I0
I1
tp4656
Rp4657
(I3
S'|'
p4658
NNNI13
I1
I0
tp4659
bS'stredoskolske'
p4660
tp4661
Rp4662
sg69
g12
(g13
(S'S91'
p4663
I0
I1
tp4664
Rp4665
(I3
S'|'
p4666
NNNI91
I1
I0
tp4667
bS'z partnerovho bruska, v dobrej restauracii, v posteli, pri telke, pri svieckach s partnerom'
p4668
tp4669
Rp4670
sg78
g12
(g13
(S'S4'
p4671
I0
I1
tp4672
Rp4673
(I3
S'|'
p4674
NNNI4
I1
I0
tp4675
bS'null'
p4676
tp4677
Rp4678
sg87
g12
(g13
(S'S1'
p4679
I0
I1
tp4680
Rp4681
(I3
S'|'
p4682
NNNI1
I1
I0
tp4683
bg57
tp4684
Rp4685
ssV1250484
p4686
(dp4687
g10
I0
sg11
g12
(g13
(S'S8'
p4688
I0
I1
tp4689
Rp4690
(I3
S'|'
p4691
NNNI8
I1
I0
tp4692
bS'anglicky'
p4693
tp4694
Rp4695
sg22
g12
(g13
(S'S1'
p4696
I0
I1
tp4697
Rp4698
(I3
S'|'
p4699
NNNI1
I1
I0
tp4700
bg28
tp4701
Rp4702
sg31
g12
(g13
(S'S22'
p4703
I0
I1
tp4704
Rp4705
(I3
S'|'
p4706
NNNI22
I1
I0
tp4707
bS'kosicky kraj, trebisov'
p4708
tp4709
Rp4710
sg40
g12
(g13
(S'S47'
p4711
I0
I1
tp4712
Rp4713
(I3
S'|'
p4714
NNNI47
I1
I0
tp4715
bS'cestovanie, surfovanie po webe, pocuvanie hudby'
p4716
tp4717
Rp4718
sg49
I0
sg50
I1
sg51
g12
(g13
(S'S2'
p4719
I0
I1
tp4720
Rp4721
(I3
S'|'
p4722
NNNI2
I1
I0
tp4723
bS'33'
p4724
tp4725
Rp4726
sg60
g12
(g13
(S'S13'
p4727
I0
I1
tp4728
Rp4729
(I3
S'|'
p4730
NNNI13
I1
I0
tp4731
bS'vysokoskolske'
p4732
tp4733
Rp4734
sg69
g12
(g13
(S'S4'
p4735
I0
I1
tp4736
Rp4737
(I3
S'|'
p4738
NNNI4
I1
I0
tp4739
bS'null'
p4740
tp4741
Rp4742
sg78
g12
(g13
(S'S4'
p4743
I0
I1
tp4744
Rp4745
(I3
S'|'
p4746
NNNI4
I1
I0
tp4747
bS'null'
p4748
tp4749
Rp4750
sg87
g12
(g13
(S'S1'
p4751
I0
I1
tp4752
Rp4753
(I3
S'|'
p4754
NNNI1
I1
I0
tp4755
bg57
tp4756
Rp4757
ssV611023
p4758
(dp4759
g10
I0
sg11
g12
(g13
(S'S4'
p4760
I0
I1
tp4761
Rp4762
(I3
S'|'
p4763
NNNI4
I1
I0
tp4764
bS'null'
p4765
tp4766
Rp4767
sg22
g12
(g13
(S'S1'
p4768
I0
I1
tp4769
Rp4770
(I3
S'|'
p4771
NNNI1
I1
I0
tp4772
bg28
tp4773
Rp4774
sg31
g12
(g13
(S'S30'
p4775
I0
I1
tp4776
Rp4777
(I3
S'|'
p4778
NNNI30
I1
I0
tp4779
bS'kosicky kraj, spisska nova ves'
p4780
tp4781
Rp4782
sg40
g12
(g13
(S'S4'
p4783
I0
I1
tp4784
Rp4785
(I3
S'|'
p4786
NNNI4
I1
I0
tp4787
bS'null'
p4788
tp4789
Rp4790
sg49
I0
sg50
I0
sg51
g12
(g13
(S'S2'
p4791
I0
I1
tp4792
Rp4793
(I3
S'|'
p4794
NNNI2
I1
I0
tp4795
bS'24'
p4796
tp4797
Rp4798
sg60
g12
(g13
(S'S4'
p4799
I0
I1
tp4800
Rp4801
(I3
S'|'
p4802
NNNI4
I1
I0
tp4803
bS'null'
p4804
tp4805
Rp4806
sg69
g12
(g13
(S'S4'
p4807
I0
I1
tp4808
Rp4809
(I3
S'|'
p4810
NNNI4
I1
I0
tp4811
bS'null'
p4812
tp4813
Rp4814
sg78
g12
(g13
(S'S4'
p4815
I0
I1
tp4816
Rp4817
(I3
S'|'
p4818
NNNI4
I1
I0
tp4819
bS'null'
p4820
tp4821
Rp4822
sg87
g12
(g13
(S'S1'
p4823
I0
I1
tp4824
Rp4825
(I3
S'|'
p4826
NNNI1
I1
I0
tp4827
bg57
tp4828
Rp4829
ssV400411
p4830
(dp4831
g10
I0
sg11
g12
(g13
(S'S4'
p4832
I0
I1
tp4833
Rp4834
(I3
S'|'
p4835
NNNI4
I1
I0
tp4836
bS'null'
p4837
tp4838
Rp4839
sg22
g12
(g13
(S'S1'
p4840
I0
I1
tp4841
Rp4842
(I3
S'|'
p4843
NNNI1
I1
I0
tp4844
bg28
tp4845
Rp4846
sg31
g12
(g13
(S'S35'
p4847
I0
I1
tp4848
Rp4849
(I3
S'|'
p4850
NNNI35
I1
I0
tp4851
bS'ceska republika, cz - stredni cechy'
p4852
tp4853
Rp4854
sg40
g12
(g13
(S'S4'
p4855
I0
I1
tp4856
Rp4857
(I3
S'|'
p4858
NNNI4
I1
I0
tp4859
bS'null'
p4860
tp4861
Rp4862
sg49
I0
sg50
I1
sg51
g12
(g13
(S'S2'
p4863
I0
I1
tp4864
Rp4865
(I3
S'|'
p4866
NNNI2
I1
I0
tp4867
bS'32'
p4868
tp4869
Rp4870
sg60
g12
(g13
(S'S4'
p4871
I0
I1
tp4872
Rp4873
(I3
S'|'
p4874
NNNI4
I1
I0
tp4875
bS'null'
p4876
tp4877
Rp4878
sg69
g12
(g13
(S'S4'
p4879
I0
I1
tp4880
Rp4881
(I3
S'|'
p4882
NNNI4
I1
I0
tp4883
bS'null'
p4884
tp4885
Rp4886
sg78
g12
(g13
(S'S4'
p4887
I0
I1
tp4888
Rp4889
(I3
S'|'
p4890
NNNI4
I1
I0
tp4891
bS'null'
p4892
tp4893
Rp4894
sg87
g12
(g13
(S'S1'
p4895
I0
I1
tp4896
Rp4897
(I3
S'|'
p4898
NNNI1
I1
I0
tp4899
bg28
tp4900
Rp4901
ssV831239
p4902
(dp4903
g10
I0
sg11
g12
(g13
(S'S4'
p4904
I0
I1
tp4905
Rp4906
(I3
S'|'
p4907
NNNI4
I1
I0
tp4908
bS'null'
p4909
tp4910
Rp4911
sg22
g12
(g13
(S'S1'
p4912
I0
I1
tp4913
Rp4914
(I3
S'|'
p4915
NNNI1
I1
I0
tp4916
bg57
tp4917
Rp4918
sg31
g12
(g13
(S'S23'
p4919
I0
I1
tp4920
Rp4921
(I3
S'|'
p4922
NNNI23
I1
I0
tp4923
bS'nitriansky kraj, levice'
p4924
tp4925
Rp4926
sg40
g12
(g13
(S'S4'
p4927
I0
I1
tp4928
Rp4929
(I3
S'|'
p4930
NNNI4
I1
I0
tp4931
bS'null'
p4932
tp4933
Rp4934
sg49
I0
sg50
I1
sg51
g12
(g13
(S'S1'
p4935
I0
I1
tp4936
Rp4937
(I3
S'|'
p4938
NNNI1
I1
I0
tp4939
bg57
tp4940
Rp4941
sg60
g12
(g13
(S'S4'
p4942
I0
I1
tp4943
Rp4944
(I3
S'|'
p4945
NNNI4
I1
I0
tp4946
bS'null'
p4947
tp4948
Rp4949
sg69
g12
(g13
(S'S4'
p4950
I0
I1
tp4951
Rp4952
(I3
S'|'
p4953
NNNI4
I1
I0
tp4954
bS'null'
p4955
tp4956
Rp4957
sg78
g12
(g13
(S'S4'
p4958
I0
I1
tp4959
Rp4960
(I3
S'|'
p4961
NNNI4
I1
I0
tp4962
bS'null'
p4963
tp4964
Rp4965
sg87
g12
(g13
(S'S1'
p4966
I0
I1
tp4967
Rp4968
(I3
S'|'
p4969
NNNI1
I1
I0
tp4970
bg57
tp4971
Rp4972
ssV331203
p4973
(dp4974
g10
I0
sg11
g12
(g13
(S'S40'
p4975
I0
I1
tp4976
Rp4977
(I3
S'|'
p4978
NNNI40
I1
I0
tp4979
bS'anglicky, ale chcem vediet aj po nemecky'
p4980
tp4981
Rp4982
sg22
g12
(g13
(S'S1'
p4983
I0
I1
tp4984
Rp4985
(I3
S'|'
p4986
NNNI1
I1
I0
tp4987
bg28
tp4988
Rp4989
sg31
g12
(g13
(S'S22'
p4990
I0
I1
tp4991
Rp4992
(I3
S'|'
p4993
NNNI22
I1
I0
tp4994
bS'kosicky kraj, trebisov'
p4995
tp4996
Rp4997
sg40
g12
(g13
(S'S208'
p4998
I0
I1
tp4999
Rp5000
(I3
S'|'
p5001
NNNI208
I1
I0
tp5002
bS'sportovanie, turistika, praca s pc, pc hry, citanie, pocuvanie hudby, pozeranie filmov, tancovanie, kupalisko, varenie, jedlo, priatelia, stanovanie, fotografovanie, kino, surfovanie po webe, prace okolo domu'
p5003
tp5004
Rp5005
sg49
I0
sg50
I1
sg51
g12
(g13
(S'S2'
p5006
I0
I1
tp5007
Rp5008
(I3
S'|'
p5009
NNNI2
I1
I0
tp5010
bS'17'
p5011
tp5012
Rp5013
sg60
g12
(g13
(S'S4'
p5014
I0
I1
tp5015
Rp5016
(I3
S'|'
p5017
NNNI4
I1
I0
tp5018
bS'null'
p5019
tp5020
Rp5021
sg69
g12
(g13
(S'S47'
p5022
I0
I1
tp5023
Rp5024
(I3
S'|'
p5025
NNNI47
I1
I0
tp5026
bS'pri svieckach s partnerom, v dobrej restauracii'
p5027
tp5028
Rp5029
sg78
g12
(g13
(S'S4'
p5030
I0
I1
tp5031
Rp5032
(I3
S'|'
p5033
NNNI4
I1
I0
tp5034
bS'null'
p5035
tp5036
Rp5037
sg87
g12
(g13
(S'S1'
p5038
I0
I1
tp5039
Rp5040
(I3
S'|'
p5041
NNNI1
I1
I0
tp5042
bg28
tp5043
Rp5044
ssV292259
p5045
(dp5046
g10
I0
sg11
g12
(g13
(S'S4'
p5047
I0
I1
tp5048
Rp5049
(I3
S'|'
p5050
NNNI4
I1
I0
tp5051
bS'null'
p5052
tp5053
Rp5054
sg22
g12
(g13
(S'S1'
p5055
I0
I1
tp5056
Rp5057
(I3
S'|'
p5058
NNNI1
I1
I0
tp5059
bg57
tp5060
Rp5061
sg31
g12
(g13
(S'S22'
p5062
I0
I1
tp5063
Rp5064
(I3
S'|'
p5065
NNNI22
I1
I0
tp5066
bS'zilinsky kraj, trstena'
p5067
tp5068
Rp5069
sg40
g12
(g13
(S'S186'
p5070
I0
I1
tp5071
Rp5072
(I3
S'|'
p5073
NNNI186
I1
I0
tp5074
bS'sportovanie, cestovanie, tancovanie, kupalisko, jedlo, party, spanie, nakupovanie, stanovanie, turistika, pocuvanie hudby, diskoteky, varenie, kino, priatelia, divadlo, chodenie do muzei'
p5075
tp5076
Rp5077
sg49
I0
sg50
I1
sg51
g12
(g13
(S'S2'
p5078
I0
I1
tp5079
Rp5080
(I3
S'|'
p5081
NNNI2
I1
I0
tp5082
bS'19'
p5083
tp5084
Rp5085
sg60
g12
(g13
(S'S4'
p5086
I0
I1
tp5087
Rp5088
(I3
S'|'
p5089
NNNI4
I1
I0
tp5090
bS'null'
p5091
tp5092
Rp5093
sg69
g12
(g13
(S'S4'
p5094
I0
I1
tp5095
Rp5096
(I3
S'|'
p5097
NNNI4
I1
I0
tp5098
bS'null'
p5099
tp5100
Rp5101
sg78
g12
(g13
(S'S4'
p5102
I0
I1
tp5103
Rp5104
(I3
S'|'
p5105
NNNI4
I1
I0
tp5106
bS'null'
p5107
tp5108
Rp5109
sg87
g12
(g13
(S'S1'
p5110
I0
I1
tp5111
Rp5112
(I3
S'|'
p5113
NNNI1
I1
I0
tp5114
bg28
tp5115
Rp5116
ssV104276
p5117
(dp5118
g10
I0
sg11
g12
(g13
(S'S4'
p5119
I0
I1
tp5120
Rp5121
(I3
S'|'
p5122
NNNI4
I1
I0
tp5123
bS'null'
p5124
tp5125
Rp5126
sg22
g12
(g13
(S'S1'
p5127
I0
I1
tp5128
Rp5129
(I3
S'|'
p5130
NNNI1
I1
I0
tp5131
bg57
tp5132
Rp5133
sg31
g12
(g13
(S'S26'
p5134
I0
I1
tp5135
Rp5136
(I3
S'|'
p5137
NNNI26
I1
I0
tp5138
bS'nitriansky kraj, topolcany'
p5139
tp5140
Rp5141
sg40
g12
(g13
(S'S27'
p5142
I0
I1
tp5143
Rp5144
(I3
S'|'
p5145
NNNI27
I1
I0
tp5146
bS'futbal , futbal, len futbal'
p5147
tp5148
Rp5149
sg49
I0
sg50
I1
sg51
g12
(g13
(S'S1'
p5150
I0
I1
tp5151
Rp5152
(I3
S'|'
p5153
NNNI1
I1
I0
tp5154
bg57
tp5155
Rp5156
sg60
g12
(g13
(S'S4'
p5157
I0
I1
tp5158
Rp5159
(I3
S'|'
p5160
NNNI4
I1
I0
tp5161
bS'null'
p5162
tp5163
Rp5164
sg69
g12
(g13
(S'S4'
p5165
I0
I1
tp5166
Rp5167
(I3
S'|'
p5168
NNNI4
I1
I0
tp5169
bS'null'
p5170
tp5171
Rp5172
sg78
g12
(g13
(S'S96'
p5173
I0
I1
tp5174
Rp5175
(I3
S'|'
p5176
NNNI96
I1
I0
tp5177
bS'<div> <a title="vstup do klubu" href="/klub/neznasam-skolu-d">neznasam skolu!!! :d:::</a> </div>'
p5178
tp5179
Rp5180
sg87
g12
(g13
(S'S1'
p5181
I0
I1
tp5182
Rp5183
(I3
S'|'
p5184
NNNI1
I1
I0
tp5185
bg57
tp5186
Rp5187
ssV606658
p5188
(dp5189
g10
I0
sg11
g12
(g13
(S'S8'
p5190
I0
I1
tp5191
Rp5192
(I3
S'|'
p5193
NNNI8
I1
I0
tp5194
bS'swooj xd'
p5195
tp5196
Rp5197
sg22
g12
(g13
(S'S1'
p5198
I0
I1
tp5199
Rp5200
(I3
S'|'
p5201
NNNI1
I1
I0
tp5202
bg57
tp5203
Rp5204
sg31
g12
(g13
(S'S24'
p5205
I0
I1
tp5206
Rp5207
(I3
S'|'
p5208
NNNI24
I1
I0
tp5209
bS'kosicky kraj, michalovce'
p5210
tp5211
Rp5212
sg40
g12
(g13
(S'S4'
p5213
I0
I1
tp5214
Rp5215
(I3
S'|'
p5216
NNNI4
I1
I0
tp5217
bS'null'
p5218
tp5219
Rp5220
sg49
I0
sg50
I1
sg51
g12
(g13
(S'S1'
p5221
I0
I1
tp5222
Rp5223
(I3
S'|'
p5224
NNNI1
I1
I0
tp5225
bg57
tp5226
Rp5227
sg60
g12
(g13
(S'S4'
p5228
I0
I1
tp5229
Rp5230
(I3
S'|'
p5231
NNNI4
I1
I0
tp5232
bS'null'
p5233
tp5234
Rp5235
sg69
g12
(g13
(S'S4'
p5236
I0
I1
tp5237
Rp5238
(I3
S'|'
p5239
NNNI4
I1
I0
tp5240
bS'null'
p5241
tp5242
Rp5243
sg78
g12
(g13
(S'S4'
p5244
I0
I1
tp5245
Rp5246
(I3
S'|'
p5247
NNNI4
I1
I0
tp5248
bS'null'
p5249
tp5250
Rp5251
sg87
g12
(g13
(S'S1'
p5252
I0
I1
tp5253
Rp5254
(I3
S'|'
p5255
NNNI1
I1
I0
tp5256
bg57
tp5257
Rp5258
ssV757215
p5259
(dp5260
g10
I0
sg11
g12
(g13
(S'S8'
p5261
I0
I1
tp5262
Rp5263
(I3
S'|'
p5264
NNNI8
I1
I0
tp5265
bS'anglicky'
p5266
tp5267
Rp5268
sg22
g12
(g13
(S'S1'
p5269
I0
I1
tp5270
Rp5271
(I3
S'|'
p5272
NNNI1
I1
I0
tp5273
bg28
tp5274
Rp5275
sg31
g12
(g13
(S'S29'
p5276
I0
I1
tp5277
Rp5278
(I3
S'|'
p5279
NNNI29
I1
I0
tp5280
bS'banskobystricky kraj, tornala'
p5281
tp5282
Rp5283
sg40
g12
(g13
(S'S11'
p5284
I0
I1
tp5285
Rp5286
(I3
S'|'
p5287
NNNI11
I1
I0
tp5288
bS'sportovanie'
p5289
tp5290
Rp5291
sg49
I0
sg50
I1
sg51
g12
(g13
(S'S1'
p5292
I0
I1
tp5293
Rp5294
(I3
S'|'
p5295
NNNI1
I1
I0
tp5296
bg57
tp5297
Rp5298
sg60
g12
(g13
(S'S8'
p5299
I0
I1
tp5300
Rp5301
(I3
S'|'
p5302
NNNI8
I1
I0
tp5303
bS'zakladne'
p5304
tp5305
Rp5306
sg69
g12
(g13
(S'S4'
p5307
I0
I1
tp5308
Rp5309
(I3
S'|'
p5310
NNNI4
I1
I0
tp5311
bS'null'
p5312
tp5313
Rp5314
sg78
g12
(g13
(S'S4'
p5315
I0
I1
tp5316
Rp5317
(I3
S'|'
p5318
NNNI4
I1
I0
tp5319
bS'null'
p5320
tp5321
Rp5322
sg87
g12
(g13
(S'S1'
p5323
I0
I1
tp5324
Rp5325
(I3
S'|'
p5326
NNNI1
I1
I0
tp5327
bg28
tp5328
Rp5329
ssV1001990
p5330
(dp5331
g10
I0
sg11
g12
(g13
(S'S20'
p5332
I0
I1
tp5333
Rp5334
(I3
S'|'
p5335
NNNI20
I1
I0
tp5336
bS'slovensky a madarsky'
p5337
tp5338
Rp5339
sg22
g12
(g13
(S'S1'
p5340
I0
I1
tp5341
Rp5342
(I3
S'|'
p5343
NNNI1
I1
I0
tp5344
bg57
tp5345
Rp5346
sg31
g12
(g13
(S'S21'
p5347
I0
I1
tp5348
Rp5349
(I3
S'|'
p5350
NNNI21
I1
I0
tp5351
bS'nitriansky kraj, sala'
p5352
tp5353
Rp5354
sg40
g12
(g13
(S'S50'
p5355
I0
I1
tp5356
Rp5357
(I3
S'|'
p5358
NNNI50
I1
I0
tp5359
bS'nakupovanie, pocuvanie hudby, priatelia, malovanie'
p5360
tp5361
Rp5362
sg49
I0
sg50
I0
sg51
g12
(g13
(S'S2'
p5363
I0
I1
tp5364
Rp5365
(I3
S'|'
p5366
NNNI2
I1
I0
tp5367
bS'12'
p5368
tp5369
Rp5370
sg60
g12
(g13
(S'S9'
p5371
I0
I1
tp5372
Rp5373
(I3
S'|'
p5374
NNNI9
I1
I0
tp5375
bS'ani jedno'
p5376
tp5377
Rp5378
sg69
g12
(g13
(S'S9'
p5379
I0
I1
tp5380
Rp5381
(I3
S'|'
p5382
NNNI9
I1
I0
tp5383
bS'pri telke'
p5384
tp5385
Rp5386
sg78
g12
(g13
(S'S4'
p5387
I0
I1
tp5388
Rp5389
(I3
S'|'
p5390
NNNI4
I1
I0
tp5391
bS'null'
p5392
tp5393
Rp5394
sg87
g12
(g13
(S'S1'
p5395
I0
I1
tp5396
Rp5397
(I3
S'|'
p5398
NNNI1
I1
I0
tp5399
bg28
tp5400
Rp5401
ssV592671
p5402
(dp5403
g10
I0
sg11
g12
(g13
(S'S4'
p5404
I0
I1
tp5405
Rp5406
(I3
S'|'
p5407
NNNI4
I1
I0
tp5408
bS'null'
p5409
tp5410
Rp5411
sg22
g12
(g13
(S'S1'
p5412
I0
I1
tp5413
Rp5414
(I3
S'|'
p5415
NNNI1
I1
I0
tp5416
bg28
tp5417
Rp5418
sg31
g12
(g13
(S'S27'
p5419
I0
I1
tp5420
Rp5421
(I3
S'|'
p5422
NNNI27
I1
I0
tp5423
bS'kosicky kraj, kosice - saca'
p5424
tp5425
Rp5426
sg40
g12
(g13
(S'S4'
p5427
I0
I1
tp5428
Rp5429
(I3
S'|'
p5430
NNNI4
I1
I0
tp5431
bS'null'
p5432
tp5433
Rp5434
sg49
I0
sg50
I1
sg51
g12
(g13
(S'S2'
p5435
I0
I1
tp5436
Rp5437
(I3
S'|'
p5438
NNNI2
I1
I0
tp5439
bS'29'
p5440
tp5441
Rp5442
sg60
g12
(g13
(S'S4'
p5443
I0
I1
tp5444
Rp5445
(I3
S'|'
p5446
NNNI4
I1
I0
tp5447
bS'null'
p5448
tp5449
Rp5450
sg69
g12
(g13
(S'S4'
p5451
I0
I1
tp5452
Rp5453
(I3
S'|'
p5454
NNNI4
I1
I0
tp5455
bS'null'
p5456
tp5457
Rp5458
sg78
g12
(g13
(S'S4'
p5459
I0
I1
tp5460
Rp5461
(I3
S'|'
p5462
NNNI4
I1
I0
tp5463
bS'null'
p5464
tp5465
Rp5466
sg87
g12
(g13
(S'S1'
p5467
I0
I1
tp5468
Rp5469
(I3
S'|'
p5470
NNNI1
I1
I0
tp5471
bg28
tp5472
Rp5473
ssV675637
p5474
(dp5475
g10
I0
sg11
g12
(g13
(S'S39'
p5476
I0
I1
tp5477
Rp5478
(I3
S'|'
p5479
NNNI39
I1
I0
tp5480
bS'anglicky, francuzsky, nemecky,slovensky'
p5481
tp5482
Rp5483
sg22
g12
(g13
(S'S1'
p5484
I0
I1
tp5485
Rp5486
(I3
S'|'
p5487
NNNI1
I1
I0
tp5488
bg57
tp5489
Rp5490
sg31
g12
(g13
(S'S27'
p5491
I0
I1
tp5492
Rp5493
(I3
S'|'
p5494
NNNI27
I1
I0
tp5495
bS'nitriansky kraj, nove zamky'
p5496
tp5497
Rp5498
sg40
g12
(g13
(S'S183'
p5499
I0
I1
tp5500
Rp5501
(I3
S'|'
p5502
NNNI183
I1
I0
tp5503
bS'sportovanie, cestovanie, turistika, praca s pc, pc hry, surfovanie po webe, pocuvanie hudby, pozeranie filmov, chovatelstvo, tancovanie, diskoteky, kupalisko, jedlo, kino, nakupovanie'
p5504
tp5505
Rp5506
sg49
I0
sg50
I1
sg51
g12
(g13
(S'S1'
p5507
I0
I1
tp5508
Rp5509
(I3
S'|'
p5510
NNNI1
I1
I0
tp5511
bg57
tp5512
Rp5513
sg60
g12
(g13
(S'S16'
p5514
I0
I1
tp5515
Rp5516
(I3
S'|'
p5517
NNNI16
I1
I0
tp5518
bS'som na zakladnej'
p5519
tp5520
Rp5521
sg69
g12
(g13
(S'S47'
p5522
I0
I1
tp5523
Rp5524
(I3
S'|'
p5525
NNNI47
I1
I0
tp5526
bS'pri svieckach s partnerom, v dobrej restauracii'
p5527
tp5528
Rp5529
sg78
g12
(g13
(S'S4'
p5530
I0
I1
tp5531
Rp5532
(I3
S'|'
p5533
NNNI4
I1
I0
tp5534
bS'null'
p5535
tp5536
Rp5537
sg87
g12
(g13
(S'S1'
p5538
I0
I1
tp5539
Rp5540
(I3
S'|'
p5541
NNNI1
I1
I0
tp5542
bg28
tp5543
Rp5544
ssV333244
p5545
(dp5546
g10
I0
sg11
g12
(g13
(S'S8'
p5547
I0
I1
tp5548
Rp5549
(I3
S'|'
p5550
NNNI8
I1
I0
tp5551
bS'anglicky'
p5552
tp5553
Rp5554
sg22
g12
(g13
(S'S1'
p5555
I0
I1
tp5556
Rp5557
(I3
S'|'
p5558
NNNI1
I1
I0
tp5559
bg57
tp5560
Rp5561
sg31
g12
(g13
(S'S29'
p5562
I0
I1
tp5563
Rp5564
(I3
S'|'
p5565
NNNI29
I1
I0
tp5566
bS'banskobystricky kraj, tornala'
p5567
tp5568
Rp5569
sg40
g12
(g13
(S'S4'
p5570
I0
I1
tp5571
Rp5572
(I3
S'|'
p5573
NNNI4
I1
I0
tp5574
bS'null'
p5575
tp5576
Rp5577
sg49
I0
sg50
I1
sg51
g12
(g13
(S'S2'
p5578
I0
I1
tp5579
Rp5580
(I3
S'|'
p5581
NNNI2
I1
I0
tp5582
bS'16'
p5583
tp5584
Rp5585
sg60
g12
(g13
(S'S4'
p5586
I0
I1
tp5587
Rp5588
(I3
S'|'
p5589
NNNI4
I1
I0
tp5590
bS'null'
p5591
tp5592
Rp5593
sg69
g12
(g13
(S'S4'
p5594
I0
I1
tp5595
Rp5596
(I3
S'|'
p5597
NNNI4
I1
I0
tp5598
bS'null'
p5599
tp5600
Rp5601
sg78
g12
(g13
(S'S4'
p5602
I0
I1
tp5603
Rp5604
(I3
S'|'
p5605
NNNI4
I1
I0
tp5606
bS'null'
p5607
tp5608
Rp5609
sg87
g12
(g13
(S'S1'
p5610
I0
I1
tp5611
Rp5612
(I3
S'|'
p5613
NNNI1
I1
I0
tp5614
bg28
tp5615
Rp5616
ssV202177
p5617
(dp5618
g10
I0
sg11
g12
(g13
(S'S4'
p5619
I0
I1
tp5620
Rp5621
(I3
S'|'
p5622
NNNI4
I1
I0
tp5623
bS'null'
p5624
tp5625
Rp5626
sg22
g12
(g13
(S'S1'
p5627
I0
I1
tp5628
Rp5629
(I3
S'|'
p5630
NNNI1
I1
I0
tp5631
bg57
tp5632
Rp5633
sg31
g12
(g13
(S'S24'
p5634
I0
I1
tp5635
Rp5636
(I3
S'|'
p5637
NNNI24
I1
I0
tp5638
bS'nitriansky kraj, komarno'
p5639
tp5640
Rp5641
sg40
g12
(g13
(S'S40'
p5642
I0
I1
tp5643
Rp5644
(I3
S'|'
p5645
NNNI40
I1
I0
tp5646
bS'sportovanie, priatelia, fotografovanie:)'
p5647
tp5648
Rp5649
sg49
I0
sg50
I1
sg51
g12
(g13
(S'S1'
p5650
I0
I1
tp5651
Rp5652
(I3
S'|'
p5653
NNNI1
I1
I0
tp5654
bg57
tp5655
Rp5656
sg60
g12
(g13
(S'S8'
p5657
I0
I1
tp5658
Rp5659
(I3
S'|'
p5660
NNNI8
I1
I0
tp5661
bS'zakladne'
p5662
tp5663
Rp5664
sg69
g12
(g13
(S'S4'
p5665
I0
I1
tp5666
Rp5667
(I3
S'|'
p5668
NNNI4
I1
I0
tp5669
bS'null'
p5670
tp5671
Rp5672
sg78
g12
(g13
(S'S4'
p5673
I0
I1
tp5674
Rp5675
(I3
S'|'
p5676
NNNI4
I1
I0
tp5677
bS'null'
p5678
tp5679
Rp5680
sg87
g12
(g13
(S'S1'
p5681
I0
I1
tp5682
Rp5683
(I3
S'|'
p5684
NNNI1
I1
I0
tp5685
bg57
tp5686
Rp5687
ssV333249
p5688
(dp5689
g10
I0
sg11
g12
(g13
(S'S25'
p5690
I0
I1
tp5691
Rp5692
(I3
S'|'
p5693
NNNI25
I1
I0
tp5694
bS'nemecky, magyar, anglicky'
p5695
tp5696
Rp5697
sg22
g12
(g13
(S'S1'
p5698
I0
I1
tp5699
Rp5700
(I3
S'|'
p5701
NNNI1
I1
I0
tp5702
bg28
tp5703
Rp5704
sg31
g12
(g13
(S'S29'
p5705
I0
I1
tp5706
Rp5707
(I3
S'|'
p5708
NNNI29
I1
I0
tp5709
bS'banskobystricky kraj, tornala'
p5710
tp5711
Rp5712
sg40
g12
(g13
(S'S33'
p5713
I0
I1
tp5714
Rp5715
(I3
S'|'
p5716
NNNI33
I1
I0
tp5717
bS'sportovanie, diskoteky, kupalisko'
p5718
tp5719
Rp5720
sg49
I0
sg50
I1
sg51
g12
(g13
(S'S1'
p5721
I0
I1
tp5722
Rp5723
(I3
S'|'
p5724
NNNI1
I1
I0
tp5725
bg57
tp5726
Rp5727
sg60
g12
(g13
(S'S8'
p5728
I0
I1
tp5729
Rp5730
(I3
S'|'
p5731
NNNI8
I1
I0
tp5732
bS'zakladne'
p5733
tp5734
Rp5735
sg69
g12
(g13
(S'S9'
p5736
I0
I1
tp5737
Rp5738
(I3
S'|'
p5739
NNNI9
I1
I0
tp5740
bS'v posteli'
p5741
tp5742
Rp5743
sg78
g12
(g13
(S'S4'
p5744
I0
I1
tp5745
Rp5746
(I3
S'|'
p5747
NNNI4
I1
I0
tp5748
bS'null'
p5749
tp5750
Rp5751
sg87
g12
(g13
(S'S1'
p5752
I0
I1
tp5753
Rp5754
(I3
S'|'
p5755
NNNI1
I1
I0
tp5756
bg28
tp5757
Rp5758
ssV149148
p5759
(dp5760
g10
I0
sg11
g12
(g13
(S'S34'
p5761
I0
I1
tp5762
Rp5763
(I3
S'|'
p5764
NNNI34
I1
I0
tp5765
bS'nemecky a  anglicky len tak trosku'
p5766
tp5767
Rp5768
sg22
g12
(g13
(S'S1'
p5769
I0
I1
tp5770
Rp5771
(I3
S'|'
p5772
NNNI1
I1
I0
tp5773
bg28
tp5774
Rp5775
sg31
g12
(g13
(S'S22'
p5776
I0
I1
tp5777
Rp5778
(I3
S'|'
p5779
NNNI22
I1
I0
tp5780
bS'presovsky kraj, presov'
p5781
tp5782
Rp5783
sg40
g12
(g13
(S'S218'
p5784
I0
I1
tp5785
Rp5786
(I3
S'|'
p5787
NNNI218
I1
I0
tp5788
bS'sportovanie uz len obcas, cestovanie pokial robim sofera inac nie , fotografovanie  ma bavi ale zo vsetkeho najviac ma baviaa mmoja laska k hudbe a k  mojim  bicim z nesmiernou dusov ktory ten hudobny nastroj ma v sebe'
p5789
tp5790
Rp5791
sg49
I0
sg50
I1
sg51
g12
(g13
(S'S2'
p5792
I0
I1
tp5793
Rp5794
(I3
S'|'
p5795
NNNI2
I1
I0
tp5796
bS'21'
p5797
tp5798
Rp5799
sg60
g12
(g13
(S'S31'
p5800
I0
I1
tp5801
Rp5802
(I3
S'|'
p5803
NNNI31
I1
I0
tp5804
bS'stredoskolske a uz len pracujem'
p5805
tp5806
Rp5807
sg69
g12
(g13
(S'S130'
p5808
I0
I1
tp5809
Rp5810
(I3
S'|'
p5811
NNNI130
I1
I0
tp5812
bS'vsade, v kuchyni pri stole, pri telke, v dobrej restauracii, v posteli, v prirode, pri svieckach s partnerom, z partnerovho bruska'
p5813
tp5814
Rp5815
sg78
g12
(g13
(S'S4'
p5816
I0
I1
tp5817
Rp5818
(I3
S'|'
p5819
NNNI4
I1
I0
tp5820
bS'null'
p5821
tp5822
Rp5823
sg87
g12
(g13
(S'S1'
p5824
I0
I1
tp5825
Rp5826
(I3
S'|'
p5827
NNNI1
I1
I0
tp5828
bg57
tp5829
Rp5830
ssV463008
p5831
(dp5832
g10
I0
sg11
g12
(g13
(S'S26'
p5833
I0
I1
tp5834
Rp5835
(I3
S'|'
p5836
NNNI26
I1
I0
tp5837
bS'anglicky, rusky, slovensky'
p5838
tp5839
Rp5840
sg22
g12
(g13
(S'S1'
p5841
I0
I1
tp5842
Rp5843
(I3
S'|'
p5844
NNNI1
I1
I0
tp5845
bg57
tp5846
Rp5847
sg31
g12
(g13
(S'S24'
p5848
I0
I1
tp5849
Rp5850
(I3
S'|'
p5851
NNNI24
I1
I0
tp5852
bS'presovsky kraj, stropkov'
p5853
tp5854
Rp5855
sg40
g12
(g13
(S'S103'
p5856
I0
I1
tp5857
Rp5858
(I3
S'|'
p5859
NNNI103
I1
I0
tp5860
bS'turistika, surfovanie po webe, malovanie, tancovanie, kupalisko, varenie, party, priatelia, nakupovanie'
p5861
tp5862
Rp5863
sg49
I0
sg50
I1
sg51
g12
(g13
(S'S2'
p5864
I0
I1
tp5865
Rp5866
(I3
S'|'
p5867
NNNI2
I1
I0
tp5868
bS'15'
p5869
tp5870
Rp5871
sg60
g12
(g13
(S'S8'
p5872
I0
I1
tp5873
Rp5874
(I3
S'|'
p5875
NNNI8
I1
I0
tp5876
bS'zakladne'
p5877
tp5878
Rp5879
sg69
g12
(g13
(S'S58'
p5880
I0
I1
tp5881
Rp5882
(I3
S'|'
p5883
NNNI58
I1
I0
tp5884
bS'pri svieckach s partnerom, v dobrej restauracii, v prirode'
p5885
tp5886
Rp5887
sg78
g12
(g13
(S'S109'
p5888
I0
I1
tp5889
Rp5890
(I3
S'|'
p5891
NNNI109
I1
I0
tp5892
bS'<div> <a title="vstup do klubu" href="/klub/anglictina-nielen-pre-deti">anglictina nielen pre deti</a> </div>'
p5893
tp5894
Rp5895
sg87
g12
(g13
(S'S1'
p5896
I0
I1
tp5897
Rp5898
(I3
S'|'
p5899
NNNI1
I1
I0
tp5900
bg28
tp5901
Rp5902
ssV390131
p5903
(dp5904
g10
I0
sg11
g12
(g13
(S'S17'
p5905
I0
I1
tp5906
Rp5907
(I3
S'|'
p5908
NNNI17
I1
I0
tp5909
bS'anglicky, nemecky'
p5910
tp5911
Rp5912
sg22
g12
(g13
(S'S1'
p5913
I0
I1
tp5914
Rp5915
(I3
S'|'
p5916
NNNI1
I1
I0
tp5917
bg28
tp5918
Rp5919
sg31
g12
(g13
(S'S37'
p5920
I0
I1
tp5921
Rp5922
(I3
S'|'
p5923
NNNI37
I1
I0
tp5924
bS'banskobystricky kraj, rimavska sobota'
p5925
tp5926
Rp5927
sg40
g12
(g13
(S'S76'
p5928
I0
I1
tp5929
Rp5930
(I3
S'|'
p5931
NNNI76
I1
I0
tp5932
bS'sportovanie, pc hry, surfovanie po webe, pozeranie filmov, tancovanie, jedlo'
p5933
tp5934
Rp5935
sg49
I0
sg50
I1
sg51
g12
(g13
(S'S3'
p5936
I0
I1
tp5937
Rp5938
(I3
S'|'
p5939
NNNI3
I1
I0
tp5940
bS'112'
p5941
tp5942
Rp5943
sg60
g12
(g13
(S'S13'
p5944
I0
I1
tp5945
Rp5946
(I3
S'|'
p5947
NNNI13
I1
I0
tp5948
bS'stredoskolske'
p5949
tp5950
Rp5951
sg69
g12
(g13
(S'S9'
p5952
I0
I1
tp5953
Rp5954
(I3
S'|'
p5955
NNNI9
I1
I0
tp5956
bS'v posteli'
p5957
tp5958
Rp5959
sg78
g12
(g13
(S'S4'
p5960
I0
I1
tp5961
Rp5962
(I3
S'|'
p5963
NNNI4
I1
I0
tp5964
bS'null'
p5965
tp5966
Rp5967
sg87
g12
(g13
(S'S1'
p5968
I0
I1
tp5969
Rp5970
(I3
S'|'
p5971
NNNI1
I1
I0
tp5972
bg28
tp5973
Rp5974
ssV1051686
p5975
(dp5976
g10
I0
sg11
g12
(g13
(S'S4'
p5977
I0
I1
tp5978
Rp5979
(I3
S'|'
p5980
NNNI4
I1
I0
tp5981
bS'null'
p5982
tp5983
Rp5984
sg22
g12
(g13
(S'S1'
p5985
I0
I1
tp5986
Rp5987
(I3
S'|'
p5988
NNNI1
I1
I0
tp5989
bg57
tp5990
Rp5991
sg31
g12
(g13
(S'S28'
p5992
I0
I1
tp5993
Rp5994
(I3
S'|'
p5995
NNNI28
I1
I0
tp5996
bS'kosicky kraj, velke kapusany'
p5997
tp5998
Rp5999
sg40
g12
(g13
(S'S137'
p6000
I0
I1
tp6001
Rp6002
(I3
S'|'
p6003
NNNI137
I1
I0
tp6004
bS'minden vagyam egyutt lenni veled, csokolni a szad, nezni a szemed. szeretnelek ugy, ahogy csak lehet, erted tennem, es mindig csak veled.'
p6005
tp6006
Rp6007
sg49
I0
sg50
I1
sg51
g12
(g13
(S'S2'
p6008
I0
I1
tp6009
Rp6010
(I3
S'|'
p6011
NNNI2
I1
I0
tp6012
bS'14'
p6013
tp6014
Rp6015
sg60
g12
(g13
(S'S4'
p6016
I0
I1
tp6017
Rp6018
(I3
S'|'
p6019
NNNI4
I1
I0
tp6020
bS'null'
p6021
tp6022
Rp6023
sg69
g12
(g13
(S'S162'
p6024
I0
I1
tp6025
Rp6026
(I3
S'|'
p6027
NNNI162
I1
I0
tp6028
bS'el szeretnem mondani, hogy szeretlek teged, eszemben vagy, barhova is nezek. szeretnek a szemedbe melyen belenezni, es elmondani neked, nelkuled nem erdemes elni.'
p6029
tp6030
Rp6031
sg78
g12
(g13
(S'S4'
p6032
I0
I1
tp6033
Rp6034
(I3
S'|'
p6035
NNNI4
I1
I0
tp6036
bS'null'
p6037
tp6038
Rp6039
sg87
g12
(g13
(S'S1'
p6040
I0
I1
tp6041
Rp6042
(I3
S'|'
p6043
NNNI1
I1
I0
tp6044
bg28
tp6045
Rp6046
ssV243737
p6047
(dp6048
g10
I0
sg11
g12
(g13
(S'S8'
p6049
I0
I1
tp6050
Rp6051
(I3
S'|'
p6052
NNNI8
I1
I0
tp6053
bS'anglicky'
p6054
tp6055
Rp6056
sg22
g12
(g13
(S'S1'
p6057
I0
I1
tp6058
Rp6059
(I3
S'|'
p6060
NNNI1
I1
I0
tp6061
bg28
tp6062
Rp6063
sg31
g12
(g13
(S'S35'
p6064
I0
I1
tp6065
Rp6066
(I3
S'|'
p6067
NNNI35
I1
I0
tp6068
bS'ceska republika, cz - stredni cechy'
p6069
tp6070
Rp6071
sg40
g12
(g13
(S'S92'
p6072
I0
I1
tp6073
Rp6074
(I3
S'|'
p6075
NNNI92
I1
I0
tp6076
bS'pc hry, pozeranie filmov, tancovanie, kupalisko, party, fotografovanie, kino, priatelia, sex'
p6077
tp6078
Rp6079
sg49
I0
sg50
I1
sg51
g12
(g13
(S'S1'
p6080
I0
I1
tp6081
Rp6082
(I3
S'|'
p6083
NNNI1
I1
I0
tp6084
bg57
tp6085
Rp6086
sg60
g12
(g13
(S'S8'
p6087
I0
I1
tp6088
Rp6089
(I3
S'|'
p6090
NNNI8
I1
I0
tp6091
bS'zakladne'
p6092
tp6093
Rp6094
sg69
g12
(g13
(S'S9'
p6095
I0
I1
tp6096
Rp6097
(I3
S'|'
p6098
NNNI9
I1
I0
tp6099
bS'pri telke'
p6100
tp6101
Rp6102
sg78
g12
(g13
(S'S4'
p6103
I0
I1
tp6104
Rp6105
(I3
S'|'
p6106
NNNI4
I1
I0
tp6107
bS'null'
p6108
tp6109
Rp6110
sg87
g12
(g13
(S'S1'
p6111
I0
I1
tp6112
Rp6113
(I3
S'|'
p6114
NNNI1
I1
I0
tp6115
bg28
tp6116
Rp6117
ssV436931
p6118
(dp6119
g10
I0
sg11
g12
(g13
(S'S24'
p6120
I0
I1
tp6121
Rp6122
(I3
S'|'
p6123
NNNI24
I1
I0
tp6124
bS'angol,szlovak,magyar \xe2\x99\xa5'
p6125
tp6126
Rp6127
sg22
g12
(g13
(S'S1'
p6128
I0
I1
tp6129
Rp6130
(I3
S'|'
p6131
NNNI1
I1
I0
tp6132
bg57
tp6133
Rp6134
sg31
g12
(g13
(S'S29'
p6135
I0
I1
tp6136
Rp6137
(I3
S'|'
p6138
NNNI29
I1
I0
tp6139
bS'kosicky kraj, kosice - okolie'
p6140
tp6141
Rp6142
sg40
g12
(g13
(S'S67'
p6143
I0
I1
tp6144
Rp6145
(I3
S'|'
p6146
NNNI67
I1
I0
tp6147
bS'aludni , szorakozni , fenykepeszkedni , zenet halgatni :) \xe2\x99\xa5\xe2\x99\xa5\xe2\x99\xa5'
p6148
tp6149
Rp6150
sg49
I0
sg50
I1
sg51
g12
(g13
(S'S2'
p6151
I0
I1
tp6152
Rp6153
(I3
S'|'
p6154
NNNI2
I1
I0
tp6155
bS'16'
p6156
tp6157
Rp6158
sg60
g12
(g13
(S'S26'
p6159
I0
I1
tp6160
Rp6161
(I3
S'|'
p6162
NNNI26
I1
I0
tp6163
bS':d:d:d  \xe2\x99\xa5, stredoskolske'
p6164
tp6165
Rp6166
sg69
g12
(g13
(S'S16'
p6167
I0
I1
tp6168
Rp6169
(I3
S'|'
p6170
NNNI16
I1
I0
tp6171
bS'tv mellet :d \xe2\x99\xa5'
p6172
tp6173
Rp6174
sg78
g12
(g13
(S'S4'
p6175
I0
I1
tp6176
Rp6177
(I3
S'|'
p6178
NNNI4
I1
I0
tp6179
bS'null'
p6180
tp6181
Rp6182
sg87
g12
(g13
(S'S1'
p6183
I0
I1
tp6184
Rp6185
(I3
S'|'
p6186
NNNI1
I1
I0
tp6187
bg28
tp6188
Rp6189
ssV96138
p6190
(dp6191
g10
I0
sg11
g12
(g13
(S'S4'
p6192
I0
I1
tp6193
Rp6194
(I3
S'|'
p6195
NNNI4
I1
I0
tp6196
bS'null'
p6197
tp6198
Rp6199
sg22
g12
(g13
(S'S1'
p6200
I0
I1
tp6201
Rp6202
(I3
S'|'
p6203
NNNI1
I1
I0
tp6204
bg57
tp6205
Rp6206
sg31
g12
(g13
(S'S37'
p6207
I0
I1
tp6208
Rp6209
(I3
S'|'
p6210
NNNI37
I1
I0
tp6211
bS'banskobystricky kraj, banska bystrica'
p6212
tp6213
Rp6214
sg40
g12
(g13
(S'S4'
p6215
I0
I1
tp6216
Rp6217
(I3
S'|'
p6218
NNNI4
I1
I0
tp6219
bS'null'
p6220
tp6221
Rp6222
sg49
I0
sg50
I0
sg51
g12
(g13
(S'S1'
p6223
I0
I1
tp6224
Rp6225
(I3
S'|'
p6226
NNNI1
I1
I0
tp6227
bg57
tp6228
Rp6229
sg60
g12
(g13
(S'S4'
p6230
I0
I1
tp6231
Rp6232
(I3
S'|'
p6233
NNNI4
I1
I0
tp6234
bS'null'
p6235
tp6236
Rp6237
sg69
g12
(g13
(S'S4'
p6238
I0
I1
tp6239
Rp6240
(I3
S'|'
p6241
NNNI4
I1
I0
tp6242
bS'null'
p6243
tp6244
Rp6245
sg78
g12
(g13
(S'S4'
p6246
I0
I1
tp6247
Rp6248
(I3
S'|'
p6249
NNNI4
I1
I0
tp6250
bS'null'
p6251
tp6252
Rp6253
sg87
g12
(g13
(S'S1'
p6254
I0
I1
tp6255
Rp6256
(I3
S'|'
p6257
NNNI1
I1
I0
tp6258
bg28
tp6259
Rp6260
ssV468322
p6261
(dp6262
g10
I0
sg11
g12
(g13
(S'S4'
p6263
I0
I1
tp6264
Rp6265
(I3
S'|'
p6266
NNNI4
I1
I0
tp6267
bS'null'
p6268
tp6269
Rp6270
sg22
g12
(g13
(S'S1'
p6271
I0
I1
tp6272
Rp6273
(I3
S'|'
p6274
NNNI1
I1
I0
tp6275
bg57
tp6276
Rp6277
sg31
g12
(g13
(S'S22'
p6278
I0
I1
tp6279
Rp6280
(I3
S'|'
p6281
NNNI22
I1
I0
tp6282
bS'kosicky kraj, sobrance'
p6283
tp6284
Rp6285
sg40
g12
(g13
(S'S4'
p6286
I0
I1
tp6287
Rp6288
(I3
S'|'
p6289
NNNI4
I1
I0
tp6290
bS'null'
p6291
tp6292
Rp6293
sg49
I0
sg50
I1
sg51
g12
(g13
(S'S1'
p6294
I0
I1
tp6295
Rp6296
(I3
S'|'
p6297
NNNI1
I1
I0
tp6298
bg57
tp6299
Rp6300
sg60
g12
(g13
(S'S4'
p6301
I0
I1
tp6302
Rp6303
(I3
S'|'
p6304
NNNI4
I1
I0
tp6305
bS'null'
p6306
tp6307
Rp6308
sg69
g12
(g13
(S'S4'
p6309
I0
I1
tp6310
Rp6311
(I3
S'|'
p6312
NNNI4
I1
I0
tp6313
bS'null'
p6314
tp6315
Rp6316
sg78
g12
(g13
(S'S4'
p6317
I0
I1
tp6318
Rp6319
(I3
S'|'
p6320
NNNI4
I1
I0
tp6321
bS'null'
p6322
tp6323
Rp6324
sg87
g12
(g13
(S'S1'
p6325
I0
I1
tp6326
Rp6327
(I3
S'|'
p6328
NNNI1
I1
I0
tp6329
bg57
tp6330
Rp6331
ssV796975
p6332
(dp6333
g10
I0
sg11
g12
(g13
(S'S8'
p6334
I0
I1
tp6335
Rp6336
(I3
S'|'
p6337
NNNI8
I1
I0
tp6338
bS'anglicky'
p6339
tp6340
Rp6341
sg22
g12
(g13
(S'S1'
p6342
I0
I1
tp6343
Rp6344
(I3
S'|'
p6345
NNNI1
I1
I0
tp6346
bg57
tp6347
Rp6348
sg31
g12
(g13
(S'S24'
p6349
I0
I1
tp6350
Rp6351
(I3
S'|'
p6352
NNNI24
I1
I0
tp6353
bS'trenciansky kraj, myjava'
p6354
tp6355
Rp6356
sg40
g12
(g13
(S'S67'
p6357
I0
I1
tp6358
Rp6359
(I3
S'|'
p6360
NNNI67
I1
I0
tp6361
bS'cestovanie, pozeranie filmov, party, spanie, nakupovanie, priatelia'
p6362
tp6363
Rp6364
sg49
I0
sg50
I1
sg51
g12
(g13
(S'S1'
p6365
I0
I1
tp6366
Rp6367
(I3
S'|'
p6368
NNNI1
I1
I0
tp6369
bg57
tp6370
Rp6371
sg60
g12
(g13
(S'S8'
p6372
I0
I1
tp6373
Rp6374
(I3
S'|'
p6375
NNNI8
I1
I0
tp6376
bS'zakladne'
p6377
tp6378
Rp6379
sg69
g12
(g13
(S'S58'
p6380
I0
I1
tp6381
Rp6382
(I3
S'|'
p6383
NNNI58
I1
I0
tp6384
bS'pri svieckach s partnerom, v dobrej restauracii, v posteli'
p6385
tp6386
Rp6387
sg78
g12
(g13
(S'S4'
p6388
I0
I1
tp6389
Rp6390
(I3
S'|'
p6391
NNNI4
I1
I0
tp6392
bS'null'
p6393
tp6394
Rp6395
sg87
g12
(g13
(S'S1'
p6396
I0
I1
tp6397
Rp6398
(I3
S'|'
p6399
NNNI1
I1
I0
tp6400
bg57
tp6401
Rp6402
ssV212725
p6403
(dp6404
g10
I1
sg11
g12
(g13
(S'S8'
p6405
I0
I1
tp6406
Rp6407
(I3
S'|'
p6408
NNNI8
I1
I0
tp6409
bS'anglicky'
p6410
tp6411
Rp6412
sg22
g12
(g13
(S'S1'
p6413
I0
I1
tp6414
Rp6415
(I3
S'|'
p6416
NNNI1
I1
I0
tp6417
bg28
tp6418
Rp6419
sg31
g12
(g13
(S'S29'
p6420
I0
I1
tp6421
Rp6422
(I3
S'|'
p6423
NNNI29
I1
I0
tp6424
bS'banskobystricky kraj, krupina'
p6425
tp6426
Rp6427
sg40
g12
(g13
(S'S178'
p6428
I0
I1
tp6429
Rp6430
(I3
S'|'
p6431
NNNI178
I1
I0
tp6432
bS'sportovanie, cestovanie, turistika, praca s pc, pc hry, surfovanie po webe, pocuvanie hudby, pozeranie filmov, diskoteky, jedlo, party, priatelia, spanie, nakupovanie, stanovanie'
p6433
tp6434
Rp6435
sg49
I0
sg50
I0
sg51
g12
(g13
(S'S2'
p6436
I0
I1
tp6437
Rp6438
(I3
S'|'
p6439
NNNI2
I1
I0
tp6440
bS'26'
p6441
tp6442
Rp6443
sg60
g12
(g13
(S'S13'
p6444
I0
I1
tp6445
Rp6446
(I3
S'|'
p6447
NNNI13
I1
I0
tp6448
bS'stredoskolske'
p6449
tp6450
Rp6451
sg69
g12
(g13
(S'S20'
p6452
I0
I1
tp6453
Rp6454
(I3
S'|'
p6455
NNNI20
I1
I0
tp6456
bS'v dobrej restauracii'
p6457
tp6458
Rp6459
sg78
g12
(g13
(S'S4'
p6460
I0
I1
tp6461
Rp6462
(I3
S'|'
p6463
NNNI4
I1
I0
tp6464
bS'null'
p6465
tp6466
Rp6467
sg87
g12
(g13
(S'S1'
p6468
I0
I1
tp6469
Rp6470
(I3
S'|'
p6471
NNNI1
I1
I0
tp6472
bg57
tp6473
Rp6474
ssV260886
p6475
(dp6476
g10
I0
sg11
g12
(g13
(S'S8'
p6477
I0
I1
tp6478
Rp6479
(I3
S'|'
p6480
NNNI8
I1
I0
tp6481
bS'anglicky'
p6482
tp6483
Rp6484
sg22
g12
(g13
(S'S1'
p6485
I0
I1
tp6486
Rp6487
(I3
S'|'
p6488
NNNI1
I1
I0
tp6489
bg28
tp6490
Rp6491
sg31
g12
(g13
(S'S37'
p6492
I0
I1
tp6493
Rp6494
(I3
S'|'
p6495
NNNI37
I1
I0
tp6496
bS'banskobystricky kraj, rimavska sobota'
p6497
tp6498
Rp6499
sg40
g12
(g13
(S'S4'
p6500
I0
I1
tp6501
Rp6502
(I3
S'|'
p6503
NNNI4
I1
I0
tp6504
bS'null'
p6505
tp6506
Rp6507
sg49
I0
sg50
I1
sg51
g12
(g13
(S'S2'
p6508
I0
I1
tp6509
Rp6510
(I3
S'|'
p6511
NNNI2
I1
I0
tp6512
bS'22'
p6513
tp6514
Rp6515
sg60
g12
(g13
(S'S13'
p6516
I0
I1
tp6517
Rp6518
(I3
S'|'
p6519
NNNI13
I1
I0
tp6520
bS'vysokoskolske'
p6521
tp6522
Rp6523
sg69
g12
(g13
(S'S4'
p6524
I0
I1
tp6525
Rp6526
(I3
S'|'
p6527
NNNI4
I1
I0
tp6528
bS'null'
p6529
tp6530
Rp6531
sg78
g12
(g13
(S'S4'
p6532
I0
I1
tp6533
Rp6534
(I3
S'|'
p6535
NNNI4
I1
I0
tp6536
bS'null'
p6537
tp6538
Rp6539
sg87
g12
(g13
(S'S1'
p6540
I0
I1
tp6541
Rp6542
(I3
S'|'
p6543
NNNI1
I1
I0
tp6544
bg28
tp6545
Rp6546
ssV175974
p6547
(dp6548
g10
I0
sg11
g12
(g13
(S'S4'
p6549
I0
I1
tp6550
Rp6551
(I3
S'|'
p6552
NNNI4
I1
I0
tp6553
bS'null'
p6554
tp6555
Rp6556
sg22
g12
(g13
(S'S1'
p6557
I0
I1
tp6558
Rp6559
(I3
S'|'
p6560
NNNI1
I1
I0
tp6561
bg57
tp6562
Rp6563
sg31
g12
(g13
(S'S29'
p6564
I0
I1
tp6565
Rp6566
(I3
S'|'
p6567
NNNI29
I1
I0
tp6568
bS'kosicky kraj, kosice - okolie'
p6569
tp6570
Rp6571
sg40
g12
(g13
(S'S4'
p6572
I0
I1
tp6573
Rp6574
(I3
S'|'
p6575
NNNI4
I1
I0
tp6576
bS'null'
p6577
tp6578
Rp6579
sg49
I0
sg50
I1
sg51
g12
(g13
(S'S2'
p6580
I0
I1
tp6581
Rp6582
(I3
S'|'
p6583
NNNI2
I1
I0
tp6584
bS'17'
p6585
tp6586
Rp6587
sg60
g12
(g13
(S'S4'
p6588
I0
I1
tp6589
Rp6590
(I3
S'|'
p6591
NNNI4
I1
I0
tp6592
bS'null'
p6593
tp6594
Rp6595
sg69
g12
(g13
(S'S4'
p6596
I0
I1
tp6597
Rp6598
(I3
S'|'
p6599
NNNI4
I1
I0
tp6600
bS'null'
p6601
tp6602
Rp6603
sg78
g12
(g13
(S'S100'
p6604
I0
I1
tp6605
Rp6606
(I3
S'|'
p6607
NNNI100
I1
I0
tp6608
bS'<div> <a title="vstup do klubu" href="/klub/sos-ostrovskeho1">..sos ..ostrovsk&shy;eho1..</a> </div>'
p6609
tp6610
Rp6611
sg87
g12
(g13
(S'S1'
p6612
I0
I1
tp6613
Rp6614
(I3
S'|'
p6615
NNNI1
I1
I0
tp6616
bg57
tp6617
Rp6618
ssV260884
p6619
(dp6620
g10
I0
sg11
g12
(g13
(S'S29'
p6621
I0
I1
tp6622
Rp6623
(I3
S'|'
p6624
NNNI29
I1
I0
tp6625
bS'anglicky, nemecky, spanielsky'
p6626
tp6627
Rp6628
sg22
g12
(g13
(S'S1'
p6629
I0
I1
tp6630
Rp6631
(I3
S'|'
p6632
NNNI1
I1
I0
tp6633
bg28
tp6634
Rp6635
sg31
g12
(g13
(S'S37'
p6636
I0
I1
tp6637
Rp6638
(I3
S'|'
p6639
NNNI37
I1
I0
tp6640
bS'banskobystricky kraj, rimavska sobota'
p6641
tp6642
Rp6643
sg40
g12
(g13
(S'S89'
p6644
I0
I1
tp6645
Rp6646
(I3
S'|'
p6647
NNNI89
I1
I0
tp6648
bS'sportovanie, party, priatelia, diskoteky, pocuvanie hudby, surfovanie po webe, praca s pc'
p6649
tp6650
Rp6651
sg49
I0
sg50
I1
sg51
g12
(g13
(S'S2'
p6652
I0
I1
tp6653
Rp6654
(I3
S'|'
p6655
NNNI2
I1
I0
tp6656
bS'21'
p6657
tp6658
Rp6659
sg60
g12
(g13
(S'S13'
p6660
I0
I1
tp6661
Rp6662
(I3
S'|'
p6663
NNNI13
I1
I0
tp6664
bS'stredoskolske'
p6665
tp6666
Rp6667
sg69
g12
(g13
(S'S9'
p6668
I0
I1
tp6669
Rp6670
(I3
S'|'
p6671
NNNI9
I1
I0
tp6672
bS'pri telke'
p6673
tp6674
Rp6675
sg78
g12
(g13
(S'S4'
p6676
I0
I1
tp6677
Rp6678
(I3
S'|'
p6679
NNNI4
I1
I0
tp6680
bS'null'
p6681
tp6682
Rp6683
sg87
g12
(g13
(S'S1'
p6684
I0
I1
tp6685
Rp6686
(I3
S'|'
p6687
NNNI1
I1
I0
tp6688
bg28
tp6689
Rp6690
ssV260885
p6691
(dp6692
g10
I0
sg11
g12
(g13
(S'S4'
p6693
I0
I1
tp6694
Rp6695
(I3
S'|'
p6696
NNNI4
I1
I0
tp6697
bS'null'
p6698
tp6699
Rp6700
sg22
g12
(g13
(S'S1'
p6701
I0
I1
tp6702
Rp6703
(I3
S'|'
p6704
NNNI1
I1
I0
tp6705
bg28
tp6706
Rp6707
sg31
g12
(g13
(S'S37'
p6708
I0
I1
tp6709
Rp6710
(I3
S'|'
p6711
NNNI37
I1
I0
tp6712
bS'banskobystricky kraj, rimavska sobota'
p6713
tp6714
Rp6715
sg40
g12
(g13
(S'S4'
p6716
I0
I1
tp6717
Rp6718
(I3
S'|'
p6719
NNNI4
I1
I0
tp6720
bS'null'
p6721
tp6722
Rp6723
sg49
I0
sg50
I1
sg51
g12
(g13
(S'S2'
p6724
I0
I1
tp6725
Rp6726
(I3
S'|'
p6727
NNNI2
I1
I0
tp6728
bS'13'
p6729
tp6730
Rp6731
sg60
g12
(g13
(S'S4'
p6732
I0
I1
tp6733
Rp6734
(I3
S'|'
p6735
NNNI4
I1
I0
tp6736
bS'null'
p6737
tp6738
Rp6739
sg69
g12
(g13
(S'S4'
p6740
I0
I1
tp6741
Rp6742
(I3
S'|'
p6743
NNNI4
I1
I0
tp6744
bS'null'
p6745
tp6746
Rp6747
sg78
g12
(g13
(S'S4'
p6748
I0
I1
tp6749
Rp6750
(I3
S'|'
p6751
NNNI4
I1
I0
tp6752
bS'null'
p6753
tp6754
Rp6755
sg87
g12
(g13
(S'S1'
p6756
I0
I1
tp6757
Rp6758
(I3
S'|'
p6759
NNNI1
I1
I0
tp6760
bg28
tp6761
Rp6762
ssV778498
p6763
(dp6764
g10
I0
sg11
g12
(g13
(S'S24'
p6765
I0
I1
tp6766
Rp6767
(I3
S'|'
p6768
NNNI24
I1
I0
tp6769
bS'anglicky cesky slovensky'
p6770
tp6771
Rp6772
sg22
g12
(g13
(S'S1'
p6773
I0
I1
tp6774
Rp6775
(I3
S'|'
p6776
NNNI1
I1
I0
tp6777
bg57
tp6778
Rp6779
sg31
g12
(g13
(S'S28'
p6780
I0
I1
tp6781
Rp6782
(I3
S'|'
p6783
NNNI28
I1
I0
tp6784
bS'banskobystricky kraj, zvolen'
p6785
tp6786
Rp6787
sg40
g12
(g13
(S'S4'
p6788
I0
I1
tp6789
Rp6790
(I3
S'|'
p6791
NNNI4
I1
I0
tp6792
bS'null'
p6793
tp6794
Rp6795
sg49
I0
sg50
I1
sg51
g12
(g13
(S'S2'
p6796
I0
I1
tp6797
Rp6798
(I3
S'|'
p6799
NNNI2
I1
I0
tp6800
bS'16'
p6801
tp6802
Rp6803
sg60
g12
(g13
(S'S8'
p6804
I0
I1
tp6805
Rp6806
(I3
S'|'
p6807
NNNI8
I1
I0
tp6808
bS'zakladne'
p6809
tp6810
Rp6811
sg69
g12
(g13
(S'S9'
p6812
I0
I1
tp6813
Rp6814
(I3
S'|'
p6815
NNNI9
I1
I0
tp6816
bS'v posteli'
p6817
tp6818
Rp6819
sg78
g12
(g13
(S'S4'
p6820
I0
I1
tp6821
Rp6822
(I3
S'|'
p6823
NNNI4
I1
I0
tp6824
bS'null'
p6825
tp6826
Rp6827
sg87
g12
(g13
(S'S1'
p6828
I0
I1
tp6829
Rp6830
(I3
S'|'
p6831
NNNI1
I1
I0
tp6832
bg57
tp6833
Rp6834
ssV1109770
p6835
(dp6836
g10
I0
sg11
g12
(g13
(S'S20'
p6837
I0
I1
tp6838
Rp6839
(I3
S'|'
p6840
NNNI20
I1
I0
tp6841
bS'anglicky, francuzsky'
p6842
tp6843
Rp6844
sg22
g12
(g13
(S'S1'
p6845
I0
I1
tp6846
Rp6847
(I3
S'|'
p6848
NNNI1
I1
I0
tp6849
bg57
tp6850
Rp6851
sg31
g12
(g13
(S'S22'
p6852
I0
I1
tp6853
Rp6854
(I3
S'|'
p6855
NNNI22
I1
I0
tp6856
bS'presovsky kraj, lipany'
p6857
tp6858
Rp6859
sg40
g12
(g13
(S'S4'
p6860
I0
I1
tp6861
Rp6862
(I3
S'|'
p6863
NNNI4
I1
I0
tp6864
bS'null'
p6865
tp6866
Rp6867
sg49
I0
sg50
I1
sg51
g12
(g13
(S'S2'
p6868
I0
I1
tp6869
Rp6870
(I3
S'|'
p6871
NNNI2
I1
I0
tp6872
bS'21'
p6873
tp6874
Rp6875
sg60
g12
(g13
(S'S13'
p6876
I0
I1
tp6877
Rp6878
(I3
S'|'
p6879
NNNI13
I1
I0
tp6880
bS'stredoskolske'
p6881
tp6882
Rp6883
sg69
g12
(g13
(S'S4'
p6884
I0
I1
tp6885
Rp6886
(I3
S'|'
p6887
NNNI4
I1
I0
tp6888
bS'null'
p6889
tp6890
Rp6891
sg78
g12
(g13
(S'S4'
p6892
I0
I1
tp6893
Rp6894
(I3
S'|'
p6895
NNNI4
I1
I0
tp6896
bS'null'
p6897
tp6898
Rp6899
sg87
g12
(g13
(S'S1'
p6900
I0
I1
tp6901
Rp6902
(I3
S'|'
p6903
NNNI1
I1
I0
tp6904
bg28
tp6905
Rp6906
ssV623520
p6907
(dp6908
g10
I0
sg11
g12
(g13
(S'S19'
p6909
I0
I1
tp6910
Rp6911
(I3
S'|'
p6912
NNNI19
I1
I0
tp6913
bS'anglicky len trocha'
p6914
tp6915
Rp6916
sg22
g12
(g13
(S'S1'
p6917
I0
I1
tp6918
Rp6919
(I3
S'|'
p6920
NNNI1
I1
I0
tp6921
bg28
tp6922
Rp6923
sg31
g12
(g13
(S'S30'
p6924
I0
I1
tp6925
Rp6926
(I3
S'|'
p6927
NNNI30
I1
I0
tp6928
bS'kosicky kraj, spisska nova ves'
p6929
tp6930
Rp6931
sg40
g12
(g13
(S'S11'
p6932
I0
I1
tp6933
Rp6934
(I3
S'|'
p6935
NNNI11
I1
I0
tp6936
bS'auta, hudba'
p6937
tp6938
Rp6939
sg49
I0
sg50
I1
sg51
g12
(g13
(S'S2'
p6940
I0
I1
tp6941
Rp6942
(I3
S'|'
p6943
NNNI2
I1
I0
tp6944
bS'11'
p6945
tp6946
Rp6947
sg60
g12
(g13
(S'S8'
p6948
I0
I1
tp6949
Rp6950
(I3
S'|'
p6951
NNNI8
I1
I0
tp6952
bS'zakladne'
p6953
tp6954
Rp6955
sg69
g12
(g13
(S'S27'
p6956
I0
I1
tp6957
Rp6958
(I3
S'|'
p6959
NNNI27
I1
I0
tp6960
bS'v dobrej restauracii a doma'
p6961
tp6962
Rp6963
sg78
g12
(g13
(S'S4'
p6964
I0
I1
tp6965
Rp6966
(I3
S'|'
p6967
NNNI4
I1
I0
tp6968
bS'null'
p6969
tp6970
Rp6971
sg87
g12
(g13
(S'S1'
p6972
I0
I1
tp6973
Rp6974
(I3
S'|'
p6975
NNNI1
I1
I0
tp6976
bg28
tp6977
Rp6978
ssV58072
p6979
(dp6980
g10
I0
sg11
g12
(g13
(S'S15'
p6981
I0
I1
tp6982
Rp6983
(I3
S'|'
p6984
NNNI15
I1
I0
tp6985
bS'rusky, anglicky'
p6986
tp6987
Rp6988
sg22
g12
(g13
(S'S1'
p6989
I0
I1
tp6990
Rp6991
(I3
S'|'
p6992
NNNI1
I1
I0
tp6993
bg57
tp6994
Rp6995
sg31
g12
(g13
(S'S32'
p6996
I0
I1
tp6997
Rp6998
(I3
S'|'
p6999
NNNI32
I1
I0
tp7000
bS'zahranicie, zahranicie - ostatne'
p7001
tp7002
Rp7003
sg40
g12
(g13
(S'S4'
p7004
I0
I1
tp7005
Rp7006
(I3
S'|'
p7007
NNNI4
I1
I0
tp7008
bS'null'
p7009
tp7010
Rp7011
sg49
I0
sg50
I1
sg51
g12
(g13
(S'S1'
p7012
I0
I1
tp7013
Rp7014
(I3
S'|'
p7015
NNNI1
I1
I0
tp7016
bg57
tp7017
Rp7018
sg60
g12
(g13
(S'S13'
p7019
I0
I1
tp7020
Rp7021
(I3
S'|'
p7022
NNNI13
I1
I0
tp7023
bS'stredoskolske'
p7024
tp7025
Rp7026
sg69
g12
(g13
(S'S4'
p7027
I0
I1
tp7028
Rp7029
(I3
S'|'
p7030
NNNI4
I1
I0
tp7031
bS'null'
p7032
tp7033
Rp7034
sg78
g12
(g13
(S'S4'
p7035
I0
I1
tp7036
Rp7037
(I3
S'|'
p7038
NNNI4
I1
I0
tp7039
bS'null'
p7040
tp7041
Rp7042
sg87
g12
(g13
(S'S1'
p7043
I0
I1
tp7044
Rp7045
(I3
S'|'
p7046
NNNI1
I1
I0
tp7047
bg28
tp7048
Rp7049
ssV113149
p7050
(dp7051
g10
I0
sg11
g12
(g13
(S'S4'
p7052
I0
I1
tp7053
Rp7054
(I3
S'|'
p7055
NNNI4
I1
I0
tp7056
bS'null'
p7057
tp7058
Rp7059
sg22
g12
(g13
(S'S1'
p7060
I0
I1
tp7061
Rp7062
(I3
S'|'
p7063
NNNI1
I1
I0
tp7064
bg28
tp7065
Rp7066
sg31
g12
(g13
(S'S24'
p7067
I0
I1
tp7068
Rp7069
(I3
S'|'
p7070
NNNI24
I1
I0
tp7071
bS'presovsky kraj, kezmarok'
p7072
tp7073
Rp7074
sg40
g12
(g13
(S'S3'
p7075
I0
I1
tp7076
Rp7077
(I3
S'|'
p7078
NNNI3
I1
I0
tp7079
bS'sex'
p7080
tp7081
Rp7082
sg49
I0
sg50
I1
sg51
g12
(g13
(S'S1'
p7083
I0
I1
tp7084
Rp7085
(I3
S'|'
p7086
NNNI1
I1
I0
tp7087
bg57
tp7088
Rp7089
sg60
g12
(g13
(S'S4'
p7090
I0
I1
tp7091
Rp7092
(I3
S'|'
p7093
NNNI4
I1
I0
tp7094
bS'null'
p7095
tp7096
Rp7097
sg69
g12
(g13
(S'S9'
p7098
I0
I1
tp7099
Rp7100
(I3
S'|'
p7101
NNNI9
I1
I0
tp7102
bS'v posteli'
p7103
tp7104
Rp7105
sg78
g12
(g13
(S'S4'
p7106
I0
I1
tp7107
Rp7108
(I3
S'|'
p7109
NNNI4
I1
I0
tp7110
bS'null'
p7111
tp7112
Rp7113
sg87
g12
(g13
(S'S1'
p7114
I0
I1
tp7115
Rp7116
(I3
S'|'
p7117
NNNI1
I1
I0
tp7118
bg28
tp7119
Rp7120
ssV416727
p7121
(dp7122
g10
I0
sg11
g12
(g13
(S'S27'
p7123
I0
I1
tp7124
Rp7125
(I3
S'|'
p7126
NNNI27
I1
I0
tp7127
bS'nemecky , trochu  taliansky'
p7128
tp7129
Rp7130
sg22
g12
(g13
(S'S1'
p7131
I0
I1
tp7132
Rp7133
(I3
S'|'
p7134
NNNI1
I1
I0
tp7135
bg28
tp7136
Rp7137
sg31
g12
(g13
(S'S30'
p7138
I0
I1
tp7139
Rp7140
(I3
S'|'
p7141
NNNI30
I1
I0
tp7142
bS'kosicky kraj, spisska nova ves'
p7143
tp7144
Rp7145
sg40
g12
(g13
(S'S33'
p7146
I0
I1
tp7147
Rp7148
(I3
S'|'
p7149
NNNI33
I1
I0
tp7150
bS'party, priatelia, pocuvanie hudby'
p7151
tp7152
Rp7153
sg49
I0
sg50
I1
sg51
g12
(g13
(S'S1'
p7154
I0
I1
tp7155
Rp7156
(I3
S'|'
p7157
NNNI1
I1
I0
tp7158
bg57
tp7159
Rp7160
sg60
g12
(g13
(S'S13'
p7161
I0
I1
tp7162
Rp7163
(I3
S'|'
p7164
NNNI13
I1
I0
tp7165
bS'stredoskolske'
p7166
tp7167
Rp7168
sg69
g12
(g13
(S'S31'
p7169
I0
I1
tp7170
Rp7171
(I3
S'|'
p7172
NNNI31
I1
I0
tp7173
bS'v posteli, v dobrej restauracii'
p7174
tp7175
Rp7176
sg78
g12
(g13
(S'S4'
p7177
I0
I1
tp7178
Rp7179
(I3
S'|'
p7180
NNNI4
I1
I0
tp7181
bS'null'
p7182
tp7183
Rp7184
sg87
g12
(g13
(S'S1'
p7185
I0
I1
tp7186
Rp7187
(I3
S'|'
p7188
NNNI1
I1
I0
tp7189
bg28
tp7190
Rp7191
ssV1058299
p7192
(dp7193
g10
I0
sg11
g12
(g13
(S'S4'
p7194
I0
I1
tp7195
Rp7196
(I3
S'|'
p7197
NNNI4
I1
I0
tp7198
bS'null'
p7199
tp7200
Rp7201
sg22
g12
(g13
(S'S1'
p7202
I0
I1
tp7203
Rp7204
(I3
S'|'
p7205
NNNI1
I1
I0
tp7206
bg57
tp7207
Rp7208
sg31
g12
(g13
(S'S30'
p7209
I0
I1
tp7210
Rp7211
(I3
S'|'
p7212
NNNI30
I1
I0
tp7213
bS'kosicky kraj, spisska nova ves'
p7214
tp7215
Rp7216
sg40
g12
(g13
(S'S11'
p7217
I0
I1
tp7218
Rp7219
(I3
S'|'
p7220
NNNI11
I1
I0
tp7221
bS'sportovanie'
p7222
tp7223
Rp7224
sg49
I0
sg50
I1
sg51
g12
(g13
(S'S1'
p7225
I0
I1
tp7226
Rp7227
(I3
S'|'
p7228
NNNI1
I1
I0
tp7229
bg57
tp7230
Rp7231
sg60
g12
(g13
(S'S8'
p7232
I0
I1
tp7233
Rp7234
(I3
S'|'
p7235
NNNI8
I1
I0
tp7236
bS'zakladne'
p7237
tp7238
Rp7239
sg69
g12
(g13
(S'S4'
p7240
I0
I1
tp7241
Rp7242
(I3
S'|'
p7243
NNNI4
I1
I0
tp7244
bS'null'
p7245
tp7246
Rp7247
sg78
g12
(g13
(S'S4'
p7248
I0
I1
tp7249
Rp7250
(I3
S'|'
p7251
NNNI4
I1
I0
tp7252
bS'null'
p7253
tp7254
Rp7255
sg87
g12
(g13
(S'S1'
p7256
I0
I1
tp7257
Rp7258
(I3
S'|'
p7259
NNNI1
I1
I0
tp7260
bg28
tp7261
Rp7262
ssV820161
p7263
(dp7264
g10
I0
sg11
g12
(g13
(S'S20'
p7265
I0
I1
tp7266
Rp7267
(I3
S'|'
p7268
NNNI20
I1
I0
tp7269
bS'anglicky, francuzsky'
p7270
tp7271
Rp7272
sg22
g12
(g13
(S'S1'
p7273
I0
I1
tp7274
Rp7275
(I3
S'|'
p7276
NNNI1
I1
I0
tp7277
bg57
tp7278
Rp7279
sg31
g12
(g13
(S'S27'
p7280
I0
I1
tp7281
Rp7282
(I3
S'|'
p7283
NNNI27
I1
I0
tp7284
bS'zahranicie, zahranicie - gb'
p7285
tp7286
Rp7287
sg40
g12
(g13
(S'S38'
p7288
I0
I1
tp7289
Rp7290
(I3
S'|'
p7291
NNNI38
I1
I0
tp7292
bS'fotografovanie, tancovanie, stanovanie'
p7293
tp7294
Rp7295
sg49
I0
sg50
I1
sg51
g12
(g13
(S'S2'
p7296
I0
I1
tp7297
Rp7298
(I3
S'|'
p7299
NNNI2
I1
I0
tp7300
bS'12'
p7301
tp7302
Rp7303
sg60
g12
(g13
(S'S4'
p7304
I0
I1
tp7305
Rp7306
(I3
S'|'
p7307
NNNI4
I1
I0
tp7308
bS'null'
p7309
tp7310
Rp7311
sg69
g12
(g13
(S'S4'
p7312
I0
I1
tp7313
Rp7314
(I3
S'|'
p7315
NNNI4
I1
I0
tp7316
bS'null'
p7317
tp7318
Rp7319
sg78
g12
(g13
(S'S4'
p7320
I0
I1
tp7321
Rp7322
(I3
S'|'
p7323
NNNI4
I1
I0
tp7324
bS'null'
p7325
tp7326
Rp7327
sg87
g12
(g13
(S'S1'
p7328
I0
I1
tp7329
Rp7330
(I3
S'|'
p7331
NNNI1
I1
I0
tp7332
bg28
tp7333
Rp7334
ssV525173
p7335
(dp7336
g10
I0
sg11
g12
(g13
(S'S4'
p7337
I0
I1
tp7338
Rp7339
(I3
S'|'
p7340
NNNI4
I1
I0
tp7341
bS'null'
p7342
tp7343
Rp7344
sg22
g12
(g13
(S'S1'
p7345
I0
I1
tp7346
Rp7347
(I3
S'|'
p7348
NNNI1
I1
I0
tp7349
bg28
tp7350
Rp7351
sg31
g12
(g13
(S'S37'
p7352
I0
I1
tp7353
Rp7354
(I3
S'|'
p7355
NNNI37
I1
I0
tp7356
bS'banskobystricky kraj, rimavska sobota'
p7357
tp7358
Rp7359
sg40
g12
(g13
(S'S4'
p7360
I0
I1
tp7361
Rp7362
(I3
S'|'
p7363
NNNI4
I1
I0
tp7364
bS'null'
p7365
tp7366
Rp7367
sg49
I0
sg50
I1
sg51
g12
(g13
(S'S2'
p7368
I0
I1
tp7369
Rp7370
(I3
S'|'
p7371
NNNI2
I1
I0
tp7372
bS'34'
p7373
tp7374
Rp7375
sg60
g12
(g13
(S'S4'
p7376
I0
I1
tp7377
Rp7378
(I3
S'|'
p7379
NNNI4
I1
I0
tp7380
bS'null'
p7381
tp7382
Rp7383
sg69
g12
(g13
(S'S4'
p7384
I0
I1
tp7385
Rp7386
(I3
S'|'
p7387
NNNI4
I1
I0
tp7388
bS'null'
p7389
tp7390
Rp7391
sg78
g12
(g13
(S'S4'
p7392
I0
I1
tp7393
Rp7394
(I3
S'|'
p7395
NNNI4
I1
I0
tp7396
bS'null'
p7397
tp7398
Rp7399
sg87
g12
(g13
(S'S1'
p7400
I0
I1
tp7401
Rp7402
(I3
S'|'
p7403
NNNI1
I1
I0
tp7404
bg28
tp7405
Rp7406
ssV238231
p7407
(dp7408
g10
I0
sg11
g12
(g13
(S'S4'
p7409
I0
I1
tp7410
Rp7411
(I3
S'|'
p7412
NNNI4
I1
I0
tp7413
bS'null'
p7414
tp7415
Rp7416
sg22
g12
(g13
(S'S1'
p7417
I0
I1
tp7418
Rp7419
(I3
S'|'
p7420
NNNI1
I1
I0
tp7421
bg57
tp7422
Rp7423
sg31
g12
(g13
(S'S37'
p7424
I0
I1
tp7425
Rp7426
(I3
S'|'
p7427
NNNI37
I1
I0
tp7428
bS'banskobystricky kraj, rimavska sobota'
p7429
tp7430
Rp7431
sg40
g12
(g13
(S'S4'
p7432
I0
I1
tp7433
Rp7434
(I3
S'|'
p7435
NNNI4
I1
I0
tp7436
bS'null'
p7437
tp7438
Rp7439
sg49
I0
sg50
I1
sg51
g12
(g13
(S'S1'
p7440
I0
I1
tp7441
Rp7442
(I3
S'|'
p7443
NNNI1
I1
I0
tp7444
bg57
tp7445
Rp7446
sg60
g12
(g13
(S'S4'
p7447
I0
I1
tp7448
Rp7449
(I3
S'|'
p7450
NNNI4
I1
I0
tp7451
bS'null'
p7452
tp7453
Rp7454
sg69
g12
(g13
(S'S4'
p7455
I0
I1
tp7456
Rp7457
(I3
S'|'
p7458
NNNI4
I1
I0
tp7459
bS'null'
p7460
tp7461
Rp7462
sg78
g12
(g13
(S'S4'
p7463
I0
I1
tp7464
Rp7465
(I3
S'|'
p7466
NNNI4
I1
I0
tp7467
bS'null'
p7468
tp7469
Rp7470
sg87
g12
(g13
(S'S1'
p7471
I0
I1
tp7472
Rp7473
(I3
S'|'
p7474
NNNI1
I1
I0
tp7475
bg57
tp7476
Rp7477
ssV576862
p7478
(dp7479
g10
I0
sg11
g12
(g13
(S'S27'
p7480
I0
I1
tp7481
Rp7482
(I3
S'|'
p7483
NNNI27
I1
I0
tp7484
bS'anglicky, trosku francuzsky'
p7485
tp7486
Rp7487
sg22
g12
(g13
(S'S1'
p7488
I0
I1
tp7489
Rp7490
(I3
S'|'
p7491
NNNI1
I1
I0
tp7492
bg57
tp7493
Rp7494
sg31
g12
(g13
(S'S21'
p7495
I0
I1
tp7496
Rp7497
(I3
S'|'
p7498
NNNI21
I1
I0
tp7499
bS'zilinsky kraj, martin'
p7500
tp7501
Rp7502
sg40
g12
(g13
(S'S174'
p7503
I0
I1
tp7504
Rp7505
(I3
S'|'
p7506
NNNI174
I1
I0
tp7507
bS'sportovanie, fotografovanie, malovanie, kino, priatelia, nakupovanie, tancovanie, pozeranie filmov, citanie, kupalisko, party, stanovanie, pocuvanie hudby, surfovanie po webe'
p7508
tp7509
Rp7510
sg49
I0
sg50
I1
sg51
g12
(g13
(S'S2'
p7511
I0
I1
tp7512
Rp7513
(I3
S'|'
p7514
NNNI2
I1
I0
tp7515
bS'15'
p7516
tp7517
Rp7518
sg60
g12
(g13
(S'S8'
p7519
I0
I1
tp7520
Rp7521
(I3
S'|'
p7522
NNNI8
I1
I0
tp7523
bS'zakladne'
p7524
tp7525
Rp7526
sg69
g12
(g13
(S'S31'
p7527
I0
I1
tp7528
Rp7529
(I3
S'|'
p7530
NNNI31
I1
I0
tp7531
bS'v dobrej restauracii, v posteli'
p7532
tp7533
Rp7534
sg78
g12
(g13
(S'S4'
p7535
I0
I1
tp7536
Rp7537
(I3
S'|'
p7538
NNNI4
I1
I0
tp7539
bS'null'
p7540
tp7541
Rp7542
sg87
g12
(g13
(S'S1'
p7543
I0
I1
tp7544
Rp7545
(I3
S'|'
p7546
NNNI1
I1
I0
tp7547
bg28
tp7548
Rp7549
ssV333248
p7550
(dp7551
g10
I0
sg11
g12
(g13
(S'S4'
p7552
I0
I1
tp7553
Rp7554
(I3
S'|'
p7555
NNNI4
I1
I0
tp7556
bS'null'
p7557
tp7558
Rp7559
sg22
g12
(g13
(S'S1'
p7560
I0
I1
tp7561
Rp7562
(I3
S'|'
p7563
NNNI1
I1
I0
tp7564
bg57
tp7565
Rp7566
sg31
g12
(g13
(S'S29'
p7567
I0
I1
tp7568
Rp7569
(I3
S'|'
p7570
NNNI29
I1
I0
tp7571
bS'banskobystricky kraj, tornala'
p7572
tp7573
Rp7574
sg40
g12
(g13
(S'S4'
p7575
I0
I1
tp7576
Rp7577
(I3
S'|'
p7578
NNNI4
I1
I0
tp7579
bS'null'
p7580
tp7581
Rp7582
sg49
I0
sg50
I1
sg51
g12
(g13
(S'S1'
p7583
I0
I1
tp7584
Rp7585
(I3
S'|'
p7586
NNNI1
I1
I0
tp7587
bg57
tp7588
Rp7589
sg60
g12
(g13
(S'S4'
p7590
I0
I1
tp7591
Rp7592
(I3
S'|'
p7593
NNNI4
I1
I0
tp7594
bS'null'
p7595
tp7596
Rp7597
sg69
g12
(g13
(S'S4'
p7598
I0
I1
tp7599
Rp7600
(I3
S'|'
p7601
NNNI4
I1
I0
tp7602
bS'null'
p7603
tp7604
Rp7605
sg78
g12
(g13
(S'S4'
p7606
I0
I1
tp7607
Rp7608
(I3
S'|'
p7609
NNNI4
I1
I0
tp7610
bS'null'
p7611
tp7612
Rp7613
sg87
g12
(g13
(S'S1'
p7614
I0
I1
tp7615
Rp7616
(I3
S'|'
p7617
NNNI1
I1
I0
tp7618
bg57
tp7619
Rp7620
ssV172382
p7621
(dp7622
g10
I0
sg11
g12
(g13
(S'S58'
p7623
I0
I1
tp7624
Rp7625
(I3
S'|'
p7626
NNNI58
I1
I0
tp7627
bS'slovensky cezsky trochu anglicky a po taliansky 3 slova :d'
p7628
tp7629
Rp7630
sg22
g12
(g13
(S'S1'
p7631
I0
I1
tp7632
Rp7633
(I3
S'|'
p7634
NNNI1
I1
I0
tp7635
bg28
tp7636
Rp7637
sg31
g12
(g13
(S'S23'
p7638
I0
I1
tp7639
Rp7640
(I3
S'|'
p7641
NNNI23
I1
I0
tp7642
bS'nitriansky kraj, levice'
p7643
tp7644
Rp7645
sg40
g12
(g13
(S'S170'
p7646
I0
I1
tp7647
Rp7648
(I3
S'|'
p7649
NNNI170
I1
I0
tp7650
bS'sportovanie, cestovanie, praca s pc, pc hry, pocuvanie hudby, pozeranie filmov, malovanie, tancovanie, kupalisko, kino, priatelia, spanie, divadlo, stanovanie, obycajneee'
p7651
tp7652
Rp7653
sg49
I0
sg50
I1
sg51
g12
(g13
(S'S2'
p7654
I0
I1
tp7655
Rp7656
(I3
S'|'
p7657
NNNI2
I1
I0
tp7658
bS'12'
p7659
tp7660
Rp7661
sg60
g12
(g13
(S'S15'
p7662
I0
I1
tp7663
Rp7664
(I3
S'|'
p7665
NNNI15
I1
I0
tp7666
bS'zakladne, som 6'
p7667
tp7668
Rp7669
sg69
g12
(g13
(S'S67'
p7670
I0
I1
tp7671
Rp7672
(I3
S'|'
p7673
NNNI67
I1
I0
tp7674
bS'pri telke, v dobrej restauracii, v posteli, vsade kde ma neotravuju'
p7675
tp7676
Rp7677
sg78
g12
(g13
(S'S4'
p7678
I0
I1
tp7679
Rp7680
(I3
S'|'
p7681
NNNI4
I1
I0
tp7682
bS'null'
p7683
tp7684
Rp7685
sg87
g12
(g13
(S'S1'
p7686
I0
I1
tp7687
Rp7688
(I3
S'|'
p7689
NNNI1
I1
I0
tp7690
bg28
tp7691
Rp7692
ssV89024
p7693
(dp7694
g10
I0
sg11
g12
(g13
(S'S58'
p7695
I0
I1
tp7696
Rp7697
(I3
S'|'
p7698
NNNI58
I1
I0
tp7699
bS'anglicky, nemecky,kolt&#39;ansky,  slovensky samozrejme :d'
p7700
tp7701
Rp7702
sg22
g12
(g13
(S'S1'
p7703
I0
I1
tp7704
Rp7705
(I3
S'|'
p7706
NNNI1
I1
I0
tp7707
bg57
tp7708
Rp7709
sg31
g12
(g13
(S'S27'
p7710
I0
I1
tp7711
Rp7712
(I3
S'|'
p7713
NNNI27
I1
I0
tp7714
bS'nitriansky kraj, nove zamky'
p7715
tp7716
Rp7717
sg40
g12
(g13
(S'S127'
p7718
I0
I1
tp7719
Rp7720
(I3
S'|'
p7721
NNNI127
I1
I0
tp7722
bS'priatelia, kino, pocuvanie hudby, surfovanie po webe, stanovanie, nakupovanie, spanie, kupalisko, sportovanie, pozeranie filmov'
p7723
tp7724
Rp7725
sg49
I0
sg50
I1
sg51
g12
(g13
(S'S2'
p7726
I0
I1
tp7727
Rp7728
(I3
S'|'
p7729
NNNI2
I1
I0
tp7730
bS'16'
p7731
tp7732
Rp7733
sg60
g12
(g13
(S'S34'
p7734
I0
I1
tp7735
Rp7736
(I3
S'|'
p7737
NNNI34
I1
I0
tp7738
bS'zakladne,momentalne  stredoskolske'
p7739
tp7740
Rp7741
sg69
g12
(g13
(S'S20'
p7742
I0
I1
tp7743
Rp7744
(I3
S'|'
p7745
NNNI20
I1
I0
tp7746
bS'pri telke, v posteli'
p7747
tp7748
Rp7749
sg78
g12
(g13
(S'S116'
p7750
I0
I1
tp7751
Rp7752
(I3
S'|'
p7753
NNNI116
I1
I0
tp7754
bS'<div> <a title="vstup do klubu" href="/klub/neznasam-v-stavanie-do-skoly">neznasam v stavanie do skoly :(</a> </div>'
p7755
tp7756
Rp7757
sg87
g12
(g13
(S'S1'
p7758
I0
I1
tp7759
Rp7760
(I3
S'|'
p7761
NNNI1
I1
I0
tp7762
bg28
tp7763
Rp7764
ssV851163
p7765
(dp7766
g10
I0
sg11
g12
(g13
(S'S58'
p7767
I0
I1
tp7768
Rp7769
(I3
S'|'
p7770
NNNI58
I1
I0
tp7771
bS'nemecky  tak ako mi je za potrebu a angligtinu len trochen'
p7772
tp7773
Rp7774
sg22
g12
(g13
(S'S1'
p7775
I0
I1
tp7776
Rp7777
(I3
S'|'
p7778
NNNI1
I1
I0
tp7779
bg28
tp7780
Rp7781
sg31
g12
(g13
(S'S31'
p7782
I0
I1
tp7783
Rp7784
(I3
S'|'
p7785
NNNI31
I1
I0
tp7786
bS'banskobystricky kraj, nova bana'
p7787
tp7788
Rp7789
sg40
g12
(g13
(S'S127'
p7790
I0
I1
tp7791
Rp7792
(I3
S'|'
p7793
NNNI127
I1
I0
tp7794
bS'sportovanie, praca s pc, pc hry, pocuvanie hudby, pozeranie filmov vsak ked ich mam okolo 600 alebo 700 tak co si nnepozrem nee'
p7795
tp7796
Rp7797
sg49
I0
sg50
I1
sg51
g12
(g13
(S'S1'
p7798
I0
I1
tp7799
Rp7800
(I3
S'|'
p7801
NNNI1
I1
I0
tp7802
bg57
tp7803
Rp7804
sg60
g12
(g13
(S'S8'
p7805
I0
I1
tp7806
Rp7807
(I3
S'|'
p7808
NNNI8
I1
I0
tp7809
bS'zakladne'
p7810
tp7811
Rp7812
sg69
g12
(g13
(S'S9'
p7813
I0
I1
tp7814
Rp7815
(I3
S'|'
p7816
NNNI9
I1
I0
tp7817
bS'pri telke'
p7818
tp7819
Rp7820
sg78
g12
(g13
(S'S4'
p7821
I0
I1
tp7822
Rp7823
(I3
S'|'
p7824
NNNI4
I1
I0
tp7825
bS'null'
p7826
tp7827
Rp7828
sg87
g12
(g13
(S'S1'
p7829
I0
I1
tp7830
Rp7831
(I3
S'|'
p7832
NNNI1
I1
I0
tp7833
bg28
tp7834
Rp7835
ssV851162
p7836
(dp7837
g10
I0
sg11
g12
(g13
(S'S4'
p7838
I0
I1
tp7839
Rp7840
(I3
S'|'
p7841
NNNI4
I1
I0
tp7842
bS'null'
p7843
tp7844
Rp7845
sg22
g12
(g13
(S'S1'
p7846
I0
I1
tp7847
Rp7848
(I3
S'|'
p7849
NNNI1
I1
I0
tp7850
bg57
tp7851
Rp7852
sg31
g12
(g13
(S'S31'
p7853
I0
I1
tp7854
Rp7855
(I3
S'|'
p7856
NNNI31
I1
I0
tp7857
bS'banskobystricky kraj, nova bana'
p7858
tp7859
Rp7860
sg40
g12
(g13
(S'S4'
p7861
I0
I1
tp7862
Rp7863
(I3
S'|'
p7864
NNNI4
I1
I0
tp7865
bS'null'
p7866
tp7867
Rp7868
sg49
I0
sg50
I1
sg51
g12
(g13
(S'S1'
p7869
I0
I1
tp7870
Rp7871
(I3
S'|'
p7872
NNNI1
I1
I0
tp7873
bg57
tp7874
Rp7875
sg60
g12
(g13
(S'S4'
p7876
I0
I1
tp7877
Rp7878
(I3
S'|'
p7879
NNNI4
I1
I0
tp7880
bS'null'
p7881
tp7882
Rp7883
sg69
g12
(g13
(S'S4'
p7884
I0
I1
tp7885
Rp7886
(I3
S'|'
p7887
NNNI4
I1
I0
tp7888
bS'null'
p7889
tp7890
Rp7891
sg78
g12
(g13
(S'S4'
p7892
I0
I1
tp7893
Rp7894
(I3
S'|'
p7895
NNNI4
I1
I0
tp7896
bS'null'
p7897
tp7898
Rp7899
sg87
g12
(g13
(S'S1'
p7900
I0
I1
tp7901
Rp7902
(I3
S'|'
p7903
NNNI1
I1
I0
tp7904
bg57
tp7905
Rp7906
ssV418618
p7907
(dp7908
g10
I0
sg11
g12
(g13
(S'S14'
p7909
I0
I1
tp7910
Rp7911
(I3
S'|'
p7912
NNNI14
I1
I0
tp7913
bS'nemecky, rusky'
p7914
tp7915
Rp7916
sg22
g12
(g13
(S'S1'
p7917
I0
I1
tp7918
Rp7919
(I3
S'|'
p7920
NNNI1
I1
I0
tp7921
bg57
tp7922
Rp7923
sg31
g12
(g13
(S'S22'
p7924
I0
I1
tp7925
Rp7926
(I3
S'|'
p7927
NNNI22
I1
I0
tp7928
bS'presovsky kraj, presov'
p7929
tp7930
Rp7931
sg40
g12
(g13
(S'S134'
p7932
I0
I1
tp7933
Rp7934
(I3
S'|'
p7935
NNNI134
I1
I0
tp7936
bS'sportovanie, cestovanie, praca s pc, surfovanie po webe, pozeranie filmov, tancovanie, kupalisko, kino, party, spanie, a ete vela veci'
p7937
tp7938
Rp7939
sg49
I0
sg50
I1
sg51
g12
(g13
(S'S1'
p7940
I0
I1
tp7941
Rp7942
(I3
S'|'
p7943
NNNI1
I1
I0
tp7944
bg57
tp7945
Rp7946
sg60
g12
(g13
(S'S8'
p7947
I0
I1
tp7948
Rp7949
(I3
S'|'
p7950
NNNI8
I1
I0
tp7951
bS'zakladne'
p7952
tp7953
Rp7954
sg69
g12
(g13
(S'S42'
p7955
I0
I1
tp7956
Rp7957
(I3
S'|'
p7958
NNNI42
I1
I0
tp7959
bS'pri telke, v dobrej restauracii, v posteli'
p7960
tp7961
Rp7962
sg78
g12
(g13
(S'S4'
p7963
I0
I1
tp7964
Rp7965
(I3
S'|'
p7966
NNNI4
I1
I0
tp7967
bS'null'
p7968
tp7969
Rp7970
sg87
g12
(g13
(S'S1'
p7971
I0
I1
tp7972
Rp7973
(I3
S'|'
p7974
NNNI1
I1
I0
tp7975
bg57
tp7976
Rp7977
ssV1310590
p7978
(dp7979
g10
I0
sg11
g12
(g13
(S'S81'
p7980
I0
I1
tp7981
Rp7982
(I3
S'|'
p7983
NNNI81
I1
I0
tp7984
bS'anglicky-tak ten teda skoro vubec =d a tu moji cestinu a to taky jen kdyz chci =d'
p7985
tp7986
Rp7987
sg22
g12
(g13
(S'S1'
p7988
I0
I1
tp7989
Rp7990
(I3
S'|'
p7991
NNNI1
I1
I0
tp7992
bg57
tp7993
Rp7994
sg31
g12
(g13
(S'S38'
p7995
I0
I1
tp7996
Rp7997
(I3
S'|'
p7998
NNNI38
I1
I0
tp7999
bS'ceska republika, cz - budejovicky kraj'
p8000
tp8001
Rp8002
sg40
g12
(g13
(S'S185'
p8003
I0
I1
tp8004
Rp8005
(I3
S'|'
p8006
NNNI185
I1
I0
tp8007
bS'fotografovanie, praca s pc, surfovanie po webe, pocuvanie hudby, pozeranie filmov, chovatelstvo, malovanie, tancovanie, diskoteky, party, priatelia, spanie, nakupovanie, sex, stanovanie'
p8008
tp8009
Rp8010
sg49
I0
sg50
I1
sg51
g12
(g13
(S'S2'
p8011
I0
I1
tp8012
Rp8013
(I3
S'|'
p8014
NNNI2
I1
I0
tp8015
bS'19'
p8016
tp8017
Rp8018
sg60
g12
(g13
(S'S18'
p8019
I0
I1
tp8020
Rp8021
(I3
S'|'
p8022
NNNI18
I1
I0
tp8023
bS'zakladne, ucnovske'
p8024
tp8025
Rp8026
sg69
g12
(g13
(S'S20'
p8027
I0
I1
tp8028
Rp8029
(I3
S'|'
p8030
NNNI20
I1
I0
tp8031
bS'pri telke, v posteli'
p8032
tp8033
Rp8034
sg78
g12
(g13
(S'S4'
p8035
I0
I1
tp8036
Rp8037
(I3
S'|'
p8038
NNNI4
I1
I0
tp8039
bS'null'
p8040
tp8041
Rp8042
sg87
g12
(g13
(S'S1'
p8043
I0
I1
tp8044
Rp8045
(I3
S'|'
p8046
NNNI1
I1
I0
tp8047
bg28
tp8048
Rp8049
ssV975504
p8050
(dp8051
g10
I0
sg11
g12
(g13
(S'S34'
p8052
I0
I1
tp8053
Rp8054
(I3
S'|'
p8055
NNNI34
I1
I0
tp8056
bS'nemecky, z kazdeho rozku trosku ;)'
p8057
tp8058
Rp8059
sg22
g12
(g13
(S'S1'
p8060
I0
I1
tp8061
Rp8062
(I3
S'|'
p8063
NNNI1
I1
I0
tp8064
bg57
tp8065
Rp8066
sg31
g12
(g13
(S'S32'
p8067
I0
I1
tp8068
Rp8069
(I3
S'|'
p8070
NNNI32
I1
I0
tp8071
bS'zahranicie, zahranicie - nemecko'
p8072
tp8073
Rp8074
sg40
g12
(g13
(S'S81'
p8075
I0
I1
tp8076
Rp8077
(I3
S'|'
p8078
NNNI81
I1
I0
tp8079
bS'fotografovanie, priatelia, prace okolo domu, podla toho naco si najdem cas a chut'
p8080
tp8081
Rp8082
sg49
I0
sg50
I1
sg51
g12
(g13
(S'S2'
p8083
I0
I1
tp8084
Rp8085
(I3
S'|'
p8086
NNNI2
I1
I0
tp8087
bS'26'
p8088
tp8089
Rp8090
sg60
g12
(g13
(S'S25'
p8091
I0
I1
tp8092
Rp8093
(I3
S'|'
p8094
NNNI25
I1
I0
tp8095
bS'stredoskolske s maturitou'
p8096
tp8097
Rp8098
sg69
g12
(g13
(S'S47'
p8099
I0
I1
tp8100
Rp8101
(I3
S'|'
p8102
NNNI47
I1
I0
tp8103
bS'pri svieckach s partnerom, v dobrej restauracii'
p8104
tp8105
Rp8106
sg78
g12
(g13
(S'S4'
p8107
I0
I1
tp8108
Rp8109
(I3
S'|'
p8110
NNNI4
I1
I0
tp8111
bS'null'
p8112
tp8113
Rp8114
sg87
g12
(g13
(S'S1'
p8115
I0
I1
tp8116
Rp8117
(I3
S'|'
p8118
NNNI1
I1
I0
tp8119
bg28
tp8120
Rp8121
ssV184089
p8122
(dp8123
g10
I0
sg11
g12
(g13
(S'S4'
p8124
I0
I1
tp8125
Rp8126
(I3
S'|'
p8127
NNNI4
I1
I0
tp8128
bS'null'
p8129
tp8130
Rp8131
sg22
g12
(g13
(S'S1'
p8132
I0
I1
tp8133
Rp8134
(I3
S'|'
p8135
NNNI1
I1
I0
tp8136
bg57
tp8137
Rp8138
sg31
g12
(g13
(S'S29'
p8139
I0
I1
tp8140
Rp8141
(I3
S'|'
p8142
NNNI29
I1
I0
tp8143
bS'banskobystricky kraj, tornala'
p8144
tp8145
Rp8146
sg40
g12
(g13
(S'S4'
p8147
I0
I1
tp8148
Rp8149
(I3
S'|'
p8150
NNNI4
I1
I0
tp8151
bS'null'
p8152
tp8153
Rp8154
sg49
I0
sg50
I0
sg51
g12
(g13
(S'S1'
p8155
I0
I1
tp8156
Rp8157
(I3
S'|'
p8158
NNNI1
I1
I0
tp8159
bg57
tp8160
Rp8161
sg60
g12
(g13
(S'S4'
p8162
I0
I1
tp8163
Rp8164
(I3
S'|'
p8165
NNNI4
I1
I0
tp8166
bS'null'
p8167
tp8168
Rp8169
sg69
g12
(g13
(S'S4'
p8170
I0
I1
tp8171
Rp8172
(I3
S'|'
p8173
NNNI4
I1
I0
tp8174
bS'null'
p8175
tp8176
Rp8177
sg78
g12
(g13
(S'S4'
p8178
I0
I1
tp8179
Rp8180
(I3
S'|'
p8181
NNNI4
I1
I0
tp8182
bS'null'
p8183
tp8184
Rp8185
sg87
g12
(g13
(S'S1'
p8186
I0
I1
tp8187
Rp8188
(I3
S'|'
p8189
NNNI1
I1
I0
tp8190
bg28
tp8191
Rp8192
ssV334921
p8193
(dp8194
g10
I0
sg11
g12
(g13
(S'S4'
p8195
I0
I1
tp8196
Rp8197
(I3
S'|'
p8198
NNNI4
I1
I0
tp8199
bS'null'
p8200
tp8201
Rp8202
sg22
g12
(g13
(S'S1'
p8203
I0
I1
tp8204
Rp8205
(I3
S'|'
p8206
NNNI1
I1
I0
tp8207
bg57
tp8208
Rp8209
sg31
g12
(g13
(S'S22'
p8210
I0
I1
tp8211
Rp8212
(I3
S'|'
p8213
NNNI22
I1
I0
tp8214
bS'presovsky kraj, presov'
p8215
tp8216
Rp8217
sg40
g12
(g13
(S'S4'
p8218
I0
I1
tp8219
Rp8220
(I3
S'|'
p8221
NNNI4
I1
I0
tp8222
bS'null'
p8223
tp8224
Rp8225
sg49
I0
sg50
I0
sg51
g12
(g13
(S'S1'
p8226
I0
I1
tp8227
Rp8228
(I3
S'|'
p8229
NNNI1
I1
I0
tp8230
bg57
tp8231
Rp8232
sg60
g12
(g13
(S'S4'
p8233
I0
I1
tp8234
Rp8235
(I3
S'|'
p8236
NNNI4
I1
I0
tp8237
bS'null'
p8238
tp8239
Rp8240
sg69
g12
(g13
(S'S4'
p8241
I0
I1
tp8242
Rp8243
(I3
S'|'
p8244
NNNI4
I1
I0
tp8245
bS'null'
p8246
tp8247
Rp8248
sg78
g12
(g13
(S'S4'
p8249
I0
I1
tp8250
Rp8251
(I3
S'|'
p8252
NNNI4
I1
I0
tp8253
bS'null'
p8254
tp8255
Rp8256
sg87
g12
(g13
(S'S1'
p8257
I0
I1
tp8258
Rp8259
(I3
S'|'
p8260
NNNI1
I1
I0
tp8261
bg57
tp8262
Rp8263
ssV942693
p8264
(dp8265
g10
I0
sg11
g12
(g13
(S'S25'
p8266
I0
I1
tp8267
Rp8268
(I3
S'|'
p8269
NNNI25
I1
I0
tp8270
bS'anglicky, rusky,slovensky'
p8271
tp8272
Rp8273
sg22
g12
(g13
(S'S1'
p8274
I0
I1
tp8275
Rp8276
(I3
S'|'
p8277
NNNI1
I1
I0
tp8278
bg57
tp8279
Rp8280
sg31
g12
(g13
(S'S30'
p8281
I0
I1
tp8282
Rp8283
(I3
S'|'
p8284
NNNI30
I1
I0
tp8285
bS'kosicky kraj, kralovsky chlmec'
p8286
tp8287
Rp8288
sg40
g12
(g13
(S'S55'
p8289
I0
I1
tp8290
Rp8291
(I3
S'|'
p8292
NNNI55
I1
I0
tp8293
bS'pozeranie filmov, tancovanie, priatelia, fotografovanie'
p8294
tp8295
Rp8296
sg49
I0
sg50
I1
sg51
g12
(g13
(S'S1'
p8297
I0
I1
tp8298
Rp8299
(I3
S'|'
p8300
NNNI1
I1
I0
tp8301
bg57
tp8302
Rp8303
sg60
g12
(g13
(S'S13'
p8304
I0
I1
tp8305
Rp8306
(I3
S'|'
p8307
NNNI13
I1
I0
tp8308
bS'stredoskolske'
p8309
tp8310
Rp8311
sg69
g12
(g13
(S'S19'
p8312
I0
I1
tp8313
Rp8314
(I3
S'|'
p8315
NNNI19
I1
I0
tp8316
bS'v kuchyni pri stole'
p8317
tp8318
Rp8319
sg78
g12
(g13
(S'S4'
p8320
I0
I1
tp8321
Rp8322
(I3
S'|'
p8323
NNNI4
I1
I0
tp8324
bS'null'
p8325
tp8326
Rp8327
sg87
g12
(g13
(S'S1'
p8328
I0
I1
tp8329
Rp8330
(I3
S'|'
p8331
NNNI1
I1
I0
tp8332
bg28
tp8333
Rp8334
ssV806177
p8335
(dp8336
g10
I0
sg11
g12
(g13
(S'S4'
p8337
I0
I1
tp8338
Rp8339
(I3
S'|'
p8340
NNNI4
I1
I0
tp8341
bS'null'
p8342
tp8343
Rp8344
sg22
g12
(g13
(S'S1'
p8345
I0
I1
tp8346
Rp8347
(I3
S'|'
p8348
NNNI1
I1
I0
tp8349
bg28
tp8350
Rp8351
sg31
g12
(g13
(S'S22'
p8352
I0
I1
tp8353
Rp8354
(I3
S'|'
p8355
NNNI22
I1
I0
tp8356
bS'zilinsky kraj, trstena'
p8357
tp8358
Rp8359
sg40
g12
(g13
(S'S4'
p8360
I0
I1
tp8361
Rp8362
(I3
S'|'
p8363
NNNI4
I1
I0
tp8364
bS'null'
p8365
tp8366
Rp8367
sg49
I0
sg50
I1
sg51
g12
(g13
(S'S2'
p8368
I0
I1
tp8369
Rp8370
(I3
S'|'
p8371
NNNI2
I1
I0
tp8372
bS'14'
p8373
tp8374
Rp8375
sg60
g12
(g13
(S'S4'
p8376
I0
I1
tp8377
Rp8378
(I3
S'|'
p8379
NNNI4
I1
I0
tp8380
bS'null'
p8381
tp8382
Rp8383
sg69
g12
(g13
(S'S4'
p8384
I0
I1
tp8385
Rp8386
(I3
S'|'
p8387
NNNI4
I1
I0
tp8388
bS'null'
p8389
tp8390
Rp8391
sg78
g12
(g13
(S'S4'
p8392
I0
I1
tp8393
Rp8394
(I3
S'|'
p8395
NNNI4
I1
I0
tp8396
bS'null'
p8397
tp8398
Rp8399
sg87
g12
(g13
(S'S1'
p8400
I0
I1
tp8401
Rp8402
(I3
S'|'
p8403
NNNI1
I1
I0
tp8404
bg28
tp8405
Rp8406
ssV153828
p8407
(dp8408
g10
I0
sg11
g12
(g13
(S'S44'
p8409
I0
I1
tp8410
Rp8411
(I3
S'|'
p8412
NNNI44
I1
I0
tp8413
bS'nemecky, goralcyna, polsky, cesky, slovensky'
p8414
tp8415
Rp8416
sg22
g12
(g13
(S'S1'
p8417
I0
I1
tp8418
Rp8419
(I3
S'|'
p8420
NNNI1
I1
I0
tp8421
bg28
tp8422
Rp8423
sg31
g12
(g13
(S'S22'
p8424
I0
I1
tp8425
Rp8426
(I3
S'|'
p8427
NNNI22
I1
I0
tp8428
bS'zilinsky kraj, trstena'
p8429
tp8430
Rp8431
sg40
g12
(g13
(S'S24'
p8432
I0
I1
tp8433
Rp8434
(I3
S'|'
p8435
NNNI24
I1
I0
tp8436
bS'sportovanie hokej fotbal'
p8437
tp8438
Rp8439
sg49
I0
sg50
I1
sg51
g12
(g13
(S'S2'
p8440
I0
I1
tp8441
Rp8442
(I3
S'|'
p8443
NNNI2
I1
I0
tp8444
bS'15'
p8445
tp8446
Rp8447
sg60
g12
(g13
(S'S6'
p8448
I0
I1
tp8449
Rp8450
(I3
S'|'
p8451
NNNI6
I1
I0
tp8452
bS'ziadne'
p8453
tp8454
Rp8455
sg69
g12
(g13
(S'S24'
p8456
I0
I1
tp8457
Rp8458
(I3
S'|'
p8459
NNNI24
I1
I0
tp8460
bS'v prirode, na chate neee'
p8461
tp8462
Rp8463
sg78
g12
(g13
(S'S4'
p8464
I0
I1
tp8465
Rp8466
(I3
S'|'
p8467
NNNI4
I1
I0
tp8468
bS'null'
p8469
tp8470
Rp8471
sg87
g12
(g13
(S'S1'
p8472
I0
I1
tp8473
Rp8474
(I3
S'|'
p8475
NNNI1
I1
I0
tp8476
bg28
tp8477
Rp8478
ssV80277
p8479
(dp8480
g10
I0
sg11
g12
(g13
(S'S15'
p8481
I0
I1
tp8482
Rp8483
(I3
S'|'
p8484
NNNI15
I1
I0
tp8485
bS'trochu anglicky'
p8486
tp8487
Rp8488
sg22
g12
(g13
(S'S1'
p8489
I0
I1
tp8490
Rp8491
(I3
S'|'
p8492
NNNI1
I1
I0
tp8493
bg28
tp8494
Rp8495
sg31
g12
(g13
(S'S20'
p8496
I0
I1
tp8497
Rp8498
(I3
S'|'
p8499
NNNI20
I1
I0
tp8500
bS'zilinsky kraj, bytca'
p8501
tp8502
Rp8503
sg40
g12
(g13
(S'S298'
p8504
I0
I1
tp8505
Rp8506
(I3
S'|'
p8507
NNNI298
I1
I0
tp8508
bS'sportovanie, cestovanie, turistika, surfovanie po webe, pocuvanie hudby, pozeranie filmov, diskoteky, kupalisko, jedlo, party, priatelia, stanovanie, sportovanie, cestovanie, turistika, surfovanie po webe, pocuvanie hudby, pozeranie filmov, diskoteky, kupalisko, jedlo, party, priatelia, stanovanie'
p8509
tp8510
Rp8511
sg49
I0
sg50
I1
sg51
g12
(g13
(S'S2'
p8512
I0
I1
tp8513
Rp8514
(I3
S'|'
p8515
NNNI2
I1
I0
tp8516
bS'31'
p8517
tp8518
Rp8519
sg60
g12
(g13
(S'S8'
p8520
I0
I1
tp8521
Rp8522
(I3
S'|'
p8523
NNNI8
I1
I0
tp8524
bS'ucnovske'
p8525
tp8526
Rp8527
sg69
g12
(g13
(S'S20'
p8528
I0
I1
tp8529
Rp8530
(I3
S'|'
p8531
NNNI20
I1
I0
tp8532
bS'v dobrej restauracii'
p8533
tp8534
Rp8535
sg78
g12
(g13
(S'S4'
p8536
I0
I1
tp8537
Rp8538
(I3
S'|'
p8539
NNNI4
I1
I0
tp8540
bS'null'
p8541
tp8542
Rp8543
sg87
g12
(g13
(S'S1'
p8544
I0
I1
tp8545
Rp8546
(I3
S'|'
p8547
NNNI1
I1
I0
tp8548
bg28
tp8549
Rp8550
ssV1006876
p8551
(dp8552
g10
I0
sg11
g12
(g13
(S'S8'
p8553
I0
I1
tp8554
Rp8555
(I3
S'|'
p8556
NNNI8
I1
I0
tp8557
bS'anglicky'
p8558
tp8559
Rp8560
sg22
g12
(g13
(S'S1'
p8561
I0
I1
tp8562
Rp8563
(I3
S'|'
p8564
NNNI1
I1
I0
tp8565
bg28
tp8566
Rp8567
sg31
g12
(g13
(S'S27'
p8568
I0
I1
tp8569
Rp8570
(I3
S'|'
p8571
NNNI27
I1
I0
tp8572
bS'banskobystricky kraj, detva'
p8573
tp8574
Rp8575
sg40
g12
(g13
(S'S4'
p8576
I0
I1
tp8577
Rp8578
(I3
S'|'
p8579
NNNI4
I1
I0
tp8580
bS'null'
p8581
tp8582
Rp8583
sg49
I0
sg50
I1
sg51
g12
(g13
(S'S2'
p8584
I0
I1
tp8585
Rp8586
(I3
S'|'
p8587
NNNI2
I1
I0
tp8588
bS'10'
p8589
tp8590
Rp8591
sg60
g12
(g13
(S'S4'
p8592
I0
I1
tp8593
Rp8594
(I3
S'|'
p8595
NNNI4
I1
I0
tp8596
bS'null'
p8597
tp8598
Rp8599
sg69
g12
(g13
(S'S4'
p8600
I0
I1
tp8601
Rp8602
(I3
S'|'
p8603
NNNI4
I1
I0
tp8604
bS'null'
p8605
tp8606
Rp8607
sg78
g12
(g13
(S'S4'
p8608
I0
I1
tp8609
Rp8610
(I3
S'|'
p8611
NNNI4
I1
I0
tp8612
bS'null'
p8613
tp8614
Rp8615
sg87
g12
(g13
(S'S1'
p8616
I0
I1
tp8617
Rp8618
(I3
S'|'
p8619
NNNI1
I1
I0
tp8620
bg28
tp8621
Rp8622
ssV1138590
p8623
(dp8624
g10
I0
sg11
g12
(g13
(S'S27'
p8625
I0
I1
tp8626
Rp8627
(I3
S'|'
p8628
NNNI27
I1
I0
tp8629
bS'anglicky,madarsky,slovensky'
p8630
tp8631
Rp8632
sg22
g12
(g13
(S'S1'
p8633
I0
I1
tp8634
Rp8635
(I3
S'|'
p8636
NNNI1
I1
I0
tp8637
bg57
tp8638
Rp8639
sg31
g12
(g13
(S'S21'
p8640
I0
I1
tp8641
Rp8642
(I3
S'|'
p8643
NNNI21
I1
I0
tp8644
bS'kosicky kraj, roznava'
p8645
tp8646
Rp8647
sg40
g12
(g13
(S'S4'
p8648
I0
I1
tp8649
Rp8650
(I3
S'|'
p8651
NNNI4
I1
I0
tp8652
bS'null'
p8653
tp8654
Rp8655
sg49
I0
sg50
I1
sg51
g12
(g13
(S'S1'
p8656
I0
I1
tp8657
Rp8658
(I3
S'|'
p8659
NNNI1
I1
I0
tp8660
bg57
tp8661
Rp8662
sg60
g12
(g13
(S'S8'
p8663
I0
I1
tp8664
Rp8665
(I3
S'|'
p8666
NNNI8
I1
I0
tp8667
bS'zakladne'
p8668
tp8669
Rp8670
sg69
g12
(g13
(S'S4'
p8671
I0
I1
tp8672
Rp8673
(I3
S'|'
p8674
NNNI4
I1
I0
tp8675
bS'null'
p8676
tp8677
Rp8678
sg78
g12
(g13
(S'S4'
p8679
I0
I1
tp8680
Rp8681
(I3
S'|'
p8682
NNNI4
I1
I0
tp8683
bS'null'
p8684
tp8685
Rp8686
sg87
g12
(g13
(S'S1'
p8687
I0
I1
tp8688
Rp8689
(I3
S'|'
p8690
NNNI1
I1
I0
tp8691
bg28
tp8692
Rp8693
ssV334283
p8694
(dp8695
g10
I0
sg11
g12
(g13
(S'S4'
p8696
I0
I1
tp8697
Rp8698
(I3
S'|'
p8699
NNNI4
I1
I0
tp8700
bS'null'
p8701
tp8702
Rp8703
sg22
g12
(g13
(S'S1'
p8704
I0
I1
tp8705
Rp8706
(I3
S'|'
p8707
NNNI1
I1
I0
tp8708
bg28
tp8709
Rp8710
sg31
g12
(g13
(S'S29'
p8711
I0
I1
tp8712
Rp8713
(I3
S'|'
p8714
NNNI29
I1
I0
tp8715
bS'banskobystricky kraj, tornala'
p8716
tp8717
Rp8718
sg40
g12
(g13
(S'S172'
p8719
I0
I1
tp8720
Rp8721
(I3
S'|'
p8722
NNNI172
I1
I0
tp8723
bS'sportovanie, cestovanie, praca s pc, pc hry, pocuvanie hudby, tancovanie, diskoteky, kupalisko, jedlo, kino, party, priatelia, sex, viac sa dozviete ak ma spoznate vy cuzdy'
p8724
tp8725
Rp8726
sg49
I0
sg50
I1
sg51
g12
(g13
(S'S1'
p8727
I0
I1
tp8728
Rp8729
(I3
S'|'
p8730
NNNI1
I1
I0
tp8731
bg57
tp8732
Rp8733
sg60
g12
(g13
(S'S4'
p8734
I0
I1
tp8735
Rp8736
(I3
S'|'
p8737
NNNI4
I1
I0
tp8738
bS'null'
p8739
tp8740
Rp8741
sg69
g12
(g13
(S'S22'
p8742
I0
I1
tp8743
Rp8744
(I3
S'|'
p8745
NNNI22
I1
I0
tp8746
bS'pri telke, a pri porne'
p8747
tp8748
Rp8749
sg78
g12
(g13
(S'S133'
p8750
I0
I1
tp8751
Rp8752
(I3
S'|'
p8753
NNNI133
I1
I0
tp8754
bS'<div> <a title="vstup do klubu" href="/klub/hotelova-akademia-to-sme-my">hotelova akademia-t&shy;o sme my!!!!!!!!&shy;!!!!</a> </div>'
p8755
tp8756
Rp8757
sg87
g12
(g13
(S'S1'
p8758
I0
I1
tp8759
Rp8760
(I3
S'|'
p8761
NNNI1
I1
I0
tp8762
bg28
tp8763
Rp8764
ssV386309
p8765
(dp8766
g10
I0
sg11
g12
(g13
(S'S26'
p8767
I0
I1
tp8768
Rp8769
(I3
S'|'
p8770
NNNI26
I1
I0
tp8771
bS'anglicky, trochu,priemerne'
p8772
tp8773
Rp8774
sg22
g12
(g13
(S'S1'
p8775
I0
I1
tp8776
Rp8777
(I3
S'|'
p8778
NNNI1
I1
I0
tp8779
bg28
tp8780
Rp8781
sg31
g12
(g13
(S'S22'
p8782
I0
I1
tp8783
Rp8784
(I3
S'|'
p8785
NNNI22
I1
I0
tp8786
bS'nitriansky kraj, nitra'
p8787
tp8788
Rp8789
sg40
g12
(g13
(S'S258'
p8790
I0
I1
tp8791
Rp8792
(I3
S'|'
p8793
NNNI258
I1
I0
tp8794
bS'sportovanie, fotografovanie, cestovanie, turistika, domace prace, prace v zahrade, prace okolo domu, praca s pc, pc hry, surfovanie po webe, citanie, pocuvanie hudby, pozeranie filmov, zberatelstvo, chovatelstvo, kupalisko, kino, priatelia, chodenie do muzei'
p8795
tp8796
Rp8797
sg49
I0
sg50
I1
sg51
g12
(g13
(S'S2'
p8798
I0
I1
tp8799
Rp8800
(I3
S'|'
p8801
NNNI2
I1
I0
tp8802
bS'16'
p8803
tp8804
Rp8805
sg60
g12
(g13
(S'S8'
p8806
I0
I1
tp8807
Rp8808
(I3
S'|'
p8809
NNNI8
I1
I0
tp8810
bS'zakladne'
p8811
tp8812
Rp8813
sg69
g12
(g13
(S'S53'
p8814
I0
I1
tp8815
Rp8816
(I3
S'|'
p8817
NNNI53
I1
I0
tp8818
bS'pri telke, v dobrej restauracii, v prirode, v posteli'
p8819
tp8820
Rp8821
sg78
g12
(g13
(S'S4'
p8822
I0
I1
tp8823
Rp8824
(I3
S'|'
p8825
NNNI4
I1
I0
tp8826
bS'null'
p8827
tp8828
Rp8829
sg87
g12
(g13
(S'S1'
p8830
I0
I1
tp8831
Rp8832
(I3
S'|'
p8833
NNNI1
I1
I0
tp8834
bg57
tp8835
Rp8836
ssV757988
p8837
(dp8838
g10
I0
sg11
g12
(g13
(S'S33'
p8839
I0
I1
tp8840
Rp8841
(I3
S'|'
p8842
NNNI33
I1
I0
tp8843
bS'nemecky, svoj,polsky cesky :d ...'
p8844
tp8845
Rp8846
sg22
g12
(g13
(S'S1'
p8847
I0
I1
tp8848
Rp8849
(I3
S'|'
p8850
NNNI1
I1
I0
tp8851
bg28
tp8852
Rp8853
sg31
g12
(g13
(S'S21'
p8854
I0
I1
tp8855
Rp8856
(I3
S'|'
p8857
NNNI21
I1
I0
tp8858
bS'zilinsky kraj, zilina'
p8859
tp8860
Rp8861
sg40
g12
(g13
(S'S102'
p8862
I0
I1
tp8863
Rp8864
(I3
S'|'
p8865
NNNI102
I1
I0
tp8866
bS'sportovanie, cestovanie, pc hry, pocuvanie hudby, diskoteky, kupalisko, kino, party, priatelia, spanie'
p8867
tp8868
Rp8869
sg49
I0
sg50
I0
sg51
g12
(g13
(S'S1'
p8870
I0
I1
tp8871
Rp8872
(I3
S'|'
p8873
NNNI1
I1
I0
tp8874
bg57
tp8875
Rp8876
sg60
g12
(g13
(S'S30'
p8877
I0
I1
tp8878
Rp8879
(I3
S'|'
p8880
NNNI30
I1
I0
tp8881
bS'zatial sa len ucim na zakladke'
p8882
tp8883
Rp8884
sg69
g12
(g13
(S'S31'
p8885
I0
I1
tp8886
Rp8887
(I3
S'|'
p8888
NNNI31
I1
I0
tp8889
bS'pri telke, v dobrej restauracii'
p8890
tp8891
Rp8892
sg78
g12
(g13
(S'S4'
p8893
I0
I1
tp8894
Rp8895
(I3
S'|'
p8896
NNNI4
I1
I0
tp8897
bS'null'
p8898
tp8899
Rp8900
sg87
g12
(g13
(S'S1'
p8901
I0
I1
tp8902
Rp8903
(I3
S'|'
p8904
NNNI1
I1
I0
tp8905
bg28
tp8906
Rp8907
ssV386301
p8908
(dp8909
g10
I0
sg11
g12
(g13
(S'S15'
p8910
I0
I1
tp8911
Rp8912
(I3
S'|'
p8913
NNNI15
I1
I0
tp8914
bS'anglicky, rusky'
p8915
tp8916
Rp8917
sg22
g12
(g13
(S'S1'
p8918
I0
I1
tp8919
Rp8920
(I3
S'|'
p8921
NNNI1
I1
I0
tp8922
bg28
tp8923
Rp8924
sg31
g12
(g13
(S'S31'
p8925
I0
I1
tp8926
Rp8927
(I3
S'|'
p8928
NNNI31
I1
I0
tp8929
bS'zahranicie, zahranicie - kanada'
p8930
tp8931
Rp8932
sg40
g12
(g13
(S'S142'
p8933
I0
I1
tp8934
Rp8935
(I3
S'|'
p8936
NNNI142
I1
I0
tp8937
bS'sportovanie, praca s pc, pc hry, surfovanie po webe, pocuvanie hudby, diskoteky, kupalisko, jedlo, kino, party, priatelia, spanie,  stanovanie'
p8938
tp8939
Rp8940
sg49
I0
sg50
I1
sg51
g12
(g13
(S'S2'
p8941
I0
I1
tp8942
Rp8943
(I3
S'|'
p8944
NNNI2
I1
I0
tp8945
bS'17'
p8946
tp8947
Rp8948
sg60
g12
(g13
(S'S8'
p8949
I0
I1
tp8950
Rp8951
(I3
S'|'
p8952
NNNI8
I1
I0
tp8953
bS'zakladne'
p8954
tp8955
Rp8956
sg69
g12
(g13
(S'S42'
p8957
I0
I1
tp8958
Rp8959
(I3
S'|'
p8960
NNNI42
I1
I0
tp8961
bS'pri telke, v dobrej restauracii, v posteli'
p8962
tp8963
Rp8964
sg78
g12
(g13
(S'S195'
p8965
I0
I1
tp8966
Rp8967
(I3
S'|'
p8968
NNNI195
I1
I0
tp8969
bS'<div> <a title="vstup do klubu" href="/klub/paarty-pwrd-by-kalwaaria">paarty pwrd by kalwaaria :)</a> &bull;  <a title="vstup do klubu" href="/klub/ssos-animus-1">ssos animus / levicka</a> </div>'
p8970
tp8971
Rp8972
sg87
g12
(g13
(S'S1'
p8973
I0
I1
tp8974
Rp8975
(I3
S'|'
p8976
NNNI1
I1
I0
tp8977
bg28
tp8978
Rp8979
ssV386306
p8980
(dp8981
g10
I0
sg11
g12
(g13
(S'S31'
p8982
I0
I1
tp8983
Rp8984
(I3
S'|'
p8985
NNNI31
I1
I0
tp8986
bS'anglicky, pravdaze ze svoj!!!!!'
p8987
tp8988
Rp8989
sg22
g12
(g13
(S'S1'
p8990
I0
I1
tp8991
Rp8992
(I3
S'|'
p8993
NNNI1
I1
I0
tp8994
bg28
tp8995
Rp8996
sg31
g12
(g13
(S'S23'
p8997
I0
I1
tp8998
Rp8999
(I3
S'|'
p9000
NNNI23
I1
I0
tp9001
bS'nitriansky kraj, vrable'
p9002
tp9003
Rp9004
sg40
g12
(g13
(S'S46'
p9005
I0
I1
tp9006
Rp9007
(I3
S'|'
p9008
NNNI46
I1
I0
tp9009
bS'http://obfz.sk/tabulky.php?sk=34&amp;st=rozpis'
p9010
tp9011
Rp9012
sg49
I0
sg50
I0
sg51
g12
(g13
(S'S2'
p9013
I0
I1
tp9014
Rp9015
(I3
S'|'
p9016
NNNI2
I1
I0
tp9017
bS'17'
p9018
tp9019
Rp9020
sg60
g12
(g13
(S'S34'
p9021
I0
I1
tp9022
Rp9023
(I3
S'|'
p9024
NNNI34
I1
I0
tp9025
bS'konecne do pice zo zakladky:)juchu'
p9026
tp9027
Rp9028
sg69
g12
(g13
(S'S36'
p9029
I0
I1
tp9030
Rp9031
(I3
S'|'
p9032
NNNI36
I1
I0
tp9033
bS'http://www.ultrapc.cz/magicka-koule/'
p9034
tp9035
Rp9036
sg78
g12
(g13
(S'S4'
p9037
I0
I1
tp9038
Rp9039
(I3
S'|'
p9040
NNNI4
I1
I0
tp9041
bS'null'
p9042
tp9043
Rp9044
sg87
g12
(g13
(S'S1'
p9045
I0
I1
tp9046
Rp9047
(I3
S'|'
p9048
NNNI1
I1
I0
tp9049
bg57
tp9050
Rp9051
ssV386307
p9052
(dp9053
g10
I0
sg11
g12
(g13
(S'S21'
p9054
I0
I1
tp9055
Rp9056
(I3
S'|'
p9057
NNNI21
I1
I0
tp9058
bS'nitransky:p a svoj :d'
p9059
tp9060
Rp9061
sg22
g12
(g13
(S'S1'
p9062
I0
I1
tp9063
Rp9064
(I3
S'|'
p9065
NNNI1
I1
I0
tp9066
bg28
tp9067
Rp9068
sg31
g12
(g13
(S'S22'
p9069
I0
I1
tp9070
Rp9071
(I3
S'|'
p9072
NNNI22
I1
I0
tp9073
bS'nitriansky kraj, nitra'
p9074
tp9075
Rp9076
sg40
g12
(g13
(S'S4'
p9077
I0
I1
tp9078
Rp9079
(I3
S'|'
p9080
NNNI4
I1
I0
tp9081
bS'null'
p9082
tp9083
Rp9084
sg49
I0
sg50
I1
sg51
g12
(g13
(S'S2'
p9085
I0
I1
tp9086
Rp9087
(I3
S'|'
p9088
NNNI2
I1
I0
tp9089
bS'16'
p9090
tp9091
Rp9092
sg60
g12
(g13
(S'S4'
p9093
I0
I1
tp9094
Rp9095
(I3
S'|'
p9096
NNNI4
I1
I0
tp9097
bS'null'
p9098
tp9099
Rp9100
sg69
g12
(g13
(S'S19'
p9101
I0
I1
tp9102
Rp9103
(I3
S'|'
p9104
NNNI19
I1
I0
tp9105
bS'pri telke,v posteli'
p9106
tp9107
Rp9108
sg78
g12
(g13
(S'S4'
p9109
I0
I1
tp9110
Rp9111
(I3
S'|'
p9112
NNNI4
I1
I0
tp9113
bS'null'
p9114
tp9115
Rp9116
sg87
g12
(g13
(S'S1'
p9117
I0
I1
tp9118
Rp9119
(I3
S'|'
p9120
NNNI1
I1
I0
tp9121
bg57
tp9122
Rp9123
ssV194434
p9124
(dp9125
g10
I0
sg11
g12
(g13
(S'S4'
p9126
I0
I1
tp9127
Rp9128
(I3
S'|'
p9129
NNNI4
I1
I0
tp9130
bS'null'
p9131
tp9132
Rp9133
sg22
g12
(g13
(S'S1'
p9134
I0
I1
tp9135
Rp9136
(I3
S'|'
p9137
NNNI1
I1
I0
tp9138
bg57
tp9139
Rp9140
sg31
g12
(g13
(S'S28'
p9141
I0
I1
tp9142
Rp9143
(I3
S'|'
p9144
NNNI28
I1
I0
tp9145
bS'zahranicie, zahranicie - usa'
p9146
tp9147
Rp9148
sg40
g12
(g13
(S'S4'
p9149
I0
I1
tp9150
Rp9151
(I3
S'|'
p9152
NNNI4
I1
I0
tp9153
bS'null'
p9154
tp9155
Rp9156
sg49
I0
sg50
I1
sg51
g12
(g13
(S'S1'
p9157
I0
I1
tp9158
Rp9159
(I3
S'|'
p9160
NNNI1
I1
I0
tp9161
bg57
tp9162
Rp9163
sg60
g12
(g13
(S'S4'
p9164
I0
I1
tp9165
Rp9166
(I3
S'|'
p9167
NNNI4
I1
I0
tp9168
bS'null'
p9169
tp9170
Rp9171
sg69
g12
(g13
(S'S4'
p9172
I0
I1
tp9173
Rp9174
(I3
S'|'
p9175
NNNI4
I1
I0
tp9176
bS'null'
p9177
tp9178
Rp9179
sg78
g12
(g13
(S'S4'
p9180
I0
I1
tp9181
Rp9182
(I3
S'|'
p9183
NNNI4
I1
I0
tp9184
bS'null'
p9185
tp9186
Rp9187
sg87
g12
(g13
(S'S1'
p9188
I0
I1
tp9189
Rp9190
(I3
S'|'
p9191
NNNI1
I1
I0
tp9192
bg57
tp9193
Rp9194
ssV237595
p9195
(dp9196
g10
I0
sg11
g12
(g13
(S'S24'
p9197
I0
I1
tp9198
Rp9199
(I3
S'|'
p9200
NNNI24
I1
I0
tp9201
bS'nemecky, rusky, madarsky'
p9202
tp9203
Rp9204
sg22
g12
(g13
(S'S1'
p9205
I0
I1
tp9206
Rp9207
(I3
S'|'
p9208
NNNI1
I1
I0
tp9209
bg57
tp9210
Rp9211
sg31
g12
(g13
(S'S27'
p9212
I0
I1
tp9213
Rp9214
(I3
S'|'
p9215
NNNI27
I1
I0
tp9216
bS'nitriansky kraj, zeliezovce'
p9217
tp9218
Rp9219
sg40
g12
(g13
(S'S40'
p9220
I0
I1
tp9221
Rp9222
(I3
S'|'
p9223
NNNI40
I1
I0
tp9224
bS'nakupovanie, party, priatelia, diskoteky'
p9225
tp9226
Rp9227
sg49
I0
sg50
I1
sg51
g12
(g13
(S'S2'
p9228
I0
I1
tp9229
Rp9230
(I3
S'|'
p9231
NNNI2
I1
I0
tp9232
bS'15'
p9233
tp9234
Rp9235
sg60
g12
(g13
(S'S4'
p9236
I0
I1
tp9237
Rp9238
(I3
S'|'
p9239
NNNI4
I1
I0
tp9240
bS'null'
p9241
tp9242
Rp9243
sg69
g12
(g13
(S'S4'
p9244
I0
I1
tp9245
Rp9246
(I3
S'|'
p9247
NNNI4
I1
I0
tp9248
bS'null'
p9249
tp9250
Rp9251
sg78
g12
(g13
(S'S1619'
p9252
I0
I1
tp9253
Rp9254
(I3
S'|'
p9255
NNNI1619
I1
I0
tp9256
bS'<div> <a title="vstup do klubu" href="/klub/jedinu-vec-co-na-matematike-ratam-je-cas-do-zvonenia">jedinu vec co na matematike ratam..je cas do zvonenia!=&shy;)</a> &bull;  <a title="vstup do klubu" href="/klub/viem-ze-nic-neviem-xd-a-ani-to-neviem-xd">viem ze nic neviem xd a ani to neviem xd</a> &bull;  <a title="vstup do klubu" href="/klub/preco-prazdniny-trvaju-len-2-mesiace-nech-trvaju-2-roky">preco prazdniny trvaju len 2 mesiace??!&shy;..nech trvaju 2 roky!!</a> &bull;  <a title="vstup do klubu" href="/klub/ked-ta-v-skole-vyvolaju-povedz-bez-pravnika-ani-slovo-d">ked ta v skole vyvolaju povedz &quot;bez pravnika ani slovo&quot; :d</a> &bull;  <a title="vstup do klubu" href="/klub/do-skoly-nepojdem-a-basta">do skoly nepojdem a basta ! ! !</a> &bull;  <a title="vstup do klubu" href="/klub/kdo-miluje-prestavky-v-skole-sup-sem">kdo miluje prestavky v skole sup sem..:)</a> &bull;  <a title="vstup do klubu" href="/klub/skola-ble-ble">skola ble ble</a> &bull;  <a title="vstup do klubu" href="/klub/extremna-premena-v-photoshope-to-musite-vidiet">extremna premena v photoshope&shy;. . . - . . . to musite vidiet</a> &bull;  <a title="vstup do klubu" href="/klub/biely-doooom-leviceeeeeeee">biely doooom..le&shy;viceeeeeee&shy;e</a> &bull;  <a title="vstup do klubu" href="/klub/2-9-najhorsi-den-v-zivote-ziaka">2.9. najhorsi den v zivote ziaka</a> &bull;  <a title="vstup do klubu" href="/klub/peace-peace-peace-peace-peace-peace-peace-peace-peace-peace">\xe2\x98\xaepeace\xe2\x98\xae-\xe2\x98\xaep&shy;eace\xe2\x98\xae-peac&shy;e\xe2\x98\xae-\xe2\x98\xaepeace\xe2\x98\xae&shy;-\xe2\x98\xaepeace\xe2\x98\xae-p&shy;eace\xe2\x98\xae-\xe2\x98\xaepea&shy;ce\xe2\x98\xae-\xe2\x98\xaepeace&shy;\xe2\x98\xae-peace\xe2\x98\xae-\xe2\x98\xae&shy;peace</a> </div>'
p9257
tp9258
Rp9259
sg87
g12
(g13
(S'S1'
p9260
I0
I1
tp9261
Rp9262
(I3
S'|'
p9263
NNNI1
I1
I0
tp9264
bg28
tp9265
Rp9266
ssV62087
p9267
(dp9268
g10
I0
sg11
g12
(g13
(S'S21'
p9269
I0
I1
tp9270
Rp9271
(I3
S'|'
p9272
NNNI21
I1
I0
tp9273
bS'anglicky,, francuzsky'
p9274
tp9275
Rp9276
sg22
g12
(g13
(S'S1'
p9277
I0
I1
tp9278
Rp9279
(I3
S'|'
p9280
NNNI1
I1
I0
tp9281
bg57
tp9282
Rp9283
sg31
g12
(g13
(S'S27'
p9284
I0
I1
tp9285
Rp9286
(I3
S'|'
p9287
NNNI27
I1
I0
tp9288
bS'ceska republika, cz - praha'
p9289
tp9290
Rp9291
sg40
g12
(g13
(S'S47'
p9292
I0
I1
tp9293
Rp9294
(I3
S'|'
p9295
NNNI47
I1
I0
tp9296
bS'cestovanie,, domace prace, fotografovanie,, sex'
p9297
tp9298
Rp9299
sg49
I0
sg50
I1
sg51
g12
(g13
(S'S2'
p9300
I0
I1
tp9301
Rp9302
(I3
S'|'
p9303
NNNI2
I1
I0
tp9304
bS'27'
p9305
tp9306
Rp9307
sg60
g12
(g13
(S'S13'
p9308
I0
I1
tp9309
Rp9310
(I3
S'|'
p9311
NNNI13
I1
I0
tp9312
bS'vysokoskolske'
p9313
tp9314
Rp9315
sg69
g12
(g13
(S'S19'
p9316
I0
I1
tp9317
Rp9318
(I3
S'|'
p9319
NNNI19
I1
I0
tp9320
bS'v kuchyni pri stole'
p9321
tp9322
Rp9323
sg78
g12
(g13
(S'S4'
p9324
I0
I1
tp9325
Rp9326
(I3
S'|'
p9327
NNNI4
I1
I0
tp9328
bS'null'
p9329
tp9330
Rp9331
sg87
g12
(g13
(S'S1'
p9332
I0
I1
tp9333
Rp9334
(I3
S'|'
p9335
NNNI1
I1
I0
tp9336
bg57
tp9337
Rp9338
ssV256575
p9339
(dp9340
g10
I0
sg11
g12
(g13
(S'S4'
p9341
I0
I1
tp9342
Rp9343
(I3
S'|'
p9344
NNNI4
I1
I0
tp9345
bS'null'
p9346
tp9347
Rp9348
sg22
g12
(g13
(S'S1'
p9349
I0
I1
tp9350
Rp9351
(I3
S'|'
p9352
NNNI1
I1
I0
tp9353
bg57
tp9354
Rp9355
sg31
g12
(g13
(S'S21'
p9356
I0
I1
tp9357
Rp9358
(I3
S'|'
p9359
NNNI21
I1
I0
tp9360
bS'kosicky kraj, roznava'
p9361
tp9362
Rp9363
sg40
g12
(g13
(S'S4'
p9364
I0
I1
tp9365
Rp9366
(I3
S'|'
p9367
NNNI4
I1
I0
tp9368
bS'null'
p9369
tp9370
Rp9371
sg49
I0
sg50
I1
sg51
g12
(g13
(S'S1'
p9372
I0
I1
tp9373
Rp9374
(I3
S'|'
p9375
NNNI1
I1
I0
tp9376
bg57
tp9377
Rp9378
sg60
g12
(g13
(S'S4'
p9379
I0
I1
tp9380
Rp9381
(I3
S'|'
p9382
NNNI4
I1
I0
tp9383
bS'null'
p9384
tp9385
Rp9386
sg69
g12
(g13
(S'S4'
p9387
I0
I1
tp9388
Rp9389
(I3
S'|'
p9390
NNNI4
I1
I0
tp9391
bS'null'
p9392
tp9393
Rp9394
sg78
g12
(g13
(S'S307'
p9395
I0
I1
tp9396
Rp9397
(I3
S'|'
p9398
NNNI307
I1
I0
tp9399
bS'<div> <a title="vstup do klubu" href="/klub/oarv">oarv</a> &bull;  <a title="vstup do klubu" href="/klub/na-pisomke-po-minute-to-co-je-more-d-d">na pisomke po minute ..to co je more:d:d</a> &bull;  <a title="vstup do klubu" href="/klub/co-si-zajtra-davas-do-skoly">co si zajtra davas do skoly ?:)</a> </div>'
p9400
tp9401
Rp9402
sg87
g12
(g13
(S'S1'
p9403
I0
I1
tp9404
Rp9405
(I3
S'|'
p9406
NNNI1
I1
I0
tp9407
bg28
tp9408
Rp9409
ssV475232
p9410
(dp9411
g10
I0
sg11
g12
(g13
(S'S10'
p9412
I0
I1
tp9413
Rp9414
(I3
S'|'
p9415
NNNI10
I1
I0
tp9416
bS'spanielsky'
p9417
tp9418
Rp9419
sg22
g12
(g13
(S'S1'
p9420
I0
I1
tp9421
Rp9422
(I3
S'|'
p9423
NNNI1
I1
I0
tp9424
bg28
tp9425
Rp9426
sg31
g12
(g13
(S'S27'
p9427
I0
I1
tp9428
Rp9429
(I3
S'|'
p9430
NNNI27
I1
I0
tp9431
bS'zahranicie, zahranicie - gb'
p9432
tp9433
Rp9434
sg40
g12
(g13
(S'S11'
p9435
I0
I1
tp9436
Rp9437
(I3
S'|'
p9438
NNNI11
I1
I0
tp9439
bS'sportovanie'
p9440
tp9441
Rp9442
sg49
I0
sg50
I1
sg51
g12
(g13
(S'S1'
p9443
I0
I1
tp9444
Rp9445
(I3
S'|'
p9446
NNNI1
I1
I0
tp9447
bg57
tp9448
Rp9449
sg60
g12
(g13
(S'S13'
p9450
I0
I1
tp9451
Rp9452
(I3
S'|'
p9453
NNNI13
I1
I0
tp9454
bS'stredoskolske'
p9455
tp9456
Rp9457
sg69
g12
(g13
(S'S25'
p9458
I0
I1
tp9459
Rp9460
(I3
S'|'
p9461
NNNI25
I1
I0
tp9462
bS'pri svieckach s partnerom'
p9463
tp9464
Rp9465
sg78
g12
(g13
(S'S4'
p9466
I0
I1
tp9467
Rp9468
(I3
S'|'
p9469
NNNI4
I1
I0
tp9470
bS'null'
p9471
tp9472
Rp9473
sg87
g12
(g13
(S'S1'
p9474
I0
I1
tp9475
Rp9476
(I3
S'|'
p9477
NNNI1
I1
I0
tp9478
bg28
tp9479
Rp9480
ssV25855
p9481
(dp9482
g10
I0
sg11
g12
(g13
(S'S17'
p9483
I0
I1
tp9484
Rp9485
(I3
S'|'
p9486
NNNI17
I1
I0
tp9487
bS'anglicky, nemecky'
p9488
tp9489
Rp9490
sg22
g12
(g13
(S'S1'
p9491
I0
I1
tp9492
Rp9493
(I3
S'|'
p9494
NNNI1
I1
I0
tp9495
bg28
tp9496
Rp9497
sg31
g12
(g13
(S'S28'
p9498
I0
I1
tp9499
Rp9500
(I3
S'|'
p9501
NNNI28
I1
I0
tp9502
bS'zahranicie, zahranicie - usa'
p9503
tp9504
Rp9505
sg40
g12
(g13
(S'S2'
p9506
I0
I1
tp9507
Rp9508
(I3
S'|'
p9509
NNNI2
I1
I0
tp9510
bS':)'
p9511
tp9512
Rp9513
sg49
I0
sg50
I1
sg51
g12
(g13
(S'S1'
p9514
I0
I1
tp9515
Rp9516
(I3
S'|'
p9517
NNNI1
I1
I0
tp9518
bg57
tp9519
Rp9520
sg60
g12
(g13
(S'S4'
p9521
I0
I1
tp9522
Rp9523
(I3
S'|'
p9524
NNNI4
I1
I0
tp9525
bS'null'
p9526
tp9527
Rp9528
sg69
g12
(g13
(S'S4'
p9529
I0
I1
tp9530
Rp9531
(I3
S'|'
p9532
NNNI4
I1
I0
tp9533
bS'null'
p9534
tp9535
Rp9536
sg78
g12
(g13
(S'S195'
p9537
I0
I1
tp9538
Rp9539
(I3
S'|'
p9540
NNNI195
I1
I0
tp9541
bS'<div> <a title="vstup do klubu" href="/klub/paarty-pwrd-by-kalwaaria">paarty pwrd by kalwaaria :)</a> &bull;  <a title="vstup do klubu" href="/klub/ssos-animus-1">ssos animus / levicka</a> </div>'
p9542
tp9543
Rp9544
sg87
g12
(g13
(S'S1'
p9545
I0
I1
tp9546
Rp9547
(I3
S'|'
p9548
NNNI1
I1
I0
tp9549
bg28
tp9550
Rp9551
ssV134092
p9552
(dp9553
g10
I0
sg11
g12
(g13
(S'S52'
p9554
I0
I1
tp9555
Rp9556
(I3
S'|'
p9557
NNNI52
I1
I0
tp9558
bS'anglicky, aleno neviem neviem viac neviem ako viem:d'
p9559
tp9560
Rp9561
sg22
g12
(g13
(S'S1'
p9562
I0
I1
tp9563
Rp9564
(I3
S'|'
p9565
NNNI1
I1
I0
tp9566
bg28
tp9567
Rp9568
sg31
g12
(g13
(S'S22'
p9569
I0
I1
tp9570
Rp9571
(I3
S'|'
p9572
NNNI22
I1
I0
tp9573
bS'zilinsky kraj, trstena'
p9574
tp9575
Rp9576
sg40
g12
(g13
(S'S249'
p9577
I0
I1
tp9578
Rp9579
(I3
S'|'
p9580
NNNI249
I1
I0
tp9581
bS'sportovanie, fotografovanie, turistika, domace prace, sitie, prace v zahrade, prace okolo domu, citanie, zberatelstvo, chovatelstvo, malovanie, tancovanie, diskoteky, kupalisko, varenie, divadlo, nakupovanie, chodenie do muzei, hackovanie, vysivanie'
p9582
tp9583
Rp9584
sg49
I0
sg50
I0
sg51
g12
(g13
(S'S2'
p9585
I0
I1
tp9586
Rp9587
(I3
S'|'
p9588
NNNI2
I1
I0
tp9589
bS'20'
p9590
tp9591
Rp9592
sg60
g12
(g13
(S'S8'
p9593
I0
I1
tp9594
Rp9595
(I3
S'|'
p9596
NNNI8
I1
I0
tp9597
bS'zakladne'
p9598
tp9599
Rp9600
sg69
g12
(g13
(S'S85'
p9601
I0
I1
tp9602
Rp9603
(I3
S'|'
p9604
NNNI85
I1
I0
tp9605
bS'v dobrej restauracii, na zachode ked ho davam zoseba von, ale to je nelutostny boj :)'
p9606
tp9607
Rp9608
sg78
g12
(g13
(S'S4'
p9609
I0
I1
tp9610
Rp9611
(I3
S'|'
p9612
NNNI4
I1
I0
tp9613
bS'null'
p9614
tp9615
Rp9616
sg87
g12
(g13
(S'S1'
p9617
I0
I1
tp9618
Rp9619
(I3
S'|'
p9620
NNNI1
I1
I0
tp9621
bg28
tp9622
Rp9623
ssV407455
p9624
(dp9625
g10
I0
sg11
g12
(g13
(S'S15'
p9626
I0
I1
tp9627
Rp9628
(I3
S'|'
p9629
NNNI15
I1
I0
tp9630
bS'anglicky, rusky'
p9631
tp9632
Rp9633
sg22
g12
(g13
(S'S1'
p9634
I0
I1
tp9635
Rp9636
(I3
S'|'
p9637
NNNI1
I1
I0
tp9638
bg28
tp9639
Rp9640
sg31
g12
(g13
(S'S23'
p9641
I0
I1
tp9642
Rp9643
(I3
S'|'
p9644
NNNI23
I1
I0
tp9645
bS'presovsky kraj, sabinov'
p9646
tp9647
Rp9648
sg40
g12
(g13
(S'S230'
p9649
I0
I1
tp9650
Rp9651
(I3
S'|'
p9652
NNNI230
I1
I0
tp9653
bS'sportovanie, fotografovanie, cestovanie, turistika, praca s pc, pc hry, surfovanie po webe, citanie, pocuvanie hudby, pozeranie filmov, chovatelstvo, malovanie, diskoteky, kupalisko, kino, party, priatelia, spanie, sex, stanovanie'
p9654
tp9655
Rp9656
sg49
I0
sg50
I1
sg51
g12
(g13
(S'S2'
p9657
I0
I1
tp9658
Rp9659
(I3
S'|'
p9660
NNNI2
I1
I0
tp9661
bS'21'
p9662
tp9663
Rp9664
sg60
g12
(g13
(S'S13'
p9665
I0
I1
tp9666
Rp9667
(I3
S'|'
p9668
NNNI13
I1
I0
tp9669
bS'stredoskolske'
p9670
tp9671
Rp9672
sg69
g12
(g13
(S'S20'
p9673
I0
I1
tp9674
Rp9675
(I3
S'|'
p9676
NNNI20
I1
I0
tp9677
bS'v dobrej restauracii'
p9678
tp9679
Rp9680
sg78
g12
(g13
(S'S4'
p9681
I0
I1
tp9682
Rp9683
(I3
S'|'
p9684
NNNI4
I1
I0
tp9685
bS'null'
p9686
tp9687
Rp9688
sg87
g12
(g13
(S'S1'
p9689
I0
I1
tp9690
Rp9691
(I3
S'|'
p9692
NNNI1
I1
I0
tp9693
bg28
tp9694
Rp9695
ssV330122
p9696
(dp9697
g10
I0
sg11
g12
(g13
(S'S27'
p9698
I0
I1
tp9699
Rp9700
(I3
S'|'
p9701
NNNI27
I1
I0
tp9702
bS'anglicky, nemecky, madarsky'
p9703
tp9704
Rp9705
sg22
g12
(g13
(S'S1'
p9706
I0
I1
tp9707
Rp9708
(I3
S'|'
p9709
NNNI1
I1
I0
tp9710
bg57
tp9711
Rp9712
sg31
g12
(g13
(S'S21'
p9713
I0
I1
tp9714
Rp9715
(I3
S'|'
p9716
NNNI21
I1
I0
tp9717
bS'kosicky kraj, roznava'
p9718
tp9719
Rp9720
sg40
g12
(g13
(S'S111'
p9721
I0
I1
tp9722
Rp9723
(I3
S'|'
p9724
NNNI111
I1
I0
tp9725
bS'cestovanie, pocuvanie hudby, tancovanie, diskoteky, kupalisko, kino, party, priatelia, spanie, nakupovanie, sex'
p9726
tp9727
Rp9728
sg49
I0
sg50
I0
sg51
g12
(g13
(S'S2'
p9729
I0
I1
tp9730
Rp9731
(I3
S'|'
p9732
NNNI2
I1
I0
tp9733
bS'24'
p9734
tp9735
Rp9736
sg60
g12
(g13
(S'S17'
p9737
I0
I1
tp9738
Rp9739
(I3
S'|'
p9740
NNNI17
I1
I0
tp9741
bS'pracuje sa na bc.'
p9742
tp9743
Rp9744
sg69
g12
(g13
(S'S58'
p9745
I0
I1
tp9746
Rp9747
(I3
S'|'
p9748
NNNI58
I1
I0
tp9749
bS'pri svieckach s partnerom, v posteli, z partnerovho bruska'
p9750
tp9751
Rp9752
sg78
g12
(g13
(S'S4'
p9753
I0
I1
tp9754
Rp9755
(I3
S'|'
p9756
NNNI4
I1
I0
tp9757
bS'null'
p9758
tp9759
Rp9760
sg87
g12
(g13
(S'S1'
p9761
I0
I1
tp9762
Rp9763
(I3
S'|'
p9764
NNNI1
I1
I0
tp9765
bg57
tp9766
Rp9767
ssV458519
p9768
(dp9769
g10
I0
sg11
g12
(g13
(S'S4'
p9770
I0
I1
tp9771
Rp9772
(I3
S'|'
p9773
NNNI4
I1
I0
tp9774
bS'null'
p9775
tp9776
Rp9777
sg22
g12
(g13
(S'S1'
p9778
I0
I1
tp9779
Rp9780
(I3
S'|'
p9781
NNNI1
I1
I0
tp9782
bg28
tp9783
Rp9784
sg31
g12
(g13
(S'S22'
p9785
I0
I1
tp9786
Rp9787
(I3
S'|'
p9788
NNNI22
I1
I0
tp9789
bS'zilinsky kraj, trstena'
p9790
tp9791
Rp9792
sg40
g12
(g13
(S'S4'
p9793
I0
I1
tp9794
Rp9795
(I3
S'|'
p9796
NNNI4
I1
I0
tp9797
bS'null'
p9798
tp9799
Rp9800
sg49
I0
sg50
I1
sg51
g12
(g13
(S'S2'
p9801
I0
I1
tp9802
Rp9803
(I3
S'|'
p9804
NNNI2
I1
I0
tp9805
bS'14'
p9806
tp9807
Rp9808
sg60
g12
(g13
(S'S4'
p9809
I0
I1
tp9810
Rp9811
(I3
S'|'
p9812
NNNI4
I1
I0
tp9813
bS'null'
p9814
tp9815
Rp9816
sg69
g12
(g13
(S'S4'
p9817
I0
I1
tp9818
Rp9819
(I3
S'|'
p9820
NNNI4
I1
I0
tp9821
bS'null'
p9822
tp9823
Rp9824
sg78
g12
(g13
(S'S4'
p9825
I0
I1
tp9826
Rp9827
(I3
S'|'
p9828
NNNI4
I1
I0
tp9829
bS'null'
p9830
tp9831
Rp9832
sg87
g12
(g13
(S'S1'
p9833
I0
I1
tp9834
Rp9835
(I3
S'|'
p9836
NNNI1
I1
I0
tp9837
bg57
tp9838
Rp9839
ssV602704
p9840
(dp9841
g10
I0
sg11
g12
(g13
(S'S49'
p9842
I0
I1
tp9843
Rp9844
(I3
S'|'
p9845
NNNI49
I1
I0
tp9846
bS'taliansky, nemecky, rusky, spanielsky, francuzsky'
p9847
tp9848
Rp9849
sg22
g12
(g13
(S'S1'
p9850
I0
I1
tp9851
Rp9852
(I3
S'|'
p9853
NNNI1
I1
I0
tp9854
bg28
tp9855
Rp9856
sg31
g12
(g13
(S'S32'
p9857
I0
I1
tp9858
Rp9859
(I3
S'|'
p9860
NNNI32
I1
I0
tp9861
bS'zahranicie, zahranicie - nemecko'
p9862
tp9863
Rp9864
sg40
g12
(g13
(S'S88'
p9865
I0
I1
tp9866
Rp9867
(I3
S'|'
p9868
NNNI88
I1
I0
tp9869
bS'sportovanie, jedlo, party, sex, priatelia, varenie, diskoteky, turistika, fotografovanie'
p9870
tp9871
Rp9872
sg49
I0
sg50
I1
sg51
g12
(g13
(S'S2'
p9873
I0
I1
tp9874
Rp9875
(I3
S'|'
p9876
NNNI2
I1
I0
tp9877
bS'24'
p9878
tp9879
Rp9880
sg60
g12
(g13
(S'S8'
p9881
I0
I1
tp9882
Rp9883
(I3
S'|'
p9884
NNNI8
I1
I0
tp9885
bS'zakladne'
p9886
tp9887
Rp9888
sg69
g12
(g13
(S'S101'
p9889
I0
I1
tp9890
Rp9891
(I3
S'|'
p9892
NNNI101
I1
I0
tp9893
bS'pri svieckach s partnerom, v prirode, pri telke, v dobrej restauracii, v posteli, v kuchyni pri stole'
p9894
tp9895
Rp9896
sg78
g12
(g13
(S'S4'
p9897
I0
I1
tp9898
Rp9899
(I3
S'|'
p9900
NNNI4
I1
I0
tp9901
bS'null'
p9902
tp9903
Rp9904
sg87
g12
(g13
(S'S1'
p9905
I0
I1
tp9906
Rp9907
(I3
S'|'
p9908
NNNI1
I1
I0
tp9909
bg28
tp9910
Rp9911
ssV861038
p9912
(dp9913
g10
I0
sg11
g12
(g13
(S'S27'
p9914
I0
I1
tp9915
Rp9916
(I3
S'|'
p9917
NNNI27
I1
I0
tp9918
bS'madarsky a slovensky trosku'
p9919
tp9920
Rp9921
sg22
g12
(g13
(S'S1'
p9922
I0
I1
tp9923
Rp9924
(I3
S'|'
p9925
NNNI1
I1
I0
tp9926
bg57
tp9927
Rp9928
sg31
g12
(g13
(S'S29'
p9929
I0
I1
tp9930
Rp9931
(I3
S'|'
p9932
NNNI29
I1
I0
tp9933
bS'kosicky kraj, kosice - okolie'
p9934
tp9935
Rp9936
sg40
g12
(g13
(S'S42'
p9937
I0
I1
tp9938
Rp9939
(I3
S'|'
p9940
NNNI42
I1
I0
tp9941
bS'pocuvanie hudby, domace prace, nakupovanie'
p9942
tp9943
Rp9944
sg49
I0
sg50
I0
sg51
g12
(g13
(S'S1'
p9945
I0
I1
tp9946
Rp9947
(I3
S'|'
p9948
NNNI1
I1
I0
tp9949
bg57
tp9950
Rp9951
sg60
g12
(g13
(S'S13'
p9952
I0
I1
tp9953
Rp9954
(I3
S'|'
p9955
NNNI13
I1
I0
tp9956
bS'stredoskolske'
p9957
tp9958
Rp9959
sg69
g12
(g13
(S'S9'
p9960
I0
I1
tp9961
Rp9962
(I3
S'|'
p9963
NNNI9
I1
I0
tp9964
bS'pri telke'
p9965
tp9966
Rp9967
sg78
g12
(g13
(S'S4'
p9968
I0
I1
tp9969
Rp9970
(I3
S'|'
p9971
NNNI4
I1
I0
tp9972
bS'null'
p9973
tp9974
Rp9975
sg87
g12
(g13
(S'S1'
p9976
I0
I1
tp9977
Rp9978
(I3
S'|'
p9979
NNNI1
I1
I0
tp9980
bg28
tp9981
Rp9982
ssV218609
p9983
(dp9984
g10
I0
sg11
g12
(g13
(S'S4'
p9985
I0
I1
tp9986
Rp9987
(I3
S'|'
p9988
NNNI4
I1
I0
tp9989
bS'null'
p9990
tp9991
Rp9992
sg22
g12
(g13
(S'S1'
p9993
I0
I1
tp9994
Rp9995
(I3
S'|'
p9996
NNNI1
I1
I0
tp9997
bg57
tp9998
Rp9999
sg31
g12
(g13
(S'S22'
p10000
I0
I1
tp10001
Rp10002
(I3
S'|'
p10003
NNNI22
I1
I0
tp10004
bS'presovsky kraj, levoca'
p10005
tp10006
Rp10007
sg40
g12
(g13
(S'S4'
p10008
I0
I1
tp10009
Rp10010
(I3
S'|'
p10011
NNNI4
I1
I0
tp10012
bS'null'
p10013
tp10014
Rp10015
sg49
I0
sg50
I0
sg51
g12
(g13
(S'S1'
p10016
I0
I1
tp10017
Rp10018
(I3
S'|'
p10019
NNNI1
I1
I0
tp10020
bg57
tp10021
Rp10022
sg60
g12
(g13
(S'S4'
p10023
I0
I1
tp10024
Rp10025
(I3
S'|'
p10026
NNNI4
I1
I0
tp10027
bS'null'
p10028
tp10029
Rp10030
sg69
g12
(g13
(S'S4'
p10031
I0
I1
tp10032
Rp10033
(I3
S'|'
p10034
NNNI4
I1
I0
tp10035
bS'null'
p10036
tp10037
Rp10038
sg78
g12
(g13
(S'S4'
p10039
I0
I1
tp10040
Rp10041
(I3
S'|'
p10042
NNNI4
I1
I0
tp10043
bS'null'
p10044
tp10045
Rp10046
sg87
g12
(g13
(S'S1'
p10047
I0
I1
tp10048
Rp10049
(I3
S'|'
p10050
NNNI1
I1
I0
tp10051
bg28
tp10052
Rp10053
ssV290211
p10054
(dp10055
g10
I0
sg11
g12
(g13
(S'S4'
p10056
I0
I1
tp10057
Rp10058
(I3
S'|'
p10059
NNNI4
I1
I0
tp10060
bS'null'
p10061
tp10062
Rp10063
sg22
g12
(g13
(S'S1'
p10064
I0
I1
tp10065
Rp10066
(I3
S'|'
p10067
NNNI1
I1
I0
tp10068
bg57
tp10069
Rp10070
sg31
g12
(g13
(S'S42'
p10071
I0
I1
tp10072
Rp10073
(I3
S'|'
p10074
NNNI42
I1
I0
tp10075
bS'bratislavsky kraj, bratislava - nove mesto'
p10076
tp10077
Rp10078
sg40
g12
(g13
(S'S4'
p10079
I0
I1
tp10080
Rp10081
(I3
S'|'
p10082
NNNI4
I1
I0
tp10083
bS'null'
p10084
tp10085
Rp10086
sg49
I0
sg50
I0
sg51
g12
(g13
(S'S1'
p10087
I0
I1
tp10088
Rp10089
(I3
S'|'
p10090
NNNI1
I1
I0
tp10091
bg57
tp10092
Rp10093
sg60
g12
(g13
(S'S4'
p10094
I0
I1
tp10095
Rp10096
(I3
S'|'
p10097
NNNI4
I1
I0
tp10098
bS'null'
p10099
tp10100
Rp10101
sg69
g12
(g13
(S'S4'
p10102
I0
I1
tp10103
Rp10104
(I3
S'|'
p10105
NNNI4
I1
I0
tp10106
bS'null'
p10107
tp10108
Rp10109
sg78
g12
(g13
(S'S4'
p10110
I0
I1
tp10111
Rp10112
(I3
S'|'
p10113
NNNI4
I1
I0
tp10114
bS'null'
p10115
tp10116
Rp10117
sg87
g12
(g13
(S'S1'
p10118
I0
I1
tp10119
Rp10120
(I3
S'|'
p10121
NNNI1
I1
I0
tp10122
bg57
tp10123
Rp10124
ssV303234
p10125
(dp10126
g10
I0
sg11
g12
(g13
(S'S4'
p10127
I0
I1
tp10128
Rp10129
(I3
S'|'
p10130
NNNI4
I1
I0
tp10131
bS'null'
p10132
tp10133
Rp10134
sg22
g12
(g13
(S'S1'
p10135
I0
I1
tp10136
Rp10137
(I3
S'|'
p10138
NNNI1
I1
I0
tp10139
bg28
tp10140
Rp10141
sg31
g12
(g13
(S'S29'
p10142
I0
I1
tp10143
Rp10144
(I3
S'|'
p10145
NNNI29
I1
I0
tp10146
bS'kosicky kraj, kosice - okolie'
p10147
tp10148
Rp10149
sg40
g12
(g13
(S'S4'
p10150
I0
I1
tp10151
Rp10152
(I3
S'|'
p10153
NNNI4
I1
I0
tp10154
bS'null'
p10155
tp10156
Rp10157
sg49
I0
sg50
I1
sg51
g12
(g13
(S'S2'
p10158
I0
I1
tp10159
Rp10160
(I3
S'|'
p10161
NNNI2
I1
I0
tp10162
bS'23'
p10163
tp10164
Rp10165
sg60
g12
(g13
(S'S4'
p10166
I0
I1
tp10167
Rp10168
(I3
S'|'
p10169
NNNI4
I1
I0
tp10170
bS'null'
p10171
tp10172
Rp10173
sg69
g12
(g13
(S'S4'
p10174
I0
I1
tp10175
Rp10176
(I3
S'|'
p10177
NNNI4
I1
I0
tp10178
bS'null'
p10179
tp10180
Rp10181
sg78
g12
(g13
(S'S4'
p10182
I0
I1
tp10183
Rp10184
(I3
S'|'
p10185
NNNI4
I1
I0
tp10186
bS'null'
p10187
tp10188
Rp10189
sg87
g12
(g13
(S'S1'
p10190
I0
I1
tp10191
Rp10192
(I3
S'|'
p10193
NNNI1
I1
I0
tp10194
bg28
tp10195
Rp10196
ssV344727
p10197
(dp10198
g10
I0
sg11
g12
(g13
(S'S20'
p10199
I0
I1
tp10200
Rp10201
(I3
S'|'
p10202
NNNI20
I1
I0
tp10203
bS'anglicky, francuzsky'
p10204
tp10205
Rp10206
sg22
g12
(g13
(S'S1'
p10207
I0
I1
tp10208
Rp10209
(I3
S'|'
p10210
NNNI1
I1
I0
tp10211
bg57
tp10212
Rp10213
sg31
g12
(g13
(S'S22'
p10214
I0
I1
tp10215
Rp10216
(I3
S'|'
p10217
NNNI22
I1
I0
tp10218
bS'presovsky kraj, presov'
p10219
tp10220
Rp10221
sg40
g12
(g13
(S'S50'
p10222
I0
I1
tp10223
Rp10224
(I3
S'|'
p10225
NNNI50
I1
I0
tp10226
bS'fotografovanie, prace v zahrade, tancovanie, party'
p10227
tp10228
Rp10229
sg49
I0
sg50
I0
sg51
g12
(g13
(S'S1'
p10230
I0
I1
tp10231
Rp10232
(I3
S'|'
p10233
NNNI1
I1
I0
tp10234
bg57
tp10235
Rp10236
sg60
g12
(g13
(S'S8'
p10237
I0
I1
tp10238
Rp10239
(I3
S'|'
p10240
NNNI8
I1
I0
tp10241
bS'zakladne'
p10242
tp10243
Rp10244
sg69
g12
(g13
(S'S31'
p10245
I0
I1
tp10246
Rp10247
(I3
S'|'
p10248
NNNI31
I1
I0
tp10249
bS'pri telke, v prirode, v posteli'
p10250
tp10251
Rp10252
sg78
g12
(g13
(S'S4'
p10253
I0
I1
tp10254
Rp10255
(I3
S'|'
p10256
NNNI4
I1
I0
tp10257
bS'null'
p10258
tp10259
Rp10260
sg87
g12
(g13
(S'S1'
p10261
I0
I1
tp10262
Rp10263
(I3
S'|'
p10264
NNNI1
I1
I0
tp10265
bg28
tp10266
Rp10267
ssV147294
p10268
(dp10269
g10
I0
sg11
g12
(g13
(S'S4'
p10270
I0
I1
tp10271
Rp10272
(I3
S'|'
p10273
NNNI4
I1
I0
tp10274
bS'null'
p10275
tp10276
Rp10277
sg22
g12
(g13
(S'S1'
p10278
I0
I1
tp10279
Rp10280
(I3
S'|'
p10281
NNNI1
I1
I0
tp10282
bg57
tp10283
Rp10284
sg31
g12
(g13
(S'S35'
p10285
I0
I1
tp10286
Rp10287
(I3
S'|'
p10288
NNNI35
I1
I0
tp10289
bS'zahranicie, zahranicie - francuzsko'
p10290
tp10291
Rp10292
sg40
g12
(g13
(S'S5'
p10293
I0
I1
tp10294
Rp10295
(I3
S'|'
p10296
NNNI5
I1
I0
tp10297
bS'e :-*'
p10298
tp10299
Rp10300
sg49
I0
sg50
I1
sg51
g12
(g13
(S'S1'
p10301
I0
I1
tp10302
Rp10303
(I3
S'|'
p10304
NNNI1
I1
I0
tp10305
bg57
tp10306
Rp10307
sg60
g12
(g13
(S'S4'
p10308
I0
I1
tp10309
Rp10310
(I3
S'|'
p10311
NNNI4
I1
I0
tp10312
bS'null'
p10313
tp10314
Rp10315
sg69
g12
(g13
(S'S4'
p10316
I0
I1
tp10317
Rp10318
(I3
S'|'
p10319
NNNI4
I1
I0
tp10320
bS'null'
p10321
tp10322
Rp10323
sg78
g12
(g13
(S'S708'
p10324
I0
I1
tp10325
Rp10326
(I3
S'|'
p10327
NNNI708
I1
I0
tp10328
bS'<div> <a title="vstup do klubu" href="/klub/milujem-ten-pocit-ked-mozem-ucke-zrat-nervy-d">milujem ten pocit, ked mozem ucke zrat nervy :d</a> &bull;  <a title="vstup do klubu" href="/klub/zakladka-4ewer">zakladka 4ewer</a> &bull;  <a title="vstup do klubu" href="/klub/skola-sa-hasi-benzinom-a-nie-vodou-to-si-zapamataj-d">skola sa hasi benzinom a nie vodou to si zapamataj.&shy;.. =d</a> &bull;  <a title="vstup do klubu" href="/klub/ja-skolu-nemilujem-ja-skolu-nemam-rad">ja skolu nemilujem,ja skolu nemam rad...</a> &bull;  <a title="vstup do klubu" href="/klub/monitor_2011">monitor_20&shy;11</a> &bull;  <a title="vstup do klubu" href="/klub/zase-ta-sprosta-skola-x">zase ta sprosta skola x(</a> </div>'
p10329
tp10330
Rp10331
sg87
g12
(g13
(S'S1'
p10332
I0
I1
tp10333
Rp10334
(I3
S'|'
p10335
NNNI1
I1
I0
tp10336
bg28
tp10337
Rp10338
ssV333105
p10339
(dp10340
g10
I0
sg11
g12
(g13
(S'S4'
p10341
I0
I1
tp10342
Rp10343
(I3
S'|'
p10344
NNNI4
I1
I0
tp10345
bS'null'
p10346
tp10347
Rp10348
sg22
g12
(g13
(S'S1'
p10349
I0
I1
tp10350
Rp10351
(I3
S'|'
p10352
NNNI1
I1
I0
tp10353
bg57
tp10354
Rp10355
sg31
g12
(g13
(S'S29'
p10356
I0
I1
tp10357
Rp10358
(I3
S'|'
p10359
NNNI29
I1
I0
tp10360
bS'banskobystricky kraj, tornala'
p10361
tp10362
Rp10363
sg40
g12
(g13
(S'S28'
p10364
I0
I1
tp10365
Rp10366
(I3
S'|'
p10367
NNNI28
I1
I0
tp10368
bS'tancovanie, party, priatelia'
p10369
tp10370
Rp10371
sg49
I0
sg50
I1
sg51
g12
(g13
(S'S2'
p10372
I0
I1
tp10373
Rp10374
(I3
S'|'
p10375
NNNI2
I1
I0
tp10376
bS'18'
p10377
tp10378
Rp10379
sg60
g12
(g13
(S'S4'
p10380
I0
I1
tp10381
Rp10382
(I3
S'|'
p10383
NNNI4
I1
I0
tp10384
bS'null'
p10385
tp10386
Rp10387
sg69
g12
(g13
(S'S11'
p10388
I0
I1
tp10389
Rp10390
(I3
S'|'
p10391
NNNI11
I1
I0
tp10392
bS's partnerom'
p10393
tp10394
Rp10395
sg78
g12
(g13
(S'S4'
p10396
I0
I1
tp10397
Rp10398
(I3
S'|'
p10399
NNNI4
I1
I0
tp10400
bS'null'
p10401
tp10402
Rp10403
sg87
g12
(g13
(S'S1'
p10404
I0
I1
tp10405
Rp10406
(I3
S'|'
p10407
NNNI1
I1
I0
tp10408
bg28
tp10409
Rp10410
ssV84000
p10411
(dp10412
g10
I0
sg11
g12
(g13
(S'S17'
p10413
I0
I1
tp10414
Rp10415
(I3
S'|'
p10416
NNNI17
I1
I0
tp10417
bS'anglicky, nemecky'
p10418
tp10419
Rp10420
sg22
g12
(g13
(S'S1'
p10421
I0
I1
tp10422
Rp10423
(I3
S'|'
p10424
NNNI1
I1
I0
tp10425
bg28
tp10426
Rp10427
sg31
g12
(g13
(S'S21'
p10428
I0
I1
tp10429
Rp10430
(I3
S'|'
p10431
NNNI21
I1
I0
tp10432
bS'kosicky kraj, dobsina'
p10433
tp10434
Rp10435
sg40
g12
(g13
(S'S69'
p10436
I0
I1
tp10437
Rp10438
(I3
S'|'
p10439
NNNI69
I1
I0
tp10440
bS'sportovanie, turistika, prace okolo domu, pozeranie filmov, kupalisko'
p10441
tp10442
Rp10443
sg49
I0
sg50
I1
sg51
g12
(g13
(S'S2'
p10444
I0
I1
tp10445
Rp10446
(I3
S'|'
p10447
NNNI2
I1
I0
tp10448
bS'19'
p10449
tp10450
Rp10451
sg60
g12
(g13
(S'S8'
p10452
I0
I1
tp10453
Rp10454
(I3
S'|'
p10455
NNNI8
I1
I0
tp10456
bS'zakladne'
p10457
tp10458
Rp10459
sg69
g12
(g13
(S'S9'
p10460
I0
I1
tp10461
Rp10462
(I3
S'|'
p10463
NNNI9
I1
I0
tp10464
bS'pri telke'
p10465
tp10466
Rp10467
sg78
g12
(g13
(S'S170'
p10468
I0
I1
tp10469
Rp10470
(I3
S'|'
p10471
NNNI170
I1
I0
tp10472
bS'<div> <a title="vstup do klubu" href="/klub/jedinu-vec-co-na-matematike-ratam-je-cas-do-zvonenia">jedinu vec co na matematike ratam..je cas do zvonenia!=&shy;)</a> </div>'
p10473
tp10474
Rp10475
sg87
g12
(g13
(S'S1'
p10476
I0
I1
tp10477
Rp10478
(I3
S'|'
p10479
NNNI1
I1
I0
tp10480
bg28
tp10481
Rp10482
ssV252436
p10483
(dp10484
g10
I0
sg11
g12
(g13
(S'S25'
p10485
I0
I1
tp10486
Rp10487
(I3
S'|'
p10488
NNNI25
I1
I0
tp10489
bS'anglictina ale minus bodu'
p10490
tp10491
Rp10492
sg22
g12
(g13
(S'S1'
p10493
I0
I1
tp10494
Rp10495
(I3
S'|'
p10496
NNNI1
I1
I0
tp10497
bg28
tp10498
Rp10499
sg31
g12
(g13
(S'S21'
p10500
I0
I1
tp10501
Rp10502
(I3
S'|'
p10503
NNNI21
I1
I0
tp10504
bS'trnavsky kraj, senica'
p10505
tp10506
Rp10507
sg40
g12
(g13
(S'S66'
p10508
I0
I1
tp10509
Rp10510
(I3
S'|'
p10511
NNNI66
I1
I0
tp10512
bS'sportovanie, surfovanie po webe, pozeranie filmov, kino, priatelia'
p10513
tp10514
Rp10515
sg49
I0
sg50
I0
sg51
g12
(g13
(S'S2'
p10516
I0
I1
tp10517
Rp10518
(I3
S'|'
p10519
NNNI2
I1
I0
tp10520
bS'18'
p10521
tp10522
Rp10523
sg60
g12
(g13
(S'S8'
p10524
I0
I1
tp10525
Rp10526
(I3
S'|'
p10527
NNNI8
I1
I0
tp10528
bS'zakladne'
p10529
tp10530
Rp10531
sg69
g12
(g13
(S'S4'
p10532
I0
I1
tp10533
Rp10534
(I3
S'|'
p10535
NNNI4
I1
I0
tp10536
bS'null'
p10537
tp10538
Rp10539
sg78
g12
(g13
(S'S4'
p10540
I0
I1
tp10541
Rp10542
(I3
S'|'
p10543
NNNI4
I1
I0
tp10544
bS'null'
p10545
tp10546
Rp10547
sg87
g12
(g13
(S'S1'
p10548
I0
I1
tp10549
Rp10550
(I3
S'|'
p10551
NNNI1
I1
I0
tp10552
bg28
tp10553
Rp10554
ssV637340
p10555
(dp10556
g10
I0
sg11
g12
(g13
(S'S45'
p10557
I0
I1
tp10558
Rp10559
(I3
S'|'
p10560
NNNI45
I1
I0
tp10561
bS'nemecky, japonsky, i tak tlosku po nasom hihi'
p10562
tp10563
Rp10564
sg22
g12
(g13
(S'S1'
p10565
I0
I1
tp10566
Rp10567
(I3
S'|'
p10568
NNNI1
I1
I0
tp10569
bg28
tp10570
Rp10571
sg31
g12
(g13
(S'S32'
p10572
I0
I1
tp10573
Rp10574
(I3
S'|'
p10575
NNNI32
I1
I0
tp10576
bS'zahranicie, zahranicie - ostatne'
p10577
tp10578
Rp10579
sg40
g12
(g13
(S'S62'
p10580
I0
I1
tp10581
Rp10582
(I3
S'|'
p10583
NNNI62
I1
I0
tp10584
bS'sportovanie, praca s pc, sex, no a ete nic hihih kolculovaniee'
p10585
tp10586
Rp10587
sg49
I0
sg50
I1
sg51
g12
(g13
(S'S2'
p10588
I0
I1
tp10589
Rp10590
(I3
S'|'
p10591
NNNI2
I1
I0
tp10592
bS'17'
p10593
tp10594
Rp10595
sg60
g12
(g13
(S'S18'
p10596
I0
I1
tp10597
Rp10598
(I3
S'|'
p10599
NNNI18
I1
I0
tp10600
bS'no skolakk hihiihi'
p10601
tp10602
Rp10603
sg69
g12
(g13
(S'S30'
p10604
I0
I1
tp10605
Rp10606
(I3
S'|'
p10607
NNNI30
I1
I0
tp10608
bS'pri telke, no a este aj pri pc'
p10609
tp10610
Rp10611
sg78
g12
(g13
(S'S4'
p10612
I0
I1
tp10613
Rp10614
(I3
S'|'
p10615
NNNI4
I1
I0
tp10616
bS'null'
p10617
tp10618
Rp10619
sg87
g12
(g13
(S'S1'
p10620
I0
I1
tp10621
Rp10622
(I3
S'|'
p10623
NNNI1
I1
I0
tp10624
bg57
tp10625
Rp10626
ssV384695
p10627
(dp10628
g10
I0
sg11
g12
(g13
(S'S36'
p10629
I0
I1
tp10630
Rp10631
(I3
S'|'
p10632
NNNI36
I1
I0
tp10633
bS'nemecky, anglicky,slovensky,madarsky'
p10634
tp10635
Rp10636
sg22
g12
(g13
(S'S1'
p10637
I0
I1
tp10638
Rp10639
(I3
S'|'
p10640
NNNI1
I1
I0
tp10641
bg28
tp10642
Rp10643
sg31
g12
(g13
(S'S29'
p10644
I0
I1
tp10645
Rp10646
(I3
S'|'
p10647
NNNI29
I1
I0
tp10648
bS'kosicky kraj, kosice - okolie'
p10649
tp10650
Rp10651
sg40
g12
(g13
(S'S32'
p10652
I0
I1
tp10653
Rp10654
(I3
S'|'
p10655
NNNI32
I1
I0
tp10656
bS'nepoviem ti zisti si ich sam :))'
p10657
tp10658
Rp10659
sg49
I0
sg50
I1
sg51
g12
(g13
(S'S1'
p10660
I0
I1
tp10661
Rp10662
(I3
S'|'
p10663
NNNI1
I1
I0
tp10664
bg57
tp10665
Rp10666
sg60
g12
(g13
(S'S8'
p10667
I0
I1
tp10668
Rp10669
(I3
S'|'
p10670
NNNI8
I1
I0
tp10671
bS'zakladne'
p10672
tp10673
Rp10674
sg69
g12
(g13
(S'S63'
p10675
I0
I1
tp10676
Rp10677
(I3
S'|'
p10678
NNNI63
I1
I0
tp10679
bS'v kuchyni pri stole, pri telke, v dobrej restauracii, v posteli'
p10680
tp10681
Rp10682
sg78
g12
(g13
(S'S354'
p10683
I0
I1
tp10684
Rp10685
(I3
S'|'
p10686
NNNI354
I1
I0
tp10687
bS'<div> <a title="vstup do klubu" href="/klub/nejkrasnejsi-veta-je-odpada-vam-hodina">nejkrasnej&shy;si veta je : odpada vam hodina!!!!&shy;!!!!</a> &bull;  <a title="vstup do klubu" href="/klub/skolaa-volaa-omg">skolaa volaa!omg</a> &bull;  <a title="vstup do klubu" href="/klub/2-9-najhorsi-den-v-zivote-ziaka">2.9. najhorsi den v zivote ziaka</a> </div>'
p10688
tp10689
Rp10690
sg87
g12
(g13
(S'S1'
p10691
I0
I1
tp10692
Rp10693
(I3
S'|'
p10694
NNNI1
I1
I0
tp10695
bg28
tp10696
Rp10697
ssV333109
p10698
(dp10699
g10
I0
sg11
g12
(g13
(S'S4'
p10700
I0
I1
tp10701
Rp10702
(I3
S'|'
p10703
NNNI4
I1
I0
tp10704
bS'null'
p10705
tp10706
Rp10707
sg22
g12
(g13
(S'S1'
p10708
I0
I1
tp10709
Rp10710
(I3
S'|'
p10711
NNNI1
I1
I0
tp10712
bg57
tp10713
Rp10714
sg31
g12
(g13
(S'S29'
p10715
I0
I1
tp10716
Rp10717
(I3
S'|'
p10718
NNNI29
I1
I0
tp10719
bS'banskobystricky kraj, tornala'
p10720
tp10721
Rp10722
sg40
g12
(g13
(S'S4'
p10723
I0
I1
tp10724
Rp10725
(I3
S'|'
p10726
NNNI4
I1
I0
tp10727
bS'null'
p10728
tp10729
Rp10730
sg49
I0
sg50
I0
sg51
g12
(g13
(S'S1'
p10731
I0
I1
tp10732
Rp10733
(I3
S'|'
p10734
NNNI1
I1
I0
tp10735
bg57
tp10736
Rp10737
sg60
g12
(g13
(S'S4'
p10738
I0
I1
tp10739
Rp10740
(I3
S'|'
p10741
NNNI4
I1
I0
tp10742
bS'null'
p10743
tp10744
Rp10745
sg69
g12
(g13
(S'S4'
p10746
I0
I1
tp10747
Rp10748
(I3
S'|'
p10749
NNNI4
I1
I0
tp10750
bS'null'
p10751
tp10752
Rp10753
sg78
g12
(g13
(S'S4'
p10754
I0
I1
tp10755
Rp10756
(I3
S'|'
p10757
NNNI4
I1
I0
tp10758
bS'null'
p10759
tp10760
Rp10761
sg87
g12
(g13
(S'S1'
p10762
I0
I1
tp10763
Rp10764
(I3
S'|'
p10765
NNNI1
I1
I0
tp10766
bg28
tp10767
Rp10768
ssV115657
p10769
(dp10770
g10
I0
sg11
g12
(g13
(S'S39'
p10771
I0
I1
tp10772
Rp10773
(I3
S'|'
p10774
NNNI39
I1
I0
tp10775
bS'anglicky, nemecky, slovensky a madarsky'
p10776
tp10777
Rp10778
sg22
g12
(g13
(S'S1'
p10779
I0
I1
tp10780
Rp10781
(I3
S'|'
p10782
NNNI1
I1
I0
tp10783
bg28
tp10784
Rp10785
sg31
g12
(g13
(S'S29'
p10786
I0
I1
tp10787
Rp10788
(I3
S'|'
p10789
NNNI29
I1
I0
tp10790
bS'banskobystricky kraj, tornala'
p10791
tp10792
Rp10793
sg40
g12
(g13
(S'S39'
p10794
I0
I1
tp10795
Rp10796
(I3
S'|'
p10797
NNNI39
I1
I0
tp10798
bS'sportovanie, pocuvanie hudby, priatelia'
p10799
tp10800
Rp10801
sg49
I0
sg50
I1
sg51
g12
(g13
(S'S2'
p10802
I0
I1
tp10803
Rp10804
(I3
S'|'
p10805
NNNI2
I1
I0
tp10806
bS'18'
p10807
tp10808
Rp10809
sg60
g12
(g13
(S'S4'
p10810
I0
I1
tp10811
Rp10812
(I3
S'|'
p10813
NNNI4
I1
I0
tp10814
bS'null'
p10815
tp10816
Rp10817
sg69
g12
(g13
(S'S4'
p10818
I0
I1
tp10819
Rp10820
(I3
S'|'
p10821
NNNI4
I1
I0
tp10822
bS'null'
p10823
tp10824
Rp10825
sg78
g12
(g13
(S'S4'
p10826
I0
I1
tp10827
Rp10828
(I3
S'|'
p10829
NNNI4
I1
I0
tp10830
bS'null'
p10831
tp10832
Rp10833
sg87
g12
(g13
(S'S1'
p10834
I0
I1
tp10835
Rp10836
(I3
S'|'
p10837
NNNI1
I1
I0
tp10838
bg28
tp10839
Rp10840
ssV380282
p10841
(dp10842
g10
I0
sg11
g12
(g13
(S'S4'
p10843
I0
I1
tp10844
Rp10845
(I3
S'|'
p10846
NNNI4
I1
I0
tp10847
bS'null'
p10848
tp10849
Rp10850
sg22
g12
(g13
(S'S1'
p10851
I0
I1
tp10852
Rp10853
(I3
S'|'
p10854
NNNI1
I1
I0
tp10855
bg57
tp10856
Rp10857
sg31
g12
(g13
(S'S30'
p10858
I0
I1
tp10859
Rp10860
(I3
S'|'
p10861
NNNI30
I1
I0
tp10862
bS'kosicky kraj, spisska nova ves'
p10863
tp10864
Rp10865
sg40
g12
(g13
(S'S4'
p10866
I0
I1
tp10867
Rp10868
(I3
S'|'
p10869
NNNI4
I1
I0
tp10870
bS'null'
p10871
tp10872
Rp10873
sg49
I0
sg50
I1
sg51
g12
(g13
(S'S2'
p10874
I0
I1
tp10875
Rp10876
(I3
S'|'
p10877
NNNI2
I1
I0
tp10878
bS'19'
p10879
tp10880
Rp10881
sg60
g12
(g13
(S'S4'
p10882
I0
I1
tp10883
Rp10884
(I3
S'|'
p10885
NNNI4
I1
I0
tp10886
bS'null'
p10887
tp10888
Rp10889
sg69
g12
(g13
(S'S4'
p10890
I0
I1
tp10891
Rp10892
(I3
S'|'
p10893
NNNI4
I1
I0
tp10894
bS'null'
p10895
tp10896
Rp10897
sg78
g12
(g13
(S'S4'
p10898
I0
I1
tp10899
Rp10900
(I3
S'|'
p10901
NNNI4
I1
I0
tp10902
bS'null'
p10903
tp10904
Rp10905
sg87
g12
(g13
(S'S1'
p10906
I0
I1
tp10907
Rp10908
(I3
S'|'
p10909
NNNI1
I1
I0
tp10910
bg28
tp10911
Rp10912
ssV57258
p10913
(dp10914
g10
I0
sg11
g12
(g13
(S'S17'
p10915
I0
I1
tp10916
Rp10917
(I3
S'|'
p10918
NNNI17
I1
I0
tp10919
bS'rusky a este svoj'
p10920
tp10921
Rp10922
sg22
g12
(g13
(S'S1'
p10923
I0
I1
tp10924
Rp10925
(I3
S'|'
p10926
NNNI1
I1
I0
tp10927
bg28
tp10928
Rp10929
sg31
g12
(g13
(S'S28'
p10930
I0
I1
tp10931
Rp10932
(I3
S'|'
p10933
NNNI28
I1
I0
tp10934
bS'zahranicie, zahranicie - usa'
p10935
tp10936
Rp10937
sg40
g12
(g13
(S'S4'
p10938
I0
I1
tp10939
Rp10940
(I3
S'|'
p10941
NNNI4
I1
I0
tp10942
bS'null'
p10943
tp10944
Rp10945
sg49
I0
sg50
I1
sg51
g12
(g13
(S'S2'
p10946
I0
I1
tp10947
Rp10948
(I3
S'|'
p10949
NNNI2
I1
I0
tp10950
bS'18'
p10951
tp10952
Rp10953
sg60
g12
(g13
(S'S8'
p10954
I0
I1
tp10955
Rp10956
(I3
S'|'
p10957
NNNI8
I1
I0
tp10958
bS'zakladne'
p10959
tp10960
Rp10961
sg69
g12
(g13
(S'S4'
p10962
I0
I1
tp10963
Rp10964
(I3
S'|'
p10965
NNNI4
I1
I0
tp10966
bS'null'
p10967
tp10968
Rp10969
sg78
g12
(g13
(S'S961'
p10970
I0
I1
tp10971
Rp10972
(I3
S'|'
p10973
NNNI961
I1
I0
tp10974
bS'<div> <a title="vstup do klubu" href="/klub/skola-sa-hasi-benzinom-a-nie-vodou-to-si-zapamataj-d">skola sa hasi benzinom a nie vodou to si zapamataj.&shy;.. =d</a> &bull;  <a title="vstup do klubu" href="/klub/ked-ta-v-skole-vyvolaju-povedz-bez-pravnika-ani-slovo-d">ked ta v skole vyvolaju povedz &quot;bez pravnika ani slovo&quot; :d</a> &bull;  <a title="vstup do klubu" href="/klub/milujem-skolu-nenavidim-ucenie">milujem  skolu nenavidim ucenie !!!</a> &bull;  <a title="vstup do klubu" href="/klub/na-pisomke-po-minute-to-co-je-more-d-d">na pisomke po minute ..to co je more:d:d</a> &bull;  <a title="vstup do klubu" href="/klub/skola-zacina-ale-ucenie-sa-to-nam-ani-na-um-nezide-d-p">skola zacina ale ucenie sa to nam ani na um nezide :d :p</a> &bull;  <a title="vstup do klubu" href="/klub/antiskola-d">antiskola &quot;;d</a> &bull;  <a title="vstup do klubu" href="/klub/milujem-skolu-ale-nenavidim-ucenie">milujem skolu ale nenavidim ucenie</a> </div>'
p10975
tp10976
Rp10977
sg87
g12
(g13
(S'S1'
p10978
I0
I1
tp10979
Rp10980
(I3
S'|'
p10981
NNNI1
I1
I0
tp10982
bg28
tp10983
Rp10984
ssV68341
p10985
(dp10986
g10
I0
sg11
g12
(g13
(S'S17'
p10987
I0
I1
tp10988
Rp10989
(I3
S'|'
p10990
NNNI17
I1
I0
tp10991
bS'anglicky, nemecky'
p10992
tp10993
Rp10994
sg22
g12
(g13
(S'S1'
p10995
I0
I1
tp10996
Rp10997
(I3
S'|'
p10998
NNNI1
I1
I0
tp10999
bg57
tp11000
Rp11001
sg31
g12
(g13
(S'S32'
p11002
I0
I1
tp11003
Rp11004
(I3
S'|'
p11005
NNNI32
I1
I0
tp11006
bS'zahranicie, zahranicie - ostatne'
p11007
tp11008
Rp11009
sg40
g12
(g13
(S'S97'
p11010
I0
I1
tp11011
Rp11012
(I3
S'|'
p11013
NNNI97
I1
I0
tp11014
bS'pozeranie filmov, nakupovanie, surfovanie po webe, kino, priatelia-chodenie voon :d , sportovanie'
p11015
tp11016
Rp11017
sg49
I0
sg50
I1
sg51
g12
(g13
(S'S1'
p11018
I0
I1
tp11019
Rp11020
(I3
S'|'
p11021
NNNI1
I1
I0
tp11022
bg57
tp11023
Rp11024
sg60
g12
(g13
(S'S4'
p11025
I0
I1
tp11026
Rp11027
(I3
S'|'
p11028
NNNI4
I1
I0
tp11029
bS'null'
p11030
tp11031
Rp11032
sg69
g12
(g13
(S'S44'
p11033
I0
I1
tp11034
Rp11035
(I3
S'|'
p11036
NNNI44
I1
I0
tp11037
bS'v dobrej restauracii,  v posteli,  pri telke'
p11038
tp11039
Rp11040
sg78
g12
(g13
(S'S4'
p11041
I0
I1
tp11042
Rp11043
(I3
S'|'
p11044
NNNI4
I1
I0
tp11045
bS'null'
p11046
tp11047
Rp11048
sg87
g12
(g13
(S'S1'
p11049
I0
I1
tp11050
Rp11051
(I3
S'|'
p11052
NNNI1
I1
I0
tp11053
bg28
tp11054
Rp11055
ssV418682
p11056
(dp11057
g10
I0
sg11
g12
(g13
(S'S17'
p11058
I0
I1
tp11059
Rp11060
(I3
S'|'
p11061
NNNI17
I1
I0
tp11062
bS'anglicky,madarsky'
p11063
tp11064
Rp11065
sg22
g12
(g13
(S'S1'
p11066
I0
I1
tp11067
Rp11068
(I3
S'|'
p11069
NNNI1
I1
I0
tp11070
bg57
tp11071
Rp11072
sg31
g12
(g13
(S'S27'
p11073
I0
I1
tp11074
Rp11075
(I3
S'|'
p11076
NNNI27
I1
I0
tp11077
bS'nitriansky kraj, zeliezovce'
p11078
tp11079
Rp11080
sg40
g12
(g13
(S'S23'
p11081
I0
I1
tp11082
Rp11083
(I3
S'|'
p11084
NNNI23
I1
I0
tp11085
bS'tancovanie, sportovanie'
p11086
tp11087
Rp11088
sg49
I0
sg50
I1
sg51
g12
(g13
(S'S2'
p11089
I0
I1
tp11090
Rp11091
(I3
S'|'
p11092
NNNI2
I1
I0
tp11093
bS'16'
p11094
tp11095
Rp11096
sg60
g12
(g13
(S'S4'
p11097
I0
I1
tp11098
Rp11099
(I3
S'|'
p11100
NNNI4
I1
I0
tp11101
bS'null'
p11102
tp11103
Rp11104
sg69
g12
(g13
(S'S4'
p11105
I0
I1
tp11106
Rp11107
(I3
S'|'
p11108
NNNI4
I1
I0
tp11109
bS'null'
p11110
tp11111
Rp11112
sg78
g12
(g13
(S'S137'
p11113
I0
I1
tp11114
Rp11115
(I3
S'|'
p11116
NNNI137
I1
I0
tp11117
bS'<div> <a title="vstup do klubu" href="/klub/viem-ze-nic-neviem-xd-a-ani-to-neviem-xd">viem ze nic neviem xd a ani to neviem xd</a> </div>'
p11118
tp11119
Rp11120
sg87
g12
(g13
(S'S1'
p11121
I0
I1
tp11122
Rp11123
(I3
S'|'
p11124
NNNI1
I1
I0
tp11125
bg28
tp11126
Rp11127
sssS'node_dict_factory'
p11128
c__builtin__
dict
p11129
sS'edge_attr_dict_factory'
p11130
g11129
sS'edge'
p11131
(dp11132
g8
(dp11133
g10268
(dp11134
ssg95
(dp11135
g3178
(dp11136
ssg167
(dp11137
g8264
(dp11138
sg9912
(dp11139
ssg239
(dp11140
g3322
(dp11141
sg9481
(dp11142
sg10268
(dp11143
ssg310
(dp11144
g4902
(dp11145
sg7693
(dp11146
sg3824
(dp11147
sg3250
(dp11148
ssg389
(dp11149
g461
(dp11150
sg4973
(dp11151
sg8551
(dp11152
sg6907
(dp11153
sg2891
(dp11154
ssg461
(dp11155
V57940
p11156
g11150
ssg532
(dp11157
g10555
(dp11158
ssg603
(dp11159
g5474
(dp11160
sg1961
(dp11161
sg9481
(dp11162
sg9052
(dp11163
ssg674
(dp11164
g8837
(dp11165
sg5045
(dp11166
sg1388
(dp11167
sg8335
(dp11168
sg3753
(dp11169
sg889
(dp11170
sg1103
(dp11171
ssg3753
(dp11172
g8837
(dp11173
sg1388
(dp11174
sg8335
(dp11175
sg674
g11169
sg817
(dp11176
sg961
(dp11177
sg1032
(dp11178
sV425871
p11179
(dp11180
ssg817
(dp11181
g3753
g11176
sg1103
(dp11182
ssg889
(dp11183
g1388
(dp11184
sg8837
(dp11185
sg674
g11170
sg1103
(dp11186
ssg961
(dp11187
g1388
(dp11188
sg8837
(dp11189
sg3753
g11177
sg10913
(dp11190
sg1103
(dp11191
ssg1032
(dp11192
g8837
(dp11193
sg3753
g11178
sg5045
(dp11194
sg1103
(dp11195
ssg1103
(dp11196
g8837
(dp11197
sg5045
(dp11198
sg1388
(dp11199
sg8335
(dp11200
sg674
g11171
sg3753
g11180
sg817
g11182
sg889
g11186
sg961
g11191
sg1032
g11195
ssg1174
(dp11201
g2390
(dp11202
ssg1245
(dp11203
g1819
(dp11204
sg7478
(dp11205
sg9339
(dp11206
sg2749
(dp11207
sg1460
(dp11208
ssg1317
(dp11209
g2390
(dp11210
ssg9840
(dp11211
g7978
(dp11212
sg9267
(dp11213
sg8050
(dp11214
sg9124
(dp11215
ssg6261
(dp11216
g10913
(dp11217
ssg1532
(dp11218
g8623
(dp11219
sg4542
(dp11220
sg6118
(dp11221
sg8264
(dp11222
ssg1604
(dp11223
g2390
(dp11224
ssg1676
(dp11225
g10913
(dp11226
ssg1747
(dp11227
g2749
(dp11228
ssg1819
(dp11229
g1245
g11204
ssg8122
(dp11230
g6047
(dp11231
sg5903
(dp11232
sg3034
(dp11233
sg2462
(dp11234
ssg2032
(dp11235
g5617
(dp11236
sg7407
(dp11237
ssg2104
(dp11238
g9267
(dp11239
sg6118
(dp11240
ssg2176
(dp11241
g4183
(dp11242
sg2534
(dp11243
sg9339
(dp11244
sg10054
(dp11245
ssg2247
(dp11246
g10769
(dp11247
ssg2319
(dp11248
g6047
(dp11249
sg10698
(dp11250
sg4470
(dp11251
sg4614
(dp11252
ssg2390
(dp11253
g1174
g11202
sg9481
(dp11254
sg1317
g11210
sg7907
(dp11255
sg1604
g11224
sg5759
(dp11256
ssg6403
(dp11257
g6979
(dp11258
ssg2534
(dp11259
g10411
(dp11260
sg2176
g11243
sg4183
(dp11261
ssg6475
(dp11262
g6619
(dp11263
sg6691
(dp11264
sg4327
(dp11265
ssg2678
(dp11266
g9481
(dp11267
ssg2749
(dp11268
g1245
g11207
sg1747
g11228
ssg2820
(dp11269
g7407
(dp11270
ssg2891
(dp11271
g11156
g11154
ssg2963
(dp11272
g4398
(dp11273
sg10985
(dp11274
ssg3034
(dp11275
g8122
g11233
sg4327
(dp11276
sg2462
(dp11277
ssg3106
(dp11278
g10339
(dp11279
sg5688
(dp11280
ssg3178
(dp11281
g4973
(dp11282
sg95
g11136
ssg3250
(dp11283
g310
g11148
sg10841
(dp11284
ssg3322
(dp11285
g239
g11141
ssg3394
(dp11286
g10913
(dp11287
sg6979
(dp11288
ssg3466
(dp11289
g4111
(dp11290
sg7192
(dp11291
ssg3538
(dp11292
g9696
(dp11293
sg4039
(dp11294
ssg3610
(dp11295
g9410
(dp11296
ssg3681
(dp11297
g10125
(dp11298
ssg746
(dp11299
g5117
(dp11300
ssg3824
(dp11301
g310
g11147
ssg8264
(dp11302
g167
g11138
sg1532
g11222
ssg6835
(dp11303
g9624
(dp11304
ssg3968
(dp11305
g11056
(dp11306
ssg4039
(dp11307
g3538
g11294
sg7050
(dp11308
ssg4111
(dp11309
g3466
g11290
sg4255
(dp11310
ssg4183
(dp11311
g2176
g11242
sg2534
g11261
ssg4255
(dp11312
g4111
g11310
sg8980
(dp11313
sg6332
(dp11314
sg9052
(dp11315
ssg4327
(dp11316
g6047
(dp11317
sg6475
g11265
sg7407
(dp11318
sg3034
g11276
sg2462
(dp11319
ssg4398
(dp11320
g7765
(dp11321
sg7836
(dp11322
sg2963
g11273
ssg4470
(dp11323
g8694
(dp11324
sg4614
(dp11325
sg10698
(dp11326
sg2462
(dp11327
sg5545
(dp11328
sV333032
p11329
g11251
sg5259
(dp11330
sg7550
(dp11331
ssg4542
(dp11332
g1532
g11220
ssg4614
(dp11333
g4470
g11325
sV333032
p11334
g11252
sg5259
(dp11335
ssg4686
(dp11336
g4973
(dp11337
ssg4758
(dp11338
g2606
(dp11339
ssg4830
(dp11340
g7978
(dp11341
ssg4902
(dp11342
g310
g11145
sg11056
(dp11343
ssg4973
(dp11344
g11156
g11151
sg3178
g11282
sg6979
(dp11345
sg4686
g11337
ssg5045
(dp11346
g8837
(dp11347
sg674
g11166
sg1032
g11194
sg1103
g11198
ssg5117
(dp11348
g8479
(dp11349
sg9481
(dp11350
sg746
g11300
ssg5188
(dp11351
g10913
(dp11352
ssg5259
(dp11353
g4470
g11330
sg4614
g11335
ssg5330
(dp11354
g7621
(dp11355
ssg5402
(dp11356
g6118
(dp11357
ssg5474
(dp11358
g603
g11160
ssg5545
(dp11359
g8694
(dp11360
sg10769
(dp11361
sg4470
g11328
sg5688
(dp11362
sg10698
(dp11363
ssg5617
(dp11364
g2032
g11236
ssg5688
(dp11365
g8694
(dp11366
sg10339
(dp11367
sg10698
(dp11368
sg3106
g11280
sg5545
g11362
sg10769
(dp11369
sg7550
(dp11370
ssg5759
(dp11371
g2390
g11256
sg9624
(dp11372
ssg5831
(dp11373
g10913
(dp11374
ssg5903
(dp11375
g6047
(dp11376
sg8122
g11232
sg7407
(dp11377
ssg5975
(dp11378
g9410
(dp11379
ssg10483
(dp11380
sg6047
(dp11381
g8122
g11231
sg5903
g11376
sg7335
(dp11382
sg7407
(dp11383
sg2319
g11249
sg4327
g11317
ssg6118
(dp11384
g5402
g11357
sg6691
(dp11385
sg9410
(dp11386
sg2104
g11240
sg1532
g11221
ssg6190
(dp11387
g9124
(dp11388
ssg1460
(dp11389
g1245
g11208
ssg6332
(dp11390
g4255
g11314
ssg2462
(dp11391
g8122
g11234
sg4470
g11327
sg4327
g11319
sg3034
g11277
ssg2606
(dp11392
g7121
(dp11393
sg4758
g11339
sg10841
(dp11394
ssg6547
(dp11395
g9481
(dp11396
ssg6619
(dp11397
g6475
g11263
sg6691
(dp11398
ssg6691
(dp11399
g6475
g11264
sg6619
g11398
sg7407
(dp11400
sg6118
g11385
ssg6763
(dp11401
g7263
(dp11402
sg9410
(dp11403
ssg3896
(dp11404
g1890
(dp11405
sg9481
(dp11406
sg10913
(dp11407
ssg6979
(dp11408
g4973
g11345
sg3394
g11288
sg6403
g11258
ssg7050
(dp11409
g4039
g11308
ssg7121
(dp11410
g2606
g11393
ssg7192
(dp11411
g3466
g11291
sg10841
(dp11412
ssg7263
(dp11413
g6763
g11402
ssg7335
(dp11414
g6047
g11382
ssg7407
(dp11415
g5903
g11377
sg2820
g11270
sg2032
g11237
sg6047
g11383
sg6691
g11400
sg4327
g11318
ssg7478
(dp11416
g1245
g11205
ssg7550
(dp11417
g10698
(dp11418
sg4470
g11331
sg5688
g11370
sg10769
(dp11419
ssg7621
(dp11420
g9195
(dp11421
sg5330
g11355
ssg7693
(dp11422
g1961
(dp11423
sg310
g11146
ssg7765
(dp11424
g4398
g11321
ssg7836
(dp11425
g4398
g11322
ssg7907
(dp11426
g10197
(dp11427
sg2390
g11255
ssg7978
(dp11428
g9840
g11212
sg4830
g11341
ssg1961
(dp11429
g7693
g11423
sg603
g11161
ssg1890
(dp11430
g3896
g11405
ssg8193
(dp11431
g9624
(dp11432
ssg8050
(dp11433
g9840
g11214
ssg8335
(dp11434
g8837
(dp11435
sg3753
g11175
sg674
g11168
sg1103
g11200
ssg8407
(dp11436
g9768
(dp11437
sg10555
(dp11438
ssg8479
(dp11439
g5117
g11349
sg9267
(dp11440
ssg8551
(dp11441
g11156
g11152
ssg8623
(dp11442
g1532
g11219
ssg8694
(dp11443
g5545
g11360
sg4470
g11324
sg5688
g11366
ssg8765
(dp11444
g9481
(dp11445
ssg8837
(dp11446
g5045
g11347
sg1388
(dp11447
sg8335
g11435
sg674
g11165
sg3753
g11173
sg889
g11185
sg961
g11189
sg1032
g11193
sg1103
g11197
ssg8908
(dp11448
g9481
(dp11449
ssg8980
(dp11450
g9481
(dp11451
sg4255
g11313
ssg9052
(dp11452
g9481
(dp11453
sg603
g11163
sg4255
g11315
ssg9124
(dp11454
g9840
g11215
sg9481
(dp11455
sg6190
g11388
ssg9195
(dp11456
g7621
g11421
sg11056
(dp11457
ssg9267
(dp11458
g8479
g11440
sg2104
g11239
sg9840
g11213
ssg9339
(dp11459
g1245
g11206
sg10411
(dp11460
sg2176
g11244
sg10913
(dp11461
ssg9410
(dp11462
g5975
g11379
sg3610
g11296
sg6118
g11386
sg6763
g11403
ssg9481
(dp11463
g8765
g11445
sg239
g11142
sg8908
g11449
sV386306
p11464
g11451
sg9052
g11453
sg6547
g11396
sg10627
(dp11465
sg2678
g11267
sg603
g11162
sg9124
g11455
sg9983
(dp11466
sg3896
g11406
sg2390
g11254
sg5117
g11350
sg10125
(dp11467
ssg9552
(dp11468
sg9624
(dp11469
g6835
g11304
sg8193
g11432
sg5759
g11372
ssg9696
(dp11470
g3538
g11293
ssg9768
(dp11471
g8407
g11437
ssg1388
(dp11472
g8837
g11447
sg10555
(dp11473
sg674
g11167
sg3753
g11174
sg889
g11184
sg961
g11188
sg1103
g11199
ssg9912
(dp11474
g167
g11139
ssg9983
(dp11475
g9481
g11466
ssg10054
(dp11476
g2176
g11245
ssg10125
(dp11477
g3681
g11298
sg9481
g11467
ssg10197
(dp11478
g7907
g11427
ssg10268
(dp11479
g239
g11143
sg8
g11134
ssg10339
(dp11480
g5688
g11367
sg3106
g11279
ssg10411
(dp11481
g2534
g11260
sg9339
g11460
ssg6907
(dp11482
g11156
g11153
ssg10555
(dp11483
g1388
g11473
sg532
g11158
sg8407
g11438
ssg10627
(dp11484
g9481
g11465
ssg10698
(dp11485
g4470
g11326
sg5545
g11363
sg2319
g11250
sg10769
(dp11486
sg5688
g11368
sg7550
g11418
ssg10769
(dp11487
g10698
g11486
sg5545
g11361
sg2247
g11247
sg5688
g11369
sg7550
g11419
ssg11056
(dp11488
g4902
g11343
sg9195
g11457
sg3968
g11306
ssg10913
(dp11489
g5831
g11374
sg5188
g11352
sg6261
g11217
sg1676
g11226
sg3896
g11407
sg961
g11190
sg3394
g11287
sg10985
(dp11490
sg9339
g11461
ssg10985
(dp11491
g2963
g11274
sg10913
g11490
ssg10841
(dp11492
g2606
g11394
sg3250
g11284
sg7192
g11412
sssS'graph'
p11493
(dp11494
sS'adjlist_dict_factory'
p11495
g11129
sS'adj'
p11496
g11132
sb.