ccopy_reg
_reconstructor
p0
(cnetworkx.classes.graph
Graph
p1
c__builtin__
object
p2
Ntp3
Rp4
(dp5
S'node'
p6
(dp7
V702935
p8
(dp9
S'is_target'
p10
I0
sS'language'
p11
cnumpy.core.multiarray
scalar
p12
(cnumpy
dtype
p13
(S'S4'
p14
I0
I1
tp15
Rp16
(I3
S'|'
p17
NNNI4
I1
I0
tp18
bS'null'
p19
tp20
Rp21
sS'gender'
p22
g12
(g13
(S'S1'
p23
I0
I1
tp24
Rp25
(I3
S'|'
p26
NNNI1
I1
I0
tp27
bS'0'
p28
tp29
Rp30
sS'region'
p31
g12
(g13
(S'S43'
p32
I0
I1
tp33
Rp34
(I3
S'|'
p35
NNNI43
I1
I0
tp36
bS'bratislavsky kraj, bratislava - karlova ves'
p37
tp38
Rp39
sS'hobbies'
p40
g12
(g13
(S'S4'
p41
I0
I1
tp42
Rp43
(I3
S'|'
p44
NNNI4
I1
I0
tp45
bS'null'
p46
tp47
Rp48
sS'is_start'
p49
I0
sS'public_rand'
p50
I1
sS'age'
p51
g12
(g13
(S'S1'
p52
I0
I1
tp53
Rp54
(I3
S'|'
p55
NNNI1
I1
I0
tp56
bg28
tp57
Rp58
sS'comp_edu'
p59
g12
(g13
(S'S4'
p60
I0
I1
tp61
Rp62
(I3
S'|'
p63
NNNI4
I1
I0
tp64
bS'null'
p65
tp66
Rp67
sS'pets'
p68
g12
(g13
(S'S4'
p69
I0
I1
tp70
Rp71
(I3
S'|'
p72
NNNI4
I1
I0
tp73
bS'null'
p74
tp75
Rp76
sS'edu'
p77
g12
(g13
(S'S4'
p78
I0
I1
tp79
Rp80
(I3
S'|'
p81
NNNI4
I1
I0
tp82
bS'null'
p83
tp84
Rp85
sS'public'
p86
g12
(g13
(S'S1'
p87
I0
I1
tp88
Rp89
(I3
S'|'
p90
NNNI1
I1
I0
tp91
bg28
tp92
Rp93
ssS'773686'
p94
(dp95
g10
I0
sg11
g12
(g13
(S'S4'
p96
I0
I1
tp97
Rp98
(I3
S'|'
p99
NNNI4
I1
I0
tp100
bS'null'
p101
tp102
Rp103
sg22
g12
(g13
(S'S1'
p104
I0
I1
tp105
Rp106
(I3
S'|'
p107
NNNI1
I1
I0
tp108
bg28
tp109
Rp110
sg31
g12
(g13
(S'S43'
p111
I0
I1
tp112
Rp113
(I3
S'|'
p114
NNNI43
I1
I0
tp115
bS'bratislavsky kraj, bratislava - karlova ves'
p116
tp117
Rp118
sg40
g12
(g13
(S'S4'
p119
I0
I1
tp120
Rp121
(I3
S'|'
p122
NNNI4
I1
I0
tp123
bS'null'
p124
tp125
Rp126
sg49
I0
sg50
I1
sg51
g12
(g13
(S'S2'
p127
I0
I1
tp128
Rp129
(I3
S'|'
p130
NNNI2
I1
I0
tp131
bS'23'
p132
tp133
Rp134
sg59
g12
(g13
(S'S4'
p135
I0
I1
tp136
Rp137
(I3
S'|'
p138
NNNI4
I1
I0
tp139
bS'null'
p140
tp141
Rp142
sg68
g12
(g13
(S'S4'
p143
I0
I1
tp144
Rp145
(I3
S'|'
p146
NNNI4
I1
I0
tp147
bS'null'
p148
tp149
Rp150
sg77
g12
(g13
(S'S4'
p151
I0
I1
tp152
Rp153
(I3
S'|'
p154
NNNI4
I1
I0
tp155
bS'null'
p156
tp157
Rp158
sg86
g12
(g13
(S'S1'
p159
I0
I1
tp160
Rp161
(I3
S'|'
p162
NNNI1
I1
I0
tp163
bS'1'
p164
tp165
Rp166
ssS'1135118'
p167
(dp168
g10
I0
sg11
g12
(g13
(S'S4'
p169
I0
I1
tp170
Rp171
(I3
S'|'
p172
NNNI4
I1
I0
tp173
bS'null'
p174
tp175
Rp176
sg22
g12
(g13
(S'S1'
p177
I0
I1
tp178
Rp179
(I3
S'|'
p180
NNNI1
I1
I0
tp181
bg28
tp182
Rp183
sg31
g12
(g13
(S'S43'
p184
I0
I1
tp185
Rp186
(I3
S'|'
p187
NNNI43
I1
I0
tp188
bS'bratislavsky kraj, bratislava - karlova ves'
p189
tp190
Rp191
sg40
g12
(g13
(S'S4'
p192
I0
I1
tp193
Rp194
(I3
S'|'
p195
NNNI4
I1
I0
tp196
bS'null'
p197
tp198
Rp199
sg49
I0
sg50
I0
sg51
g12
(g13
(S'S2'
p200
I0
I1
tp201
Rp202
(I3
S'|'
p203
NNNI2
I1
I0
tp204
bS'22'
p205
tp206
Rp207
sg59
g12
(g13
(S'S4'
p208
I0
I1
tp209
Rp210
(I3
S'|'
p211
NNNI4
I1
I0
tp212
bS'null'
p213
tp214
Rp215
sg68
g12
(g13
(S'S4'
p216
I0
I1
tp217
Rp218
(I3
S'|'
p219
NNNI4
I1
I0
tp220
bS'null'
p221
tp222
Rp223
sg77
g12
(g13
(S'S4'
p224
I0
I1
tp225
Rp226
(I3
S'|'
p227
NNNI4
I1
I0
tp228
bS'null'
p229
tp230
Rp231
sg86
g12
(g13
(S'S1'
p232
I0
I1
tp233
Rp234
(I3
S'|'
p235
NNNI1
I1
I0
tp236
bg164
tp237
Rp238
ssV592159
p239
(dp240
g10
I0
sg11
g12
(g13
(S'S4'
p241
I0
I1
tp242
Rp243
(I3
S'|'
p244
NNNI4
I1
I0
tp245
bS'null'
p246
tp247
Rp248
sg22
g12
(g13
(S'S1'
p249
I0
I1
tp250
Rp251
(I3
S'|'
p252
NNNI1
I1
I0
tp253
bg164
tp254
Rp255
sg31
g12
(g13
(S'S43'
p256
I0
I1
tp257
Rp258
(I3
S'|'
p259
NNNI43
I1
I0
tp260
bS'bratislavsky kraj, bratislava - karlova ves'
p261
tp262
Rp263
sg40
g12
(g13
(S'S4'
p264
I0
I1
tp265
Rp266
(I3
S'|'
p267
NNNI4
I1
I0
tp268
bS'null'
p269
tp270
Rp271
sg49
I0
sg50
I0
sg51
g12
(g13
(S'S2'
p272
I0
I1
tp273
Rp274
(I3
S'|'
p275
NNNI2
I1
I0
tp276
bS'25'
p277
tp278
Rp279
sg59
g12
(g13
(S'S4'
p280
I0
I1
tp281
Rp282
(I3
S'|'
p283
NNNI4
I1
I0
tp284
bS'null'
p285
tp286
Rp287
sg68
g12
(g13
(S'S4'
p288
I0
I1
tp289
Rp290
(I3
S'|'
p291
NNNI4
I1
I0
tp292
bS'null'
p293
tp294
Rp295
sg77
g12
(g13
(S'S4'
p296
I0
I1
tp297
Rp298
(I3
S'|'
p299
NNNI4
I1
I0
tp300
bS'null'
p301
tp302
Rp303
sg86
g12
(g13
(S'S1'
p304
I0
I1
tp305
Rp306
(I3
S'|'
p307
NNNI1
I1
I0
tp308
bg164
tp309
Rp310
ssV782944
p311
(dp312
g10
I0
sg11
g12
(g13
(S'S17'
p313
I0
I1
tp314
Rp315
(I3
S'|'
p316
NNNI17
I1
I0
tp317
bS'anglicky, nemecky'
p318
tp319
Rp320
sg22
g12
(g13
(S'S1'
p321
I0
I1
tp322
Rp323
(I3
S'|'
p324
NNNI1
I1
I0
tp325
bg164
tp326
Rp327
sg31
g12
(g13
(S'S43'
p328
I0
I1
tp329
Rp330
(I3
S'|'
p331
NNNI43
I1
I0
tp332
bS'bratislavsky kraj, bratislava - karlova ves'
p333
tp334
Rp335
sg40
g12
(g13
(S'S28'
p336
I0
I1
tp337
Rp338
(I3
S'|'
p339
NNNI28
I1
I0
tp340
bS'sportovanie, pocuvanie hudby'
p341
tp342
Rp343
sg49
I0
sg50
I0
sg51
g12
(g13
(S'S2'
p344
I0
I1
tp345
Rp346
(I3
S'|'
p347
NNNI2
I1
I0
tp348
bS'28'
p349
tp350
Rp351
sg59
g12
(g13
(S'S13'
p352
I0
I1
tp353
Rp354
(I3
S'|'
p355
NNNI13
I1
I0
tp356
bS'stredoskolske'
p357
tp358
Rp359
sg68
g12
(g13
(S'S4'
p360
I0
I1
tp361
Rp362
(I3
S'|'
p363
NNNI4
I1
I0
tp364
bS'null'
p365
tp366
Rp367
sg77
g12
(g13
(S'S4'
p368
I0
I1
tp369
Rp370
(I3
S'|'
p371
NNNI4
I1
I0
tp372
bS'null'
p373
tp374
Rp375
sg86
g12
(g13
(S'S1'
p376
I0
I1
tp377
Rp378
(I3
S'|'
p379
NNNI1
I1
I0
tp380
bg28
tp381
Rp382
ssV148320
p383
(dp384
g10
I0
sg11
g12
(g13
(S'S19'
p385
I0
I1
tp386
Rp387
(I3
S'|'
p388
NNNI19
I1
I0
tp389
bS'anglicky, taliansky'
p390
tp391
Rp392
sg22
g12
(g13
(S'S1'
p393
I0
I1
tp394
Rp395
(I3
S'|'
p396
NNNI1
I1
I0
tp397
bg164
tp398
Rp399
sg31
g12
(g13
(S'S43'
p400
I0
I1
tp401
Rp402
(I3
S'|'
p403
NNNI43
I1
I0
tp404
bS'bratislavsky kraj, bratislava - karlova ves'
p405
tp406
Rp407
sg40
g12
(g13
(S'S125'
p408
I0
I1
tp409
Rp410
(I3
S'|'
p411
NNNI125
I1
I0
tp412
bS'sportovanie, fotografovanie, surfovanie po webe, pocuvanie hudby, natacanie homevidea,a ece ma srasne bavi hudba s nou zijem '
p413
tp414
Rp415
sg49
I0
sg50
I1
sg51
g12
(g13
(S'S2'
p416
I0
I1
tp417
Rp418
(I3
S'|'
p419
NNNI2
I1
I0
tp420
bS'21'
p421
tp422
Rp423
sg59
g12
(g13
(S'S40'
p424
I0
I1
tp425
Rp426
(I3
S'|'
p427
NNNI40
I1
I0
tp428
bS'zakladne, studujem na konzervatoriu-spev'
p429
tp430
Rp431
sg68
g12
(g13
(S'S136'
p432
I0
I1
tp433
Rp434
(I3
S'|'
p435
NNNI136
I1
I0
tp436
bS'pri telke, v dobrej restauracii, z partnerovho bruska, ked je v poho partner a je to partner ako partner ze sa mame radi tak preco ne...'
p437
tp438
Rp439
sg77
g12
(g13
(S'S4'
p440
I0
I1
tp441
Rp442
(I3
S'|'
p443
NNNI4
I1
I0
tp444
bS'null'
p445
tp446
Rp447
sg86
g12
(g13
(S'S1'
p448
I0
I1
tp449
Rp450
(I3
S'|'
p451
NNNI1
I1
I0
tp452
bg164
tp453
Rp454
ssS'224939'
p455
(dp456
g10
I0
sg11
g12
(g13
(S'S4'
p457
I0
I1
tp458
Rp459
(I3
S'|'
p460
NNNI4
I1
I0
tp461
bS'null'
p462
tp463
Rp464
sg22
g12
(g13
(S'S1'
p465
I0
I1
tp466
Rp467
(I3
S'|'
p468
NNNI1
I1
I0
tp469
bg28
tp470
Rp471
sg31
g12
(g13
(S'S43'
p472
I0
I1
tp473
Rp474
(I3
S'|'
p475
NNNI43
I1
I0
tp476
bS'bratislavsky kraj, bratislava - karlova ves'
p477
tp478
Rp479
sg40
g12
(g13
(S'S4'
p480
I0
I1
tp481
Rp482
(I3
S'|'
p483
NNNI4
I1
I0
tp484
bS'null'
p485
tp486
Rp487
sg49
I0
sg50
I1
sg51
g12
(g13
(S'S2'
p488
I0
I1
tp489
Rp490
(I3
S'|'
p491
NNNI2
I1
I0
tp492
bS'22'
p493
tp494
Rp495
sg59
g12
(g13
(S'S4'
p496
I0
I1
tp497
Rp498
(I3
S'|'
p499
NNNI4
I1
I0
tp500
bS'null'
p501
tp502
Rp503
sg68
g12
(g13
(S'S4'
p504
I0
I1
tp505
Rp506
(I3
S'|'
p507
NNNI4
I1
I0
tp508
bS'null'
p509
tp510
Rp511
sg77
g12
(g13
(S'S4'
p512
I0
I1
tp513
Rp514
(I3
S'|'
p515
NNNI4
I1
I0
tp516
bS'null'
p517
tp518
Rp519
sg86
g12
(g13
(S'S1'
p520
I0
I1
tp521
Rp522
(I3
S'|'
p523
NNNI1
I1
I0
tp524
bg164
tp525
Rp526
ssS'658963'
p527
(dp528
g10
I0
sg11
g12
(g13
(S'S31'
p529
I0
I1
tp530
Rp531
(I3
S'|'
p532
NNNI31
I1
I0
tp533
bS'anglicky, , nemecky, spanielsky'
p534
tp535
Rp536
sg22
g12
(g13
(S'S1'
p537
I0
I1
tp538
Rp539
(I3
S'|'
p540
NNNI1
I1
I0
tp541
bg28
tp542
Rp543
sg31
g12
(g13
(S'S43'
p544
I0
I1
tp545
Rp546
(I3
S'|'
p547
NNNI43
I1
I0
tp548
bS'bratislavsky kraj, bratislava - karlova ves'
p549
tp550
Rp551
sg40
g12
(g13
(S'S39'
p552
I0
I1
tp553
Rp554
(I3
S'|'
p555
NNNI39
I1
I0
tp556
bS'pocuvanie hudby, diskoteky, kino, party'
p557
tp558
Rp559
sg49
I0
sg50
I0
sg51
g12
(g13
(S'S2'
p560
I0
I1
tp561
Rp562
(I3
S'|'
p563
NNNI2
I1
I0
tp564
bS'20'
p565
tp566
Rp567
sg59
g12
(g13
(S'S8'
p568
I0
I1
tp569
Rp570
(I3
S'|'
p571
NNNI8
I1
I0
tp572
bS'zakladne'
p573
tp574
Rp575
sg68
g12
(g13
(S'S4'
p576
I0
I1
tp577
Rp578
(I3
S'|'
p579
NNNI4
I1
I0
tp580
bS'null'
p581
tp582
Rp583
sg77
g12
(g13
(S'S4'
p584
I0
I1
tp585
Rp586
(I3
S'|'
p587
NNNI4
I1
I0
tp588
bS'null'
p589
tp590
Rp591
sg86
g12
(g13
(S'S1'
p592
I0
I1
tp593
Rp594
(I3
S'|'
p595
NNNI1
I1
I0
tp596
bg164
tp597
Rp598
ssV1123897
p599
(dp600
g10
I0
sg11
g12
(g13
(S'S4'
p601
I0
I1
tp602
Rp603
(I3
S'|'
p604
NNNI4
I1
I0
tp605
bS'null'
p606
tp607
Rp608
sg22
g12
(g13
(S'S1'
p609
I0
I1
tp610
Rp611
(I3
S'|'
p612
NNNI1
I1
I0
tp613
bg28
tp614
Rp615
sg31
g12
(g13
(S'S43'
p616
I0
I1
tp617
Rp618
(I3
S'|'
p619
NNNI43
I1
I0
tp620
bS'bratislavsky kraj, bratislava - karlova ves'
p621
tp622
Rp623
sg40
g12
(g13
(S'S4'
p624
I0
I1
tp625
Rp626
(I3
S'|'
p627
NNNI4
I1
I0
tp628
bS'null'
p629
tp630
Rp631
sg49
I0
sg50
I1
sg51
g12
(g13
(S'S1'
p632
I0
I1
tp633
Rp634
(I3
S'|'
p635
NNNI1
I1
I0
tp636
bg28
tp637
Rp638
sg59
g12
(g13
(S'S4'
p639
I0
I1
tp640
Rp641
(I3
S'|'
p642
NNNI4
I1
I0
tp643
bS'null'
p644
tp645
Rp646
sg68
g12
(g13
(S'S4'
p647
I0
I1
tp648
Rp649
(I3
S'|'
p650
NNNI4
I1
I0
tp651
bS'null'
p652
tp653
Rp654
sg77
g12
(g13
(S'S4'
p655
I0
I1
tp656
Rp657
(I3
S'|'
p658
NNNI4
I1
I0
tp659
bS'null'
p660
tp661
Rp662
sg86
g12
(g13
(S'S1'
p663
I0
I1
tp664
Rp665
(I3
S'|'
p666
NNNI1
I1
I0
tp667
bg164
tp668
Rp669
ssV1126320
p670
(dp671
g10
I0
sg11
g12
(g13
(S'S37'
p672
I0
I1
tp673
Rp674
(I3
S'|'
p675
NNNI37
I1
I0
tp676
bS'nemecky, a zakusnem sa do dalsich :-d'
p677
tp678
Rp679
sg22
g12
(g13
(S'S1'
p680
I0
I1
tp681
Rp682
(I3
S'|'
p683
NNNI1
I1
I0
tp684
bg28
tp685
Rp686
sg31
g12
(g13
(S'S43'
p687
I0
I1
tp688
Rp689
(I3
S'|'
p690
NNNI43
I1
I0
tp691
bS'bratislavsky kraj, bratislava - karlova ves'
p692
tp693
Rp694
sg40
g12
(g13
(S'S279'
p695
I0
I1
tp696
Rp697
(I3
S'|'
p698
NNNI279
I1
I0
tp699
bS'sportovanie, fotografovanie, cestovanie, citanie, pocuvanie hudby, pozeranie filmov, chovatelstvo, tancovanie, diskoteky, kupalisko, varenie, jedlo, kino, party, priatelia, spanie, divadlo, nakupovanie, sex, stanovanie, ..... som vsetranny clovek, nadchnem sa pre kazdu haluz :-)'
p700
tp701
Rp702
sg49
I0
sg50
I1
sg51
g12
(g13
(S'S1'
p703
I0
I1
tp704
Rp705
(I3
S'|'
p706
NNNI1
I1
I0
tp707
bg28
tp708
Rp709
sg59
g12
(g13
(S'S24'
p710
I0
I1
tp711
Rp712
(I3
S'|'
p713
NNNI24
I1
I0
tp714
bS'studujem aj pracujem :o)'
p715
tp716
Rp717
sg68
g12
(g13
(S'S115'
p718
I0
I1
tp719
Rp720
(I3
S'|'
p721
NNNI115
I1
I0
tp722
bS'pri telke, pri svieckach s partnerom, v dobrej restauracii, v prirode, v posteli, z partnerovho bruska, skoro vsade'
p723
tp724
Rp725
sg77
g12
(g13
(S'S4'
p726
I0
I1
tp727
Rp728
(I3
S'|'
p729
NNNI4
I1
I0
tp730
bS'null'
p731
tp732
Rp733
sg86
g12
(g13
(S'S1'
p734
I0
I1
tp735
Rp736
(I3
S'|'
p737
NNNI1
I1
I0
tp738
bg28
tp739
Rp740
ssg12
(g13
(S'S6'
p741
I0
I1
tp742
Rp743
(I3
S'|'
p744
NNNI6
I1
I0
tp745
bS'210505'
p746
tp747
Rp748
(dp749
g10
I1
sg11
g12
(g13
(S'S46'
p750
I0
I1
tp751
Rp752
(I3
S'|'
p753
NNNI46
I1
I0
tp754
bS'anglicky, idem zlepsovat aj tu moju rustinu :)'
p755
tp756
Rp757
sg22
g12
(g13
(S'S1'
p758
I0
I1
tp759
Rp760
(I3
S'|'
p761
NNNI1
I1
I0
tp762
bg28
tp763
Rp764
sg31
g12
(g13
(S'S43'
p765
I0
I1
tp766
Rp767
(I3
S'|'
p768
NNNI43
I1
I0
tp769
bS'bratislavsky kraj, bratislava - karlova ves'
p770
tp771
Rp772
sg40
g12
(g13
(S'S168'
p773
I0
I1
tp774
Rp775
(I3
S'|'
p776
NNNI168
I1
I0
tp777
bS'sportovanie, fotografovanie, cestovanie, turistika, citanie, pocuvanie hudby, chovatelstvo, kupalisko, varenie, priatelia, spanie, divadlo, nakupovanie, sex, stanovanie'
p778
tp779
Rp780
sg49
I0
sg50
I0
sg51
g12
(g13
(S'S2'
p781
I0
I1
tp782
Rp783
(I3
S'|'
p784
NNNI2
I1
I0
tp785
bS'23'
p786
tp787
Rp788
sg59
g12
(g13
(S'S29'
p789
I0
I1
tp790
Rp791
(I3
S'|'
p792
NNNI29
I1
I0
tp793
bS'stredoskolske, studujem na vs'
p794
tp795
Rp796
sg68
g12
(g13
(S'S167'
p797
I0
I1
tp798
Rp799
(I3
S'|'
p800
NNNI167
I1
I0
tp801
bS'pri svieckach s partnerom, v dobrej restauracii, v prirode, v posteli, z partnerovho bruska, ked mam klud a pohodu a je to jedlo ktore je koser s mojou delenou stravou'
p802
tp803
Rp804
sg77
g12
(g13
(S'S4'
p805
I0
I1
tp806
Rp807
(I3
S'|'
p808
NNNI4
I1
I0
tp809
bS'null'
p810
tp811
Rp812
sg86
g12
(g13
(S'S1'
p813
I0
I1
tp814
Rp815
(I3
S'|'
p816
NNNI1
I1
I0
tp817
bg164
tp818
Rp819
ssS'1202196'
p820
(dp821
g10
I0
sg11
g12
(g13
(S'S8'
p822
I0
I1
tp823
Rp824
(I3
S'|'
p825
NNNI8
I1
I0
tp826
bS'anglicky'
p827
tp828
Rp829
sg22
g12
(g13
(S'S1'
p830
I0
I1
tp831
Rp832
(I3
S'|'
p833
NNNI1
I1
I0
tp834
bg28
tp835
Rp836
sg31
g12
(g13
(S'S43'
p837
I0
I1
tp838
Rp839
(I3
S'|'
p840
NNNI43
I1
I0
tp841
bS'bratislavsky kraj, bratislava - karlova ves'
p842
tp843
Rp844
sg40
g12
(g13
(S'S27'
p845
I0
I1
tp846
Rp847
(I3
S'|'
p848
NNNI27
I1
I0
tp849
bS'sportovanie, priatelia, sex'
p850
tp851
Rp852
sg49
I0
sg50
I1
sg51
g12
(g13
(S'S1'
p853
I0
I1
tp854
Rp855
(I3
S'|'
p856
NNNI1
I1
I0
tp857
bg28
tp858
Rp859
sg59
g12
(g13
(S'S4'
p860
I0
I1
tp861
Rp862
(I3
S'|'
p863
NNNI4
I1
I0
tp864
bS'null'
p865
tp866
Rp867
sg68
g12
(g13
(S'S36'
p868
I0
I1
tp869
Rp870
(I3
S'|'
p871
NNNI36
I1
I0
tp872
bS'pri svieckach s partnerom, v posteli'
p873
tp874
Rp875
sg77
g12
(g13
(S'S4'
p876
I0
I1
tp877
Rp878
(I3
S'|'
p879
NNNI4
I1
I0
tp880
bS'null'
p881
tp882
Rp883
sg86
g12
(g13
(S'S1'
p884
I0
I1
tp885
Rp886
(I3
S'|'
p887
NNNI1
I1
I0
tp888
bg164
tp889
Rp890
ssS'773638'
p891
(dp892
g10
I0
sg11
g12
(g13
(S'S4'
p893
I0
I1
tp894
Rp895
(I3
S'|'
p896
NNNI4
I1
I0
tp897
bS'null'
p898
tp899
Rp900
sg22
g12
(g13
(S'S1'
p901
I0
I1
tp902
Rp903
(I3
S'|'
p904
NNNI1
I1
I0
tp905
bg28
tp906
Rp907
sg31
g12
(g13
(S'S43'
p908
I0
I1
tp909
Rp910
(I3
S'|'
p911
NNNI43
I1
I0
tp912
bS'bratislavsky kraj, bratislava - karlova ves'
p913
tp914
Rp915
sg40
g12
(g13
(S'S4'
p916
I0
I1
tp917
Rp918
(I3
S'|'
p919
NNNI4
I1
I0
tp920
bS'null'
p921
tp922
Rp923
sg49
I0
sg50
I0
sg51
g12
(g13
(S'S2'
p924
I0
I1
tp925
Rp926
(I3
S'|'
p927
NNNI2
I1
I0
tp928
bS'23'
p929
tp930
Rp931
sg59
g12
(g13
(S'S4'
p932
I0
I1
tp933
Rp934
(I3
S'|'
p935
NNNI4
I1
I0
tp936
bS'null'
p937
tp938
Rp939
sg68
g12
(g13
(S'S4'
p940
I0
I1
tp941
Rp942
(I3
S'|'
p943
NNNI4
I1
I0
tp944
bS'null'
p945
tp946
Rp947
sg77
g12
(g13
(S'S4'
p948
I0
I1
tp949
Rp950
(I3
S'|'
p951
NNNI4
I1
I0
tp952
bS'null'
p953
tp954
Rp955
sg86
g12
(g13
(S'S1'
p956
I0
I1
tp957
Rp958
(I3
S'|'
p959
NNNI1
I1
I0
tp960
bg164
tp961
Rp962
ssS'369322'
p963
(dp964
g10
I0
sg11
g12
(g13
(S'S4'
p965
I0
I1
tp966
Rp967
(I3
S'|'
p968
NNNI4
I1
I0
tp969
bS'null'
p970
tp971
Rp972
sg22
g12
(g13
(S'S1'
p973
I0
I1
tp974
Rp975
(I3
S'|'
p976
NNNI1
I1
I0
tp977
bg164
tp978
Rp979
sg31
g12
(g13
(S'S43'
p980
I0
I1
tp981
Rp982
(I3
S'|'
p983
NNNI43
I1
I0
tp984
bS'bratislavsky kraj, bratislava - karlova ves'
p985
tp986
Rp987
sg40
g12
(g13
(S'S4'
p988
I0
I1
tp989
Rp990
(I3
S'|'
p991
NNNI4
I1
I0
tp992
bS'null'
p993
tp994
Rp995
sg49
I0
sg50
I0
sg51
g12
(g13
(S'S2'
p996
I0
I1
tp997
Rp998
(I3
S'|'
p999
NNNI2
I1
I0
tp1000
bS'24'
p1001
tp1002
Rp1003
sg59
g12
(g13
(S'S4'
p1004
I0
I1
tp1005
Rp1006
(I3
S'|'
p1007
NNNI4
I1
I0
tp1008
bS'null'
p1009
tp1010
Rp1011
sg68
g12
(g13
(S'S42'
p1012
I0
I1
tp1013
Rp1014
(I3
S'|'
p1015
NNNI42
I1
I0
tp1016
bS'pri telke, v dobrej restauracii, v prirode'
p1017
tp1018
Rp1019
sg77
g12
(g13
(S'S4'
p1020
I0
I1
tp1021
Rp1022
(I3
S'|'
p1023
NNNI4
I1
I0
tp1024
bS'null'
p1025
tp1026
Rp1027
sg86
g12
(g13
(S'S1'
p1028
I0
I1
tp1029
Rp1030
(I3
S'|'
p1031
NNNI1
I1
I0
tp1032
bg164
tp1033
Rp1034
ssV773611
p1035
(dp1036
g10
I0
sg11
g12
(g13
(S'S20'
p1037
I0
I1
tp1038
Rp1039
(I3
S'|'
p1040
NNNI20
I1
I0
tp1041
bS'anglicky, francuzsky'
p1042
tp1043
Rp1044
sg22
g12
(g13
(S'S1'
p1045
I0
I1
tp1046
Rp1047
(I3
S'|'
p1048
NNNI1
I1
I0
tp1049
bg28
tp1050
Rp1051
sg31
g12
(g13
(S'S43'
p1052
I0
I1
tp1053
Rp1054
(I3
S'|'
p1055
NNNI43
I1
I0
tp1056
bS'bratislavsky kraj, bratislava - karlova ves'
p1057
tp1058
Rp1059
sg40
g12
(g13
(S'S66'
p1060
I0
I1
tp1061
Rp1062
(I3
S'|'
p1063
NNNI66
I1
I0
tp1064
bS'sportovanie, pocuvanie hudby, kino, priatelia, spanie, nakupovanie'
p1065
tp1066
Rp1067
sg49
I0
sg50
I1
sg51
g12
(g13
(S'S1'
p1068
I0
I1
tp1069
Rp1070
(I3
S'|'
p1071
NNNI1
I1
I0
tp1072
bg28
tp1073
Rp1074
sg59
g12
(g13
(S'S8'
p1075
I0
I1
tp1076
Rp1077
(I3
S'|'
p1078
NNNI8
I1
I0
tp1079
bS'zakladne'
p1080
tp1081
Rp1082
sg68
g12
(g13
(S'S20'
p1083
I0
I1
tp1084
Rp1085
(I3
S'|'
p1086
NNNI20
I1
I0
tp1087
bS'v dobrej restauracii'
p1088
tp1089
Rp1090
sg77
g12
(g13
(S'S4'
p1091
I0
I1
tp1092
Rp1093
(I3
S'|'
p1094
NNNI4
I1
I0
tp1095
bS'null'
p1096
tp1097
Rp1098
sg86
g12
(g13
(S'S1'
p1099
I0
I1
tp1100
Rp1101
(I3
S'|'
p1102
NNNI1
I1
I0
tp1103
bg28
tp1104
Rp1105
ssV277540
p1106
(dp1107
g10
I0
sg11
g12
(g13
(S'S8'
p1108
I0
I1
tp1109
Rp1110
(I3
S'|'
p1111
NNNI8
I1
I0
tp1112
bS'anglicky'
p1113
tp1114
Rp1115
sg22
g12
(g13
(S'S1'
p1116
I0
I1
tp1117
Rp1118
(I3
S'|'
p1119
NNNI1
I1
I0
tp1120
bg28
tp1121
Rp1122
sg31
g12
(g13
(S'S43'
p1123
I0
I1
tp1124
Rp1125
(I3
S'|'
p1126
NNNI43
I1
I0
tp1127
bS'bratislavsky kraj, bratislava - karlova ves'
p1128
tp1129
Rp1130
sg40
g12
(g13
(S'S111'
p1131
I0
I1
tp1132
Rp1133
(I3
S'|'
p1134
NNNI111
I1
I0
tp1135
bS'pocuvanie hudby, pozeranie filmov, tancovanie, kupalisko, varenie, kino, priatelia, nakupovanie, sex, diskoteky'
p1136
tp1137
Rp1138
sg49
I0
sg50
I1
sg51
g12
(g13
(S'S2'
p1139
I0
I1
tp1140
Rp1141
(I3
S'|'
p1142
NNNI2
I1
I0
tp1143
bS'20'
p1144
tp1145
Rp1146
sg59
g12
(g13
(S'S13'
p1147
I0
I1
tp1148
Rp1149
(I3
S'|'
p1150
NNNI13
I1
I0
tp1151
bS'stredoskolske'
p1152
tp1153
Rp1154
sg68
g12
(g13
(S'S69'
p1155
I0
I1
tp1156
Rp1157
(I3
S'|'
p1158
NNNI69
I1
I0
tp1159
bS'pri telke, pri svieckach s partnerom, v dobrej restauracii, v posteli'
p1160
tp1161
Rp1162
sg77
g12
(g13
(S'S4'
p1163
I0
I1
tp1164
Rp1165
(I3
S'|'
p1166
NNNI4
I1
I0
tp1167
bS'null'
p1168
tp1169
Rp1170
sg86
g12
(g13
(S'S1'
p1171
I0
I1
tp1172
Rp1173
(I3
S'|'
p1174
NNNI1
I1
I0
tp1175
bg164
tp1176
Rp1177
ssS'727534'
p1178
(dp1179
g10
I0
sg11
g12
(g13
(S'S166'
p1180
I0
I1
tp1181
Rp1182
(I3
S'|'
p1183
NNNI166
I1
I0
tp1184
bS'anglicky, teda aspon sa znazim ovladat, a v buducnosti by som cela vediet po spanielsky, po tom uz dlho tuzim...a samozrejme ako kazdy najlepsie ovladam svoj jazyk :p'
p1185
tp1186
Rp1187
sg22
g12
(g13
(S'S1'
p1188
I0
I1
tp1189
Rp1190
(I3
S'|'
p1191
NNNI1
I1
I0
tp1192
bg28
tp1193
Rp1194
sg31
g12
(g13
(S'S43'
p1195
I0
I1
tp1196
Rp1197
(I3
S'|'
p1198
NNNI43
I1
I0
tp1199
bS'bratislavsky kraj, bratislava - karlova ves'
p1200
tp1201
Rp1202
sg40
g12
(g13
(S'S222'
p1203
I0
I1
tp1204
Rp1205
(I3
S'|'
p1206
NNNI222
I1
I0
tp1207
bS'fotografovanie, cestovanie, praca s pc, surfovanie po webe, citanie, pocuvanie hudby, pozeranie filmov, malovanie, kupalisko, varenie, jedlo, kino, priatelia, spanie, nakupovanie, stanovanie, a samozrejme hudba a priatelia'
p1208
tp1209
Rp1210
sg49
I0
sg50
I0
sg51
g12
(g13
(S'S2'
p1211
I0
I1
tp1212
Rp1213
(I3
S'|'
p1214
NNNI2
I1
I0
tp1215
bS'20'
p1216
tp1217
Rp1218
sg59
g12
(g13
(S'S51'
p1219
I0
I1
tp1220
Rp1221
(I3
S'|'
p1222
NNNI51
I1
I0
tp1223
bS'zakladne, uz konecne ukoncene ale zakladka mi chyba'
p1224
tp1225
Rp1226
sg68
g12
(g13
(S'S104'
p1227
I0
I1
tp1228
Rp1229
(I3
S'|'
p1230
NNNI104
I1
I0
tp1231
bS'pri telke, pri svieckach s partnerom, v dobrej restauracii, v posteli, vlastne to je jedno, kdekolvek :)'
p1232
tp1233
Rp1234
sg77
g12
(g13
(S'S4'
p1235
I0
I1
tp1236
Rp1237
(I3
S'|'
p1238
NNNI4
I1
I0
tp1239
bS'null'
p1240
tp1241
Rp1242
sg86
g12
(g13
(S'S1'
p1243
I0
I1
tp1244
Rp1245
(I3
S'|'
p1246
NNNI1
I1
I0
tp1247
bg164
tp1248
Rp1249
ssV269161
p1250
(dp1251
g10
I0
sg11
g12
(g13
(S'S4'
p1252
I0
I1
tp1253
Rp1254
(I3
S'|'
p1255
NNNI4
I1
I0
tp1256
bS'null'
p1257
tp1258
Rp1259
sg22
g12
(g13
(S'S1'
p1260
I0
I1
tp1261
Rp1262
(I3
S'|'
p1263
NNNI1
I1
I0
tp1264
bg28
tp1265
Rp1266
sg31
g12
(g13
(S'S43'
p1267
I0
I1
tp1268
Rp1269
(I3
S'|'
p1270
NNNI43
I1
I0
tp1271
bS'bratislavsky kraj, bratislava - karlova ves'
p1272
tp1273
Rp1274
sg40
g12
(g13
(S'S4'
p1275
I0
I1
tp1276
Rp1277
(I3
S'|'
p1278
NNNI4
I1
I0
tp1279
bS'null'
p1280
tp1281
Rp1282
sg49
I0
sg50
I0
sg51
g12
(g13
(S'S1'
p1283
I0
I1
tp1284
Rp1285
(I3
S'|'
p1286
NNNI1
I1
I0
tp1287
bg28
tp1288
Rp1289
sg59
g12
(g13
(S'S4'
p1290
I0
I1
tp1291
Rp1292
(I3
S'|'
p1293
NNNI4
I1
I0
tp1294
bS'null'
p1295
tp1296
Rp1297
sg68
g12
(g13
(S'S5'
p1298
I0
I1
tp1299
Rp1300
(I3
S'|'
p1301
NNNI5
I1
I0
tp1302
bS'stale'
p1303
tp1304
Rp1305
sg77
g12
(g13
(S'S4'
p1306
I0
I1
tp1307
Rp1308
(I3
S'|'
p1309
NNNI4
I1
I0
tp1310
bS'null'
p1311
tp1312
Rp1313
sg86
g12
(g13
(S'S1'
p1314
I0
I1
tp1315
Rp1316
(I3
S'|'
p1317
NNNI1
I1
I0
tp1318
bg28
tp1319
Rp1320
ssS'827123'
p1321
(dp1322
g10
I0
sg11
g12
(g13
(S'S8'
p1323
I0
I1
tp1324
Rp1325
(I3
S'|'
p1326
NNNI8
I1
I0
tp1327
bS'anglicky'
p1328
tp1329
Rp1330
sg22
g12
(g13
(S'S1'
p1331
I0
I1
tp1332
Rp1333
(I3
S'|'
p1334
NNNI1
I1
I0
tp1335
bg164
tp1336
Rp1337
sg31
g12
(g13
(S'S43'
p1338
I0
I1
tp1339
Rp1340
(I3
S'|'
p1341
NNNI43
I1
I0
tp1342
bS'bratislavsky kraj, bratislava - karlova ves'
p1343
tp1344
Rp1345
sg40
g12
(g13
(S'S133'
p1346
I0
I1
tp1347
Rp1348
(I3
S'|'
p1349
NNNI133
I1
I0
tp1350
bS'pocuvanie hudby, kino, priatelia, sex, stanovanie, party, jedlo, pozeranie filmov, fotografovanie, turistika, cestovanie, sportovanie'
p1351
tp1352
Rp1353
sg49
I0
sg50
I1
sg51
g12
(g13
(S'S2'
p1354
I0
I1
tp1355
Rp1356
(I3
S'|'
p1357
NNNI2
I1
I0
tp1358
bS'22'
p1359
tp1360
Rp1361
sg59
g12
(g13
(S'S13'
p1362
I0
I1
tp1363
Rp1364
(I3
S'|'
p1365
NNNI13
I1
I0
tp1366
bS'stredoskolske'
p1367
tp1368
Rp1369
sg68
g12
(g13
(S'S8'
p1370
I0
I1
tp1371
Rp1372
(I3
S'|'
p1373
NNNI8
I1
I0
tp1374
bS'hoci kde'
p1375
tp1376
Rp1377
sg77
g12
(g13
(S'S4'
p1378
I0
I1
tp1379
Rp1380
(I3
S'|'
p1381
NNNI4
I1
I0
tp1382
bS'null'
p1383
tp1384
Rp1385
sg86
g12
(g13
(S'S1'
p1386
I0
I1
tp1387
Rp1388
(I3
S'|'
p1389
NNNI1
I1
I0
tp1390
bg164
tp1391
Rp1392
ssS'293326'
p1393
(dp1394
g10
I0
sg11
g12
(g13
(S'S60'
p1395
I0
I1
tp1396
Rp1397
(I3
S'|'
p1398
NNNI60
I1
I0
tp1399
bS'nemecky, teraz sa zacinam ucit anglicky a nieje to bohvie co'
p1400
tp1401
Rp1402
sg22
g12
(g13
(S'S1'
p1403
I0
I1
tp1404
Rp1405
(I3
S'|'
p1406
NNNI1
I1
I0
tp1407
bg28
tp1408
Rp1409
sg31
g12
(g13
(S'S43'
p1410
I0
I1
tp1411
Rp1412
(I3
S'|'
p1413
NNNI43
I1
I0
tp1414
bS'bratislavsky kraj, bratislava - karlova ves'
p1415
tp1416
Rp1417
sg40
g12
(g13
(S'S160'
p1418
I0
I1
tp1419
Rp1420
(I3
S'|'
p1421
NNNI160
I1
I0
tp1422
bS'sportovanie, cestovanie, pocuvanie hudby, pozeranie filmov, malovanie, tancovanie, diskoteky, kupalisko, jedlo, kino, party, priatelia, spanie, nakupovanie, sex'
p1423
tp1424
Rp1425
sg49
I0
sg50
I1
sg51
g12
(g13
(S'S2'
p1426
I0
I1
tp1427
Rp1428
(I3
S'|'
p1429
NNNI2
I1
I0
tp1430
bS'22'
p1431
tp1432
Rp1433
sg59
g12
(g13
(S'S13'
p1434
I0
I1
tp1435
Rp1436
(I3
S'|'
p1437
NNNI13
I1
I0
tp1438
bS'stredoskolske'
p1439
tp1440
Rp1441
sg68
g12
(g13
(S'S80'
p1442
I0
I1
tp1443
Rp1444
(I3
S'|'
p1445
NNNI80
I1
I0
tp1446
bS'pri svieckach s partnerom, v dobrej restauracii, v posteli, z partnerovho bruska'
p1447
tp1448
Rp1449
sg77
g12
(g13
(S'S4'
p1450
I0
I1
tp1451
Rp1452
(I3
S'|'
p1453
NNNI4
I1
I0
tp1454
bS'null'
p1455
tp1456
Rp1457
sg86
g12
(g13
(S'S1'
p1458
I0
I1
tp1459
Rp1460
(I3
S'|'
p1461
NNNI1
I1
I0
tp1462
bg164
tp1463
Rp1464
ssS'97522'
p1465
(dp1466
g10
I0
sg11
g12
(g13
(S'S4'
p1467
I0
I1
tp1468
Rp1469
(I3
S'|'
p1470
NNNI4
I1
I0
tp1471
bS'null'
p1472
tp1473
Rp1474
sg22
g12
(g13
(S'S1'
p1475
I0
I1
tp1476
Rp1477
(I3
S'|'
p1478
NNNI1
I1
I0
tp1479
bg28
tp1480
Rp1481
sg31
g12
(g13
(S'S43'
p1482
I0
I1
tp1483
Rp1484
(I3
S'|'
p1485
NNNI43
I1
I0
tp1486
bS'bratislavsky kraj, bratislava - karlova ves'
p1487
tp1488
Rp1489
sg40
g12
(g13
(S'S150'
p1490
I0
I1
tp1491
Rp1492
(I3
S'|'
p1493
NNNI150
I1
I0
tp1494
bS'neviem ci je to zaluba kedze som len zaciatocnik a ne vzdy je cas ale rada si zahram na djembe a ak je moznost rada si idem zajazdit na longboarde ...'
p1495
tp1496
Rp1497
sg49
I0
sg50
I0
sg51
g12
(g13
(S'S2'
p1498
I0
I1
tp1499
Rp1500
(I3
S'|'
p1501
NNNI2
I1
I0
tp1502
bS'23'
p1503
tp1504
Rp1505
sg59
g12
(g13
(S'S13'
p1506
I0
I1
tp1507
Rp1508
(I3
S'|'
p1509
NNNI13
I1
I0
tp1510
bS'stredoskolske'
p1511
tp1512
Rp1513
sg68
g12
(g13
(S'S35'
p1514
I0
I1
tp1515
Rp1516
(I3
S'|'
p1517
NNNI35
I1
I0
tp1518
bS'ked som hladna a idem sa najest ...'
p1519
tp1520
Rp1521
sg77
g12
(g13
(S'S4'
p1522
I0
I1
tp1523
Rp1524
(I3
S'|'
p1525
NNNI4
I1
I0
tp1526
bS'null'
p1527
tp1528
Rp1529
sg86
g12
(g13
(S'S1'
p1530
I0
I1
tp1531
Rp1532
(I3
S'|'
p1533
NNNI1
I1
I0
tp1534
bg28
tp1535
Rp1536
ssV16489
p1537
(dp1538
g10
I0
sg11
g12
(g13
(S'S16'
p1539
I0
I1
tp1540
Rp1541
(I3
S'|'
p1542
NNNI16
I1
I0
tp1543
bS'chorvatko, cesko'
p1544
tp1545
Rp1546
sg22
g12
(g13
(S'S1'
p1547
I0
I1
tp1548
Rp1549
(I3
S'|'
p1550
NNNI1
I1
I0
tp1551
bg164
tp1552
Rp1553
sg31
g12
(g13
(S'S43'
p1554
I0
I1
tp1555
Rp1556
(I3
S'|'
p1557
NNNI43
I1
I0
tp1558
bS'bratislavsky kraj, bratislava - karlova ves'
p1559
tp1560
Rp1561
sg40
g12
(g13
(S'S133'
p1562
I0
I1
tp1563
Rp1564
(I3
S'|'
p1565
NNNI133
I1
I0
tp1566
bS'fotografovanie, domace prace, praca s pc, pc hry, surfovanie po webe, pocuvanie hudby, pozeranie filmov, kino, sex, chodenie do muzei'
p1567
tp1568
Rp1569
sg49
I0
sg50
I0
sg51
g12
(g13
(S'S1'
p1570
I0
I1
tp1571
Rp1572
(I3
S'|'
p1573
NNNI1
I1
I0
tp1574
bg28
tp1575
Rp1576
sg59
g12
(g13
(S'S13'
p1577
I0
I1
tp1578
Rp1579
(I3
S'|'
p1580
NNNI13
I1
I0
tp1581
bS'stredoskolske'
p1582
tp1583
Rp1584
sg68
g12
(g13
(S'S31'
p1585
I0
I1
tp1586
Rp1587
(I3
S'|'
p1588
NNNI31
I1
I0
tp1589
bS'v dobrej restauracii, v prirode'
p1590
tp1591
Rp1592
sg77
g12
(g13
(S'S4'
p1593
I0
I1
tp1594
Rp1595
(I3
S'|'
p1596
NNNI4
I1
I0
tp1597
bS'null'
p1598
tp1599
Rp1600
sg86
g12
(g13
(S'S1'
p1601
I0
I1
tp1602
Rp1603
(I3
S'|'
p1604
NNNI1
I1
I0
tp1605
bg164
tp1606
Rp1607
ssg12
(g13
(S'S6'
p1608
I0
I1
tp1609
Rp1610
(I3
S'|'
p1611
NNNI6
I1
I0
tp1612
bS'292033'
p1613
tp1614
Rp1615
(dp1616
g10
I0
sg11
g12
(g13
(S'S27'
p1617
I0
I1
tp1618
Rp1619
(I3
S'|'
p1620
NNNI27
I1
I0
tp1621
bS'anglicky, little espanol =d'
p1622
tp1623
Rp1624
sg22
g12
(g13
(S'S1'
p1625
I0
I1
tp1626
Rp1627
(I3
S'|'
p1628
NNNI1
I1
I0
tp1629
bg28
tp1630
Rp1631
sg31
g12
(g13
(S'S43'
p1632
I0
I1
tp1633
Rp1634
(I3
S'|'
p1635
NNNI43
I1
I0
tp1636
bS'bratislavsky kraj, bratislava - karlova ves'
p1637
tp1638
Rp1639
sg40
g12
(g13
(S'S23'
p1640
I0
I1
tp1641
Rp1642
(I3
S'|'
p1643
NNNI23
I1
I0
tp1644
bS'ukecam sa na vselico =d'
p1645
tp1646
Rp1647
sg49
I1
sg50
I1
sg51
g12
(g13
(S'S1'
p1648
I0
I1
tp1649
Rp1650
(I3
S'|'
p1651
NNNI1
I1
I0
tp1652
bg28
tp1653
Rp1654
sg59
g12
(g13
(S'S52'
p1655
I0
I1
tp1656
Rp1657
(I3
S'|'
p1658
NNNI52
I1
I0
tp1659
bS'stredoskolske, ,,ale dufam ze ten bc bude coskoro :d'
p1660
tp1661
Rp1662
sg68
g12
(g13
(S'S4'
p1663
I0
I1
tp1664
Rp1665
(I3
S'|'
p1666
NNNI4
I1
I0
tp1667
bS'null'
p1668
tp1669
Rp1670
sg77
g12
(g13
(S'S4'
p1671
I0
I1
tp1672
Rp1673
(I3
S'|'
p1674
NNNI4
I1
I0
tp1675
bS'null'
p1676
tp1677
Rp1678
sg86
g12
(g13
(S'S1'
p1679
I0
I1
tp1680
Rp1681
(I3
S'|'
p1682
NNNI1
I1
I0
tp1683
bg164
tp1684
Rp1685
ssV281526
p1686
(dp1687
g10
I0
sg11
g12
(g13
(S'S8'
p1688
I0
I1
tp1689
Rp1690
(I3
S'|'
p1691
NNNI8
I1
I0
tp1692
bS'anglicky'
p1693
tp1694
Rp1695
sg22
g12
(g13
(S'S1'
p1696
I0
I1
tp1697
Rp1698
(I3
S'|'
p1699
NNNI1
I1
I0
tp1700
bg164
tp1701
Rp1702
sg31
g12
(g13
(S'S43'
p1703
I0
I1
tp1704
Rp1705
(I3
S'|'
p1706
NNNI43
I1
I0
tp1707
bS'bratislavsky kraj, bratislava - karlova ves'
p1708
tp1709
Rp1710
sg40
g12
(g13
(S'S75'
p1711
I0
I1
tp1712
Rp1713
(I3
S'|'
p1714
NNNI75
I1
I0
tp1715
bS'sportovanie, cestovanie, pc hry, surfovanie po webe, diskoteky, kino, party'
p1716
tp1717
Rp1718
sg49
I0
sg50
I1
sg51
g12
(g13
(S'S2'
p1719
I0
I1
tp1720
Rp1721
(I3
S'|'
p1722
NNNI2
I1
I0
tp1723
bS'23'
p1724
tp1725
Rp1726
sg59
g12
(g13
(S'S8'
p1727
I0
I1
tp1728
Rp1729
(I3
S'|'
p1730
NNNI8
I1
I0
tp1731
bS'zakladne'
p1732
tp1733
Rp1734
sg68
g12
(g13
(S'S4'
p1735
I0
I1
tp1736
Rp1737
(I3
S'|'
p1738
NNNI4
I1
I0
tp1739
bS'null'
p1740
tp1741
Rp1742
sg77
g12
(g13
(S'S4'
p1743
I0
I1
tp1744
Rp1745
(I3
S'|'
p1746
NNNI4
I1
I0
tp1747
bS'null'
p1748
tp1749
Rp1750
sg86
g12
(g13
(S'S1'
p1751
I0
I1
tp1752
Rp1753
(I3
S'|'
p1754
NNNI1
I1
I0
tp1755
bg164
tp1756
Rp1757
ssS'592208'
p1758
(dp1759
g10
I0
sg11
g12
(g13
(S'S8'
p1760
I0
I1
tp1761
Rp1762
(I3
S'|'
p1763
NNNI8
I1
I0
tp1764
bS'anglicky'
p1765
tp1766
Rp1767
sg22
g12
(g13
(S'S1'
p1768
I0
I1
tp1769
Rp1770
(I3
S'|'
p1771
NNNI1
I1
I0
tp1772
bg164
tp1773
Rp1774
sg31
g12
(g13
(S'S43'
p1775
I0
I1
tp1776
Rp1777
(I3
S'|'
p1778
NNNI43
I1
I0
tp1779
bS'bratislavsky kraj, bratislava - karlova ves'
p1780
tp1781
Rp1782
sg40
g12
(g13
(S'S258'
p1783
I0
I1
tp1784
Rp1785
(I3
S'|'
p1786
NNNI258
I1
I0
tp1787
bS'sportovanie, cestovanie, turistika, hackovanie, vysivanie, praca s pc, pc hry, citanie, pocuvanie hudby, pozeranie filmov, tancovanie, diskoteky, varenie, jedlo, party, priatelia, spanie, nakupovanie, sex, stanovanie, odblokovavanie a zablokovovanie mobilu:)'
p1788
tp1789
Rp1790
sg49
I0
sg50
I1
sg51
g12
(g13
(S'S2'
p1791
I0
I1
tp1792
Rp1793
(I3
S'|'
p1794
NNNI2
I1
I0
tp1795
bS'24'
p1796
tp1797
Rp1798
sg59
g12
(g13
(S'S8'
p1799
I0
I1
tp1800
Rp1801
(I3
S'|'
p1802
NNNI8
I1
I0
tp1803
bS'zakladne'
p1804
tp1805
Rp1806
sg68
g12
(g13
(S'S102'
p1807
I0
I1
tp1808
Rp1809
(I3
S'|'
p1810
NNNI102
I1
I0
tp1811
bS'pri telke, pri svieckach s partnerom, v dobrej restauracii, v prirode, v posteli, z partnerovho bruska'
p1812
tp1813
Rp1814
sg77
g12
(g13
(S'S4'
p1815
I0
I1
tp1816
Rp1817
(I3
S'|'
p1818
NNNI4
I1
I0
tp1819
bS'null'
p1820
tp1821
Rp1822
sg86
g12
(g13
(S'S1'
p1823
I0
I1
tp1824
Rp1825
(I3
S'|'
p1826
NNNI1
I1
I0
tp1827
bg164
tp1828
Rp1829
ssV1073054
p1830
(dp1831
g10
I0
sg11
g12
(g13
(S'S4'
p1832
I0
I1
tp1833
Rp1834
(I3
S'|'
p1835
NNNI4
I1
I0
tp1836
bS'null'
p1837
tp1838
Rp1839
sg22
g12
(g13
(S'S1'
p1840
I0
I1
tp1841
Rp1842
(I3
S'|'
p1843
NNNI1
I1
I0
tp1844
bg164
tp1845
Rp1846
sg31
g12
(g13
(S'S43'
p1847
I0
I1
tp1848
Rp1849
(I3
S'|'
p1850
NNNI43
I1
I0
tp1851
bS'bratislavsky kraj, bratislava - karlova ves'
p1852
tp1853
Rp1854
sg40
g12
(g13
(S'S4'
p1855
I0
I1
tp1856
Rp1857
(I3
S'|'
p1858
NNNI4
I1
I0
tp1859
bS'null'
p1860
tp1861
Rp1862
sg49
I0
sg50
I0
sg51
g12
(g13
(S'S1'
p1863
I0
I1
tp1864
Rp1865
(I3
S'|'
p1866
NNNI1
I1
I0
tp1867
bg28
tp1868
Rp1869
sg59
g12
(g13
(S'S4'
p1870
I0
I1
tp1871
Rp1872
(I3
S'|'
p1873
NNNI4
I1
I0
tp1874
bS'null'
p1875
tp1876
Rp1877
sg68
g12
(g13
(S'S4'
p1878
I0
I1
tp1879
Rp1880
(I3
S'|'
p1881
NNNI4
I1
I0
tp1882
bS'null'
p1883
tp1884
Rp1885
sg77
g12
(g13
(S'S4'
p1886
I0
I1
tp1887
Rp1888
(I3
S'|'
p1889
NNNI4
I1
I0
tp1890
bS'null'
p1891
tp1892
Rp1893
sg86
g12
(g13
(S'S1'
p1894
I0
I1
tp1895
Rp1896
(I3
S'|'
p1897
NNNI1
I1
I0
tp1898
bg164
tp1899
Rp1900
ssV77154
p1901
(dp1902
g10
I0
sg11
g12
(g13
(S'S4'
p1903
I0
I1
tp1904
Rp1905
(I3
S'|'
p1906
NNNI4
I1
I0
tp1907
bS'null'
p1908
tp1909
Rp1910
sg22
g12
(g13
(S'S1'
p1911
I0
I1
tp1912
Rp1913
(I3
S'|'
p1914
NNNI1
I1
I0
tp1915
bg164
tp1916
Rp1917
sg31
g12
(g13
(S'S43'
p1918
I0
I1
tp1919
Rp1920
(I3
S'|'
p1921
NNNI43
I1
I0
tp1922
bS'bratislavsky kraj, bratislava - karlova ves'
p1923
tp1924
Rp1925
sg40
g12
(g13
(S'S4'
p1926
I0
I1
tp1927
Rp1928
(I3
S'|'
p1929
NNNI4
I1
I0
tp1930
bS'null'
p1931
tp1932
Rp1933
sg49
I0
sg50
I1
sg51
g12
(g13
(S'S2'
p1934
I0
I1
tp1935
Rp1936
(I3
S'|'
p1937
NNNI2
I1
I0
tp1938
bS'23'
p1939
tp1940
Rp1941
sg59
g12
(g13
(S'S4'
p1942
I0
I1
tp1943
Rp1944
(I3
S'|'
p1945
NNNI4
I1
I0
tp1946
bS'null'
p1947
tp1948
Rp1949
sg68
g12
(g13
(S'S4'
p1950
I0
I1
tp1951
Rp1952
(I3
S'|'
p1953
NNNI4
I1
I0
tp1954
bS'null'
p1955
tp1956
Rp1957
sg77
g12
(g13
(S'S4'
p1958
I0
I1
tp1959
Rp1960
(I3
S'|'
p1961
NNNI4
I1
I0
tp1962
bS'null'
p1963
tp1964
Rp1965
sg86
g12
(g13
(S'S1'
p1966
I0
I1
tp1967
Rp1968
(I3
S'|'
p1969
NNNI1
I1
I0
tp1970
bg164
tp1971
Rp1972
ssS'290359'
p1973
(dp1974
g10
I0
sg11
g12
(g13
(S'S4'
p1975
I0
I1
tp1976
Rp1977
(I3
S'|'
p1978
NNNI4
I1
I0
tp1979
bS'null'
p1980
tp1981
Rp1982
sg22
g12
(g13
(S'S1'
p1983
I0
I1
tp1984
Rp1985
(I3
S'|'
p1986
NNNI1
I1
I0
tp1987
bg28
tp1988
Rp1989
sg31
g12
(g13
(S'S43'
p1990
I0
I1
tp1991
Rp1992
(I3
S'|'
p1993
NNNI43
I1
I0
tp1994
bS'bratislavsky kraj, bratislava - karlova ves'
p1995
tp1996
Rp1997
sg40
g12
(g13
(S'S4'
p1998
I0
I1
tp1999
Rp2000
(I3
S'|'
p2001
NNNI4
I1
I0
tp2002
bS'null'
p2003
tp2004
Rp2005
sg49
I0
sg50
I1
sg51
g12
(g13
(S'S2'
p2006
I0
I1
tp2007
Rp2008
(I3
S'|'
p2009
NNNI2
I1
I0
tp2010
bS'24'
p2011
tp2012
Rp2013
sg59
g12
(g13
(S'S4'
p2014
I0
I1
tp2015
Rp2016
(I3
S'|'
p2017
NNNI4
I1
I0
tp2018
bS'null'
p2019
tp2020
Rp2021
sg68
g12
(g13
(S'S20'
p2022
I0
I1
tp2023
Rp2024
(I3
S'|'
p2025
NNNI20
I1
I0
tp2026
bS'pri telke, v posteli'
p2027
tp2028
Rp2029
sg77
g12
(g13
(S'S4'
p2030
I0
I1
tp2031
Rp2032
(I3
S'|'
p2033
NNNI4
I1
I0
tp2034
bS'null'
p2035
tp2036
Rp2037
sg86
g12
(g13
(S'S1'
p2038
I0
I1
tp2039
Rp2040
(I3
S'|'
p2041
NNNI1
I1
I0
tp2042
bg164
tp2043
Rp2044
ssS'1012359'
p2045
(dp2046
g10
I0
sg11
g12
(g13
(S'S17'
p2047
I0
I1
tp2048
Rp2049
(I3
S'|'
p2050
NNNI17
I1
I0
tp2051
bS'anglicky, nemecky'
p2052
tp2053
Rp2054
sg22
g12
(g13
(S'S1'
p2055
I0
I1
tp2056
Rp2057
(I3
S'|'
p2058
NNNI1
I1
I0
tp2059
bg164
tp2060
Rp2061
sg31
g12
(g13
(S'S43'
p2062
I0
I1
tp2063
Rp2064
(I3
S'|'
p2065
NNNI43
I1
I0
tp2066
bS'bratislavsky kraj, bratislava - karlova ves'
p2067
tp2068
Rp2069
sg40
g12
(g13
(S'S87'
p2070
I0
I1
tp2071
Rp2072
(I3
S'|'
p2073
NNNI87
I1
I0
tp2074
bS'sportovanie, praca s pc, pozeranie filmov, kupalisko, varenie, sex, stanovanie, sex sex'
p2075
tp2076
Rp2077
sg49
I0
sg50
I0
sg51
g12
(g13
(S'S2'
p2078
I0
I1
tp2079
Rp2080
(I3
S'|'
p2081
NNNI2
I1
I0
tp2082
bS'24'
p2083
tp2084
Rp2085
sg59
g12
(g13
(S'S13'
p2086
I0
I1
tp2087
Rp2088
(I3
S'|'
p2089
NNNI13
I1
I0
tp2090
bS'stredoskolske'
p2091
tp2092
Rp2093
sg68
g12
(g13
(S'S64'
p2094
I0
I1
tp2095
Rp2096
(I3
S'|'
p2097
NNNI64
I1
I0
tp2098
bS'pri telke, v dobrej restauracii, v posteli, z partnerovho bruska'
p2099
tp2100
Rp2101
sg77
g12
(g13
(S'S4'
p2102
I0
I1
tp2103
Rp2104
(I3
S'|'
p2105
NNNI4
I1
I0
tp2106
bS'null'
p2107
tp2108
Rp2109
sg86
g12
(g13
(S'S1'
p2110
I0
I1
tp2111
Rp2112
(I3
S'|'
p2113
NNNI1
I1
I0
tp2114
bg164
tp2115
Rp2116
ssS'678851'
p2117
(dp2118
g10
I0
sg11
g12
(g13
(S'S28'
p2119
I0
I1
tp2120
Rp2121
(I3
S'|'
p2122
NNNI28
I1
I0
tp2123
bS'anglicky, nemecky, madarsky.'
p2124
tp2125
Rp2126
sg22
g12
(g13
(S'S1'
p2127
I0
I1
tp2128
Rp2129
(I3
S'|'
p2130
NNNI1
I1
I0
tp2131
bg164
tp2132
Rp2133
sg31
g12
(g13
(S'S43'
p2134
I0
I1
tp2135
Rp2136
(I3
S'|'
p2137
NNNI43
I1
I0
tp2138
bS'bratislavsky kraj, bratislava - karlova ves'
p2139
tp2140
Rp2141
sg40
g12
(g13
(S'S216'
p2142
I0
I1
tp2143
Rp2144
(I3
S'|'
p2145
NNNI216
I1
I0
tp2146
bS'sportovanie, cestovanie, praca s pc, pc hry, surfovanie po webe, pocuvanie hudby, pozeranie filmov, tancovanie, diskoteky, kupalisko, jedlo, kino, party, priatelia, spanie, divadlo, sex, hlavne priatelia,priatelky!!!'
p2147
tp2148
Rp2149
sg49
I0
sg50
I0
sg51
g12
(g13
(S'S1'
p2150
I0
I1
tp2151
Rp2152
(I3
S'|'
p2153
NNNI1
I1
I0
tp2154
bg28
tp2155
Rp2156
sg59
g12
(g13
(S'S8'
p2157
I0
I1
tp2158
Rp2159
(I3
S'|'
p2160
NNNI8
I1
I0
tp2161
bS'zakladne'
p2162
tp2163
Rp2164
sg68
g12
(g13
(S'S80'
p2165
I0
I1
tp2166
Rp2167
(I3
S'|'
p2168
NNNI80
I1
I0
tp2169
bS'pri telke, pri svieckach s partnerom, v dobrej restauracii, v prirode, v posteli'
p2170
tp2171
Rp2172
sg77
g12
(g13
(S'S4'
p2173
I0
I1
tp2174
Rp2175
(I3
S'|'
p2176
NNNI4
I1
I0
tp2177
bS'null'
p2178
tp2179
Rp2180
sg86
g12
(g13
(S'S1'
p2181
I0
I1
tp2182
Rp2183
(I3
S'|'
p2184
NNNI1
I1
I0
tp2185
bg164
tp2186
Rp2187
ssV1170272
p2188
(dp2189
g10
I0
sg11
g12
(g13
(S'S4'
p2190
I0
I1
tp2191
Rp2192
(I3
S'|'
p2193
NNNI4
I1
I0
tp2194
bS'null'
p2195
tp2196
Rp2197
sg22
g12
(g13
(S'S1'
p2198
I0
I1
tp2199
Rp2200
(I3
S'|'
p2201
NNNI1
I1
I0
tp2202
bg28
tp2203
Rp2204
sg31
g12
(g13
(S'S43'
p2205
I0
I1
tp2206
Rp2207
(I3
S'|'
p2208
NNNI43
I1
I0
tp2209
bS'bratislavsky kraj, bratislava - karlova ves'
p2210
tp2211
Rp2212
sg40
g12
(g13
(S'S4'
p2213
I0
I1
tp2214
Rp2215
(I3
S'|'
p2216
NNNI4
I1
I0
tp2217
bS'null'
p2218
tp2219
Rp2220
sg49
I0
sg50
I1
sg51
g12
(g13
(S'S2'
p2221
I0
I1
tp2222
Rp2223
(I3
S'|'
p2224
NNNI2
I1
I0
tp2225
bS'21'
p2226
tp2227
Rp2228
sg59
g12
(g13
(S'S4'
p2229
I0
I1
tp2230
Rp2231
(I3
S'|'
p2232
NNNI4
I1
I0
tp2233
bS'null'
p2234
tp2235
Rp2236
sg68
g12
(g13
(S'S4'
p2237
I0
I1
tp2238
Rp2239
(I3
S'|'
p2240
NNNI4
I1
I0
tp2241
bS'null'
p2242
tp2243
Rp2244
sg77
g12
(g13
(S'S4'
p2245
I0
I1
tp2246
Rp2247
(I3
S'|'
p2248
NNNI4
I1
I0
tp2249
bS'null'
p2250
tp2251
Rp2252
sg86
g12
(g13
(S'S1'
p2253
I0
I1
tp2254
Rp2255
(I3
S'|'
p2256
NNNI1
I1
I0
tp2257
bg164
tp2258
Rp2259
ssV718805
p2260
(dp2261
g10
I0
sg11
g12
(g13
(S'S4'
p2262
I0
I1
tp2263
Rp2264
(I3
S'|'
p2265
NNNI4
I1
I0
tp2266
bS'null'
p2267
tp2268
Rp2269
sg22
g12
(g13
(S'S1'
p2270
I0
I1
tp2271
Rp2272
(I3
S'|'
p2273
NNNI1
I1
I0
tp2274
bg28
tp2275
Rp2276
sg31
g12
(g13
(S'S43'
p2277
I0
I1
tp2278
Rp2279
(I3
S'|'
p2280
NNNI43
I1
I0
tp2281
bS'bratislavsky kraj, bratislava - karlova ves'
p2282
tp2283
Rp2284
sg40
g12
(g13
(S'S138'
p2285
I0
I1
tp2286
Rp2287
(I3
S'|'
p2288
NNNI138
I1
I0
tp2289
bS'fotografovanie, cestovanie, pocuvanie hudby, pozeranie filmov, tancovanie, diskoteky, varenie, kino, party, priatelia, spanie, nakupovanie'
p2290
tp2291
Rp2292
sg49
I0
sg50
I0
sg51
g12
(g13
(S'S2'
p2293
I0
I1
tp2294
Rp2295
(I3
S'|'
p2296
NNNI2
I1
I0
tp2297
bS'23'
p2298
tp2299
Rp2300
sg59
g12
(g13
(S'S4'
p2301
I0
I1
tp2302
Rp2303
(I3
S'|'
p2304
NNNI4
I1
I0
tp2305
bS'null'
p2306
tp2307
Rp2308
sg68
g12
(g13
(S'S69'
p2309
I0
I1
tp2310
Rp2311
(I3
S'|'
p2312
NNNI69
I1
I0
tp2313
bS'pri telke, pri svieckach s partnerom, v posteli, z partnerovho bruska'
p2314
tp2315
Rp2316
sg77
g12
(g13
(S'S4'
p2317
I0
I1
tp2318
Rp2319
(I3
S'|'
p2320
NNNI4
I1
I0
tp2321
bS'null'
p2322
tp2323
Rp2324
sg86
g12
(g13
(S'S1'
p2325
I0
I1
tp2326
Rp2327
(I3
S'|'
p2328
NNNI1
I1
I0
tp2329
bg28
tp2330
Rp2331
ssV612593
p2332
(dp2333
g10
I0
sg11
g12
(g13
(S'S4'
p2334
I0
I1
tp2335
Rp2336
(I3
S'|'
p2337
NNNI4
I1
I0
tp2338
bS'null'
p2339
tp2340
Rp2341
sg22
g12
(g13
(S'S1'
p2342
I0
I1
tp2343
Rp2344
(I3
S'|'
p2345
NNNI1
I1
I0
tp2346
bg164
tp2347
Rp2348
sg31
g12
(g13
(S'S43'
p2349
I0
I1
tp2350
Rp2351
(I3
S'|'
p2352
NNNI43
I1
I0
tp2353
bS'bratislavsky kraj, bratislava - karlova ves'
p2354
tp2355
Rp2356
sg40
g12
(g13
(S'S4'
p2357
I0
I1
tp2358
Rp2359
(I3
S'|'
p2360
NNNI4
I1
I0
tp2361
bS'null'
p2362
tp2363
Rp2364
sg49
I0
sg50
I1
sg51
g12
(g13
(S'S2'
p2365
I0
I1
tp2366
Rp2367
(I3
S'|'
p2368
NNNI2
I1
I0
tp2369
bS'22'
p2370
tp2371
Rp2372
sg59
g12
(g13
(S'S4'
p2373
I0
I1
tp2374
Rp2375
(I3
S'|'
p2376
NNNI4
I1
I0
tp2377
bS'null'
p2378
tp2379
Rp2380
sg68
g12
(g13
(S'S9'
p2381
I0
I1
tp2382
Rp2383
(I3
S'|'
p2384
NNNI9
I1
I0
tp2385
bS'pri telke'
p2386
tp2387
Rp2388
sg77
g12
(g13
(S'S4'
p2389
I0
I1
tp2390
Rp2391
(I3
S'|'
p2392
NNNI4
I1
I0
tp2393
bS'null'
p2394
tp2395
Rp2396
sg86
g12
(g13
(S'S1'
p2397
I0
I1
tp2398
Rp2399
(I3
S'|'
p2400
NNNI1
I1
I0
tp2401
bg164
tp2402
Rp2403
ssV49030
p2404
(dp2405
g10
I0
sg11
g12
(g13
(S'S17'
p2406
I0
I1
tp2407
Rp2408
(I3
S'|'
p2409
NNNI17
I1
I0
tp2410
bS'anglicky, nemecky'
p2411
tp2412
Rp2413
sg22
g12
(g13
(S'S1'
p2414
I0
I1
tp2415
Rp2416
(I3
S'|'
p2417
NNNI1
I1
I0
tp2418
bg164
tp2419
Rp2420
sg31
g12
(g13
(S'S43'
p2421
I0
I1
tp2422
Rp2423
(I3
S'|'
p2424
NNNI43
I1
I0
tp2425
bS'bratislavsky kraj, bratislava - karlova ves'
p2426
tp2427
Rp2428
sg40
g12
(g13
(S'S369'
p2429
I0
I1
tp2430
Rp2431
(I3
S'|'
p2432
NNNI369
I1
I0
tp2433
bS'sportovanie, fotografovanie, cestovanie, turistika, domace prace, sitie, prace v zahrade, prace okolo domu, praca s pc, pc hry, surfovanie po webe, citanie, pocuvanie hudby, pozeranie filmov, zberatelstvo, chovatelstvo, malovanie, tancovanie, diskoteky, kupalisko, varenie, jedlo, kino, party, priatelia, spanie, divadlo, nakupovanie, sex, stanovanie, chodenie do muzei'
p2434
tp2435
Rp2436
sg49
I0
sg50
I0
sg51
g12
(g13
(S'S2'
p2437
I0
I1
tp2438
Rp2439
(I3
S'|'
p2440
NNNI2
I1
I0
tp2441
bS'25'
p2442
tp2443
Rp2444
sg59
g12
(g13
(S'S13'
p2445
I0
I1
tp2446
Rp2447
(I3
S'|'
p2448
NNNI13
I1
I0
tp2449
bS'stredoskolske'
p2450
tp2451
Rp2452
sg68
g12
(g13
(S'S102'
p2453
I0
I1
tp2454
Rp2455
(I3
S'|'
p2456
NNNI102
I1
I0
tp2457
bS'pri telke, pri svieckach s partnerom, v dobrej restauracii, v prirode, v posteli, z partnerovho bruska'
p2458
tp2459
Rp2460
sg77
g12
(g13
(S'S4'
p2461
I0
I1
tp2462
Rp2463
(I3
S'|'
p2464
NNNI4
I1
I0
tp2465
bS'null'
p2466
tp2467
Rp2468
sg86
g12
(g13
(S'S1'
p2469
I0
I1
tp2470
Rp2471
(I3
S'|'
p2472
NNNI1
I1
I0
tp2473
bg164
tp2474
Rp2475
ssS'990475'
p2476
(dp2477
g10
I0
sg11
g12
(g13
(S'S4'
p2478
I0
I1
tp2479
Rp2480
(I3
S'|'
p2481
NNNI4
I1
I0
tp2482
bS'null'
p2483
tp2484
Rp2485
sg22
g12
(g13
(S'S1'
p2486
I0
I1
tp2487
Rp2488
(I3
S'|'
p2489
NNNI1
I1
I0
tp2490
bg28
tp2491
Rp2492
sg31
g12
(g13
(S'S43'
p2493
I0
I1
tp2494
Rp2495
(I3
S'|'
p2496
NNNI43
I1
I0
tp2497
bS'bratislavsky kraj, bratislava - karlova ves'
p2498
tp2499
Rp2500
sg40
g12
(g13
(S'S4'
p2501
I0
I1
tp2502
Rp2503
(I3
S'|'
p2504
NNNI4
I1
I0
tp2505
bS'null'
p2506
tp2507
Rp2508
sg49
I0
sg50
I0
sg51
g12
(g13
(S'S2'
p2509
I0
I1
tp2510
Rp2511
(I3
S'|'
p2512
NNNI2
I1
I0
tp2513
bS'21'
p2514
tp2515
Rp2516
sg59
g12
(g13
(S'S4'
p2517
I0
I1
tp2518
Rp2519
(I3
S'|'
p2520
NNNI4
I1
I0
tp2521
bS'null'
p2522
tp2523
Rp2524
sg68
g12
(g13
(S'S4'
p2525
I0
I1
tp2526
Rp2527
(I3
S'|'
p2528
NNNI4
I1
I0
tp2529
bS'null'
p2530
tp2531
Rp2532
sg77
g12
(g13
(S'S4'
p2533
I0
I1
tp2534
Rp2535
(I3
S'|'
p2536
NNNI4
I1
I0
tp2537
bS'null'
p2538
tp2539
Rp2540
sg86
g12
(g13
(S'S1'
p2541
I0
I1
tp2542
Rp2543
(I3
S'|'
p2544
NNNI1
I1
I0
tp2545
bg164
tp2546
Rp2547
ssS'293550'
p2548
(dp2549
g10
I0
sg11
g12
(g13
(S'S8'
p2550
I0
I1
tp2551
Rp2552
(I3
S'|'
p2553
NNNI8
I1
I0
tp2554
bS'anglicky'
p2555
tp2556
Rp2557
sg22
g12
(g13
(S'S1'
p2558
I0
I1
tp2559
Rp2560
(I3
S'|'
p2561
NNNI1
I1
I0
tp2562
bg164
tp2563
Rp2564
sg31
g12
(g13
(S'S43'
p2565
I0
I1
tp2566
Rp2567
(I3
S'|'
p2568
NNNI43
I1
I0
tp2569
bS'bratislavsky kraj, bratislava - karlova ves'
p2570
tp2571
Rp2572
sg40
g12
(g13
(S'S10'
p2573
I0
I1
tp2574
Rp2575
(I3
S'|'
p2576
NNNI10
I1
I0
tp2577
bS'stanovanie'
p2578
tp2579
Rp2580
sg49
I0
sg50
I0
sg51
g12
(g13
(S'S2'
p2581
I0
I1
tp2582
Rp2583
(I3
S'|'
p2584
NNNI2
I1
I0
tp2585
bS'24'
p2586
tp2587
Rp2588
sg59
g12
(g13
(S'S4'
p2589
I0
I1
tp2590
Rp2591
(I3
S'|'
p2592
NNNI4
I1
I0
tp2593
bS'null'
p2594
tp2595
Rp2596
sg68
g12
(g13
(S'S4'
p2597
I0
I1
tp2598
Rp2599
(I3
S'|'
p2600
NNNI4
I1
I0
tp2601
bS'null'
p2602
tp2603
Rp2604
sg77
g12
(g13
(S'S4'
p2605
I0
I1
tp2606
Rp2607
(I3
S'|'
p2608
NNNI4
I1
I0
tp2609
bS'null'
p2610
tp2611
Rp2612
sg86
g12
(g13
(S'S1'
p2613
I0
I1
tp2614
Rp2615
(I3
S'|'
p2616
NNNI1
I1
I0
tp2617
bg28
tp2618
Rp2619
ssV645439
p2620
(dp2621
g10
I0
sg11
g12
(g13
(S'S17'
p2622
I0
I1
tp2623
Rp2624
(I3
S'|'
p2625
NNNI17
I1
I0
tp2626
bS'anglicky, nemecky'
p2627
tp2628
Rp2629
sg22
g12
(g13
(S'S1'
p2630
I0
I1
tp2631
Rp2632
(I3
S'|'
p2633
NNNI1
I1
I0
tp2634
bg164
tp2635
Rp2636
sg31
g12
(g13
(S'S43'
p2637
I0
I1
tp2638
Rp2639
(I3
S'|'
p2640
NNNI43
I1
I0
tp2641
bS'bratislavsky kraj, bratislava - karlova ves'
p2642
tp2643
Rp2644
sg40
g12
(g13
(S'S83'
p2645
I0
I1
tp2646
Rp2647
(I3
S'|'
p2648
NNNI83
I1
I0
tp2649
bS'prace okolo domu, pc hry, pozeranie filmov, kupalisko, jedlo, stanovanie, priatelia'
p2650
tp2651
Rp2652
sg49
I0
sg50
I1
sg51
g12
(g13
(S'S2'
p2653
I0
I1
tp2654
Rp2655
(I3
S'|'
p2656
NNNI2
I1
I0
tp2657
bS'20'
p2658
tp2659
Rp2660
sg59
g12
(g13
(S'S13'
p2661
I0
I1
tp2662
Rp2663
(I3
S'|'
p2664
NNNI13
I1
I0
tp2665
bS'stredoskolske'
p2666
tp2667
Rp2668
sg68
g12
(g13
(S'S25'
p2669
I0
I1
tp2670
Rp2671
(I3
S'|'
p2672
NNNI25
I1
I0
tp2673
bS'pri svieckach s partnerom'
p2674
tp2675
Rp2676
sg77
g12
(g13
(S'S4'
p2677
I0
I1
tp2678
Rp2679
(I3
S'|'
p2680
NNNI4
I1
I0
tp2681
bS'null'
p2682
tp2683
Rp2684
sg86
g12
(g13
(S'S1'
p2685
I0
I1
tp2686
Rp2687
(I3
S'|'
p2688
NNNI1
I1
I0
tp2689
bg164
tp2690
Rp2691
sssS'node_dict_factory'
p2692
c__builtin__
dict
p2693
sS'edge_attr_dict_factory'
p2694
g2693
sS'edge'
p2695
(dp2696
g8
(dp2697
g599
(dp2698
sg1393
(dp2699
ssg94
(dp2700
g1901
(dp2701
sg2117
(dp2702
ssg1393
(dp2703
g8
g2699
sg2404
(dp2704
sg383
(dp2705
sg1537
(dp2706
ssg239
(dp2707
g1615
(dp2708
sg1758
(dp2709
sg2404
(dp2710
ssg311
(dp2711
g1973
(dp2712
ssg383
(dp2713
g2332
(dp2714
sg1393
g2705
sg2476
(dp2715
ssg455
(dp2716
g2332
(dp2717
sg167
(dp2718
ssg527
(dp2719
g1106
(dp2720
ssg599
(dp2721
V702935
p2722
g2698
sg2332
(dp2723
sg2476
(dp2724
sg2188
(dp2725
ssg670
(dp2726
g2045
(dp2727
sg1973
(dp2728
sg2620
(dp2729
ssg748
(dp2730
sg820
(dp2731
g1035
(dp2732
sg1686
(dp2733
sg1321
(dp2734
ssg891
(dp2735
g1615
(dp2736
sg1901
(dp2737
ssg963
(dp2738
g1615
(dp2739
ssg1035
(dp2740
g1321
(dp2741
sV1202196
p2742
g2732
sg1686
(dp2743
sg1901
(dp2744
ssg1106
(dp2745
g527
g2720
sg2404
(dp2746
sg2620
(dp2747
sg1321
(dp2748
ssg1178
(dp2749
g1901
(dp2750
ssg1250
(dp2751
g1615
(dp2752
sg1973
(dp2753
ssg1321
(dp2754
g1035
g2741
sV1202196
p2755
g2734
sV277540
p2756
g2748
sg2188
(dp2757
ssg167
(dp2758
g455
g2718
ssg1465
(dp2759
g1901
(dp2760
ssg1537
(dp2761
g1615
(dp2762
sg1393
g2706
sg1973
(dp2763
ssg1615
(dp2764
V16489
p2765
g2762
sV369322
p2766
g2739
sg1758
(dp2767
sV592159
p2768
g2708
sg1901
(dp2769
sV773638
p2770
g2736
sg2548
(dp2771
sg1250
g2752
ssg1686
(dp2772
S'773611'
p2773
g2743
sg820
g2733
ssg1758
(dp2774
V292033
p2775
g2767
sg1973
(dp2776
sV592159
p2777
g2709
sg2404
(dp2778
ssg1830
(dp2779
g1973
(dp2780
ssg1901
(dp2781
g1465
g2760
sg94
g2701
sg2260
(dp2782
sg891
g2737
sS'292033'
p2783
g2769
sg2773
g2744
sg1178
g2750
ssg1973
(dp2784
g1537
g2763
sV1126320
p2785
g2728
sV592208
p2786
g2776
sg1830
g2780
sV782944
p2787
g2712
sV269161
p2788
g2753
ssg2045
(dp2789
V1126320
p2790
g2727
ssg2117
(dp2791
V773686
p2792
g2702
ssg2188
(dp2793
g1321
g2757
sg599
g2725
ssg2260
(dp2794
V77154
p2795
g2782
ssg2332
(dp2796
g2476
(dp2797
sS'1123897'
p2798
g2723
sS'148320'
p2799
g2714
sg455
g2717
ssg2404
(dp2800
S'277540'
p2801
g2746
sg1393
g2704
sg1758
g2778
sV592159
p2802
g2710
ssg2476
(dp2803
V1123897
p2804
g2724
sV148320
p2805
g2715
sV612593
p2806
g2797
ssg2548
(dp2807
V292033
p2808
g2771
ssg2620
(dp2809
g670
g2729
sV277540
p2810
g2747
sssS'graph'
p2811
(dp2812
sS'adjlist_dict_factory'
p2813
g2693
sS'adj'
p2814
g2696
sb.