ccopy_reg
_reconstructor
p0
(cnetworkx.classes.graph
Graph
p1
c__builtin__
object
p2
Ntp3
Rp4
(dp5
S'node'
p6
(dp7
V218772
p8
(dp9
S'is_target'
p10
I0
sS'language'
p11
cnumpy.core.multiarray
scalar
p12
(cnumpy
dtype
p13
(S'S4'
p14
I0
I1
tp15
Rp16
(I3
S'|'
p17
NNNI4
I1
I0
tp18
bS'null'
p19
tp20
Rp21
sS'gender'
p22
g12
(g13
(S'S1'
p23
I0
I1
tp24
Rp25
(I3
S'|'
p26
NNNI1
I1
I0
tp27
bS'0'
p28
tp29
Rp30
sS'region'
p31
g12
(g13
(S'S43'
p32
I0
I1
tp33
Rp34
(I3
S'|'
p35
NNNI43
I1
I0
tp36
bS'bratislavsky kraj, bratislava - karlova ves'
p37
tp38
Rp39
sS'hobbies'
p40
g12
(g13
(S'S421'
p41
I0
I1
tp42
Rp43
(I3
S'|'
p44
NNNI421
I1
I0
tp45
bS'fotografovanie, surfovanie po webe, pocuvanie hudby, pozeranie filmov, chovatelstvo, malovanie, diskoteky, kupalisko, varenie, jedlo, kino, party, priatelia, spanie, divadlo, nakupovanie, sex, stanovanie, chodenie do muzei, spev vela spevu a este viac spevu spev je asi to jedine co ma momentalne drzi na nohach inak bvy som asi skoncila na psychiatrii a este najnovsie som segre robila na hlave kukuricu a podarila sa mi'
p46
tp47
Rp48
sS'is_start'
p49
I0
sS'public_rand'
p50
I0
sS'age'
p51
g12
(g13
(S'S2'
p52
I0
I1
tp53
Rp54
(I3
S'|'
p55
NNNI2
I1
I0
tp56
bS'25'
p57
tp58
Rp59
sS'comp_edu'
p60
g12
(g13
(S'S59'
p61
I0
I1
tp62
Rp63
(I3
S'|'
p64
NNNI59
I1
I0
tp65
bS'stredoskolske,  pedagogicka strednu skolu deticky traste sa'
p66
tp67
Rp68
sS'pets'
p69
g12
(g13
(S'S231'
p70
I0
I1
tp71
Rp72
(I3
S'|'
p73
NNNI231
I1
I0
tp74
bS'pri telke, pri svieckach s partnerom, v dobrej restauracii, v prirode, v posteli, z partnerovho bruska, vsade kde sa jedlo nachadza a da sa jest bez toho aby som tam bola sama nedokazem jest sama neznasam to celkovo neznasam samotu'
p75
tp76
Rp77
sS'edu'
p78
g12
(g13
(S'S4'
p79
I0
I1
tp80
Rp81
(I3
S'|'
p82
NNNI4
I1
I0
tp83
bS'null'
p84
tp85
Rp86
sS'public'
p87
g12
(g13
(S'S1'
p88
I0
I1
tp89
Rp90
(I3
S'|'
p91
NNNI1
I1
I0
tp92
bS'1'
p93
tp94
Rp95
ssV659012
p96
(dp97
g10
I0
sg11
g12
(g13
(S'S24'
p98
I0
I1
tp99
Rp100
(I3
S'|'
p101
NNNI24
I1
I0
tp102
bS'samozrejme, ze ten svoj.'
p103
tp104
Rp105
sg22
g12
(g13
(S'S1'
p106
I0
I1
tp107
Rp108
(I3
S'|'
p109
NNNI1
I1
I0
tp110
bg28
tp111
Rp112
sg31
g12
(g13
(S'S43'
p113
I0
I1
tp114
Rp115
(I3
S'|'
p116
NNNI43
I1
I0
tp117
bS'bratislavsky kraj, bratislava - karlova ves'
p118
tp119
Rp120
sg40
g12
(g13
(S'S172'
p121
I0
I1
tp122
Rp123
(I3
S'|'
p124
NNNI172
I1
I0
tp125
bS'stvaram take kadeco ako samopasne vyciny,steklim sochy v parku,myslim, ovoniavam kvety,bozkavam sa ,nosim nohavice,na vsetko sa divam len tak a vobec len tak si uzivam.....'
p126
tp127
Rp128
sg49
I0
sg50
I0
sg51
g12
(g13
(S'S1'
p129
I0
I1
tp130
Rp131
(I3
S'|'
p132
NNNI1
I1
I0
tp133
bg28
tp134
Rp135
sg60
g12
(g13
(S'S4'
p136
I0
I1
tp137
Rp138
(I3
S'|'
p139
NNNI4
I1
I0
tp140
bS'mam.'
p141
tp142
Rp143
sg69
g12
(g13
(S'S10'
p144
I0
I1
tp145
Rp146
(I3
S'|'
p147
NNNI10
I1
I0
tp148
bS'z taniera.'
p149
tp150
Rp151
sg78
g12
(g13
(S'S4'
p152
I0
I1
tp153
Rp154
(I3
S'|'
p155
NNNI4
I1
I0
tp156
bS'null'
p157
tp158
Rp159
sg87
g12
(g13
(S'S1'
p160
I0
I1
tp161
Rp162
(I3
S'|'
p163
NNNI1
I1
I0
tp164
bg28
tp165
Rp166
ssV292610
p167
(dp168
g10
I1
sg11
g12
(g13
(S'S4'
p169
I0
I1
tp170
Rp171
(I3
S'|'
p172
NNNI4
I1
I0
tp173
bS'null'
p174
tp175
Rp176
sg22
g12
(g13
(S'S1'
p177
I0
I1
tp178
Rp179
(I3
S'|'
p180
NNNI1
I1
I0
tp181
bg28
tp182
Rp183
sg31
g12
(g13
(S'S43'
p184
I0
I1
tp185
Rp186
(I3
S'|'
p187
NNNI43
I1
I0
tp188
bS'bratislavsky kraj, bratislava - karlova ves'
p189
tp190
Rp191
sg40
g12
(g13
(S'S48'
p192
I0
I1
tp193
Rp194
(I3
S'|'
p195
NNNI48
I1
I0
tp196
bS'fotografovanie, cestovanie,divadlo, sport, hudba'
p197
tp198
Rp199
sg49
I0
sg50
I0
sg51
g12
(g13
(S'S2'
p200
I0
I1
tp201
Rp202
(I3
S'|'
p203
NNNI2
I1
I0
tp204
bS'26'
p205
tp206
Rp207
sg60
g12
(g13
(S'S4'
p208
I0
I1
tp209
Rp210
(I3
S'|'
p211
NNNI4
I1
I0
tp212
bS'null'
p213
tp214
Rp215
sg69
g12
(g13
(S'S4'
p216
I0
I1
tp217
Rp218
(I3
S'|'
p219
NNNI4
I1
I0
tp220
bS'null'
p221
tp222
Rp223
sg78
g12
(g13
(S'S4'
p224
I0
I1
tp225
Rp226
(I3
S'|'
p227
NNNI4
I1
I0
tp228
bS'null'
p229
tp230
Rp231
sg87
g12
(g13
(S'S1'
p232
I0
I1
tp233
Rp234
(I3
S'|'
p235
NNNI1
I1
I0
tp236
bg28
tp237
Rp238
ssV659840
p239
(dp240
g10
I0
sg11
g12
(g13
(S'S4'
p241
I0
I1
tp242
Rp243
(I3
S'|'
p244
NNNI4
I1
I0
tp245
bS'null'
p246
tp247
Rp248
sg22
g12
(g13
(S'S1'
p249
I0
I1
tp250
Rp251
(I3
S'|'
p252
NNNI1
I1
I0
tp253
bg93
tp254
Rp255
sg31
g12
(g13
(S'S43'
p256
I0
I1
tp257
Rp258
(I3
S'|'
p259
NNNI43
I1
I0
tp260
bS'bratislavsky kraj, bratislava - karlova ves'
p261
tp262
Rp263
sg40
g12
(g13
(S'S157'
p264
I0
I1
tp265
Rp266
(I3
S'|'
p267
NNNI157
I1
I0
tp268
bS'fotografovanie, cestovanie, praca s pc, surfovanie po webe, pocuvanie hudby, pozeranie filmov, kupalisko, jedlo, party, priatelia, spanie, nakupovanie, sex..'
p269
tp270
Rp271
sg49
I0
sg50
I0
sg51
g12
(g13
(S'S2'
p272
I0
I1
tp273
Rp274
(I3
S'|'
p275
NNNI2
I1
I0
tp276
bS'26'
p277
tp278
Rp279
sg60
g12
(g13
(S'S4'
p280
I0
I1
tp281
Rp282
(I3
S'|'
p283
NNNI4
I1
I0
tp284
bS'null'
p285
tp286
Rp287
sg69
g12
(g13
(S'S36'
p288
I0
I1
tp289
Rp290
(I3
S'|'
p291
NNNI36
I1
I0
tp292
bS'pri svieckach s partnerom, v posteli'
p293
tp294
Rp295
sg78
g12
(g13
(S'S4'
p296
I0
I1
tp297
Rp298
(I3
S'|'
p299
NNNI4
I1
I0
tp300
bS'null'
p301
tp302
Rp303
sg87
g12
(g13
(S'S1'
p304
I0
I1
tp305
Rp306
(I3
S'|'
p307
NNNI1
I1
I0
tp308
bg28
tp309
Rp310
ssV718797
p311
(dp312
g10
I0
sg11
g12
(g13
(S'S19'
p313
I0
I1
tp314
Rp315
(I3
S'|'
p316
NNNI19
I1
I0
tp317
bS'???predsa svoj, ci?'
p318
tp319
Rp320
sg22
g12
(g13
(S'S1'
p321
I0
I1
tp322
Rp323
(I3
S'|'
p324
NNNI1
I1
I0
tp325
bg28
tp326
Rp327
sg31
g12
(g13
(S'S43'
p328
I0
I1
tp329
Rp330
(I3
S'|'
p331
NNNI43
I1
I0
tp332
bS'bratislavsky kraj, bratislava - karlova ves'
p333
tp334
Rp335
sg40
g12
(g13
(S'S171'
p336
I0
I1
tp337
Rp338
(I3
S'|'
p339
NNNI171
I1
I0
tp340
bS'priroda,, cestovanie, sportovanie, domace prace, tancovanie, kupalisko, spanie, nakupovanie, sex, priatelia, varenie, diskoteky, pocuvanie hudby, turistika, fotografovanie'
p341
tp342
Rp343
sg49
I0
sg50
I0
sg51
g12
(g13
(S'S1'
p344
I0
I1
tp345
Rp346
(I3
S'|'
p347
NNNI1
I1
I0
tp348
bg28
tp349
Rp350
sg60
g12
(g13
(S'S24'
p351
I0
I1
tp352
Rp353
(I3
S'|'
p354
NNNI24
I1
I0
tp355
bS'materska skolka... :-)))'
p356
tp357
Rp358
sg69
g12
(g13
(S'S4'
p359
I0
I1
tp360
Rp361
(I3
S'|'
p362
NNNI4
I1
I0
tp363
bS'null'
p364
tp365
Rp366
sg78
g12
(g13
(S'S4'
p367
I0
I1
tp368
Rp369
(I3
S'|'
p370
NNNI4
I1
I0
tp371
bS'null'
p372
tp373
Rp374
sg87
g12
(g13
(S'S1'
p375
I0
I1
tp376
Rp377
(I3
S'|'
p378
NNNI1
I1
I0
tp379
bg93
tp380
Rp381
ssg12
(g13
(S'S6'
p382
I0
I1
tp383
Rp384
(I3
S'|'
p385
NNNI6
I1
I0
tp386
bS'659996'
p387
tp388
Rp389
(dp390
g10
I0
sg11
g12
(g13
(S'S47'
p391
I0
I1
tp392
Rp393
(I3
S'|'
p394
NNNI47
I1
I0
tp395
bS'iba ten svoj   :o)))) farba zalezi od lizatka .'
p396
tp397
Rp398
sg22
g12
(g13
(S'S1'
p399
I0
I1
tp400
Rp401
(I3
S'|'
p402
NNNI1
I1
I0
tp403
bg93
tp404
Rp405
sg31
g12
(g13
(S'S43'
p406
I0
I1
tp407
Rp408
(I3
S'|'
p409
NNNI43
I1
I0
tp410
bS'bratislavsky kraj, bratislava - karlova ves'
p411
tp412
Rp413
sg40
g12
(g13
(S'S118'
p414
I0
I1
tp415
Rp416
(I3
S'|'
p417
NNNI118
I1
I0
tp418
bS'cestovanie, praca s pc, pocuvanie hudby, pozeranie filmov, party, priatelia, nakupovanie, staci mi brat a prachovka :d'
p419
tp420
Rp421
sg49
I1
sg50
I1
sg51
g12
(g13
(S'S2'
p422
I0
I1
tp423
Rp424
(I3
S'|'
p425
NNNI2
I1
I0
tp426
bS'25'
p427
tp428
Rp429
sg60
g12
(g13
(S'S63'
p430
I0
I1
tp431
Rp432
(I3
S'|'
p433
NNNI63
I1
I0
tp434
bS'ucnovske, &#43; barmansky kurz a barmansky freestylovy kurz :-d'
p435
tp436
Rp437
sg69
g12
(g13
(S'S100'
p438
I0
I1
tp439
Rp440
(I3
S'|'
p441
NNNI100
I1
I0
tp442
bS'z partnerovho bruska, ale taka  osobna soferka z bruchom ako servirovaci stolik je super predstava .'
p443
tp444
Rp445
sg78
g12
(g13
(S'S4'
p446
I0
I1
tp447
Rp448
(I3
S'|'
p449
NNNI4
I1
I0
tp450
bS'null'
p451
tp452
Rp453
sg87
g12
(g13
(S'S1'
p454
I0
I1
tp455
Rp456
(I3
S'|'
p457
NNNI1
I1
I0
tp458
bg93
tp459
Rp460
ssV942627
p461
(dp462
g10
I0
sg11
g12
(g13
(S'S4'
p463
I0
I1
tp464
Rp465
(I3
S'|'
p466
NNNI4
I1
I0
tp467
bS'null'
p468
tp469
Rp470
sg22
g12
(g13
(S'S1'
p471
I0
I1
tp472
Rp473
(I3
S'|'
p474
NNNI1
I1
I0
tp475
bg93
tp476
Rp477
sg31
g12
(g13
(S'S43'
p478
I0
I1
tp479
Rp480
(I3
S'|'
p481
NNNI43
I1
I0
tp482
bS'bratislavsky kraj, bratislava - karlova ves'
p483
tp484
Rp485
sg40
g12
(g13
(S'S4'
p486
I0
I1
tp487
Rp488
(I3
S'|'
p489
NNNI4
I1
I0
tp490
bS'null'
p491
tp492
Rp493
sg49
I0
sg50
I1
sg51
g12
(g13
(S'S2'
p494
I0
I1
tp495
Rp496
(I3
S'|'
p497
NNNI2
I1
I0
tp498
bS'24'
p499
tp500
Rp501
sg60
g12
(g13
(S'S4'
p502
I0
I1
tp503
Rp504
(I3
S'|'
p505
NNNI4
I1
I0
tp506
bS'null'
p507
tp508
Rp509
sg69
g12
(g13
(S'S4'
p510
I0
I1
tp511
Rp512
(I3
S'|'
p513
NNNI4
I1
I0
tp514
bS'null'
p515
tp516
Rp517
sg78
g12
(g13
(S'S4'
p518
I0
I1
tp519
Rp520
(I3
S'|'
p521
NNNI4
I1
I0
tp522
bS'null'
p523
tp524
Rp525
sg87
g12
(g13
(S'S1'
p526
I0
I1
tp527
Rp528
(I3
S'|'
p529
NNNI1
I1
I0
tp530
bg93
tp531
Rp532
ssV593617
p533
(dp534
g10
I0
sg11
g12
(g13
(S'S44'
p535
I0
I1
tp536
Rp537
(I3
S'|'
p538
NNNI44
I1
I0
tp539
bS'anglicky, tak nejake tie zaklady tam budu.:)'
p540
tp541
Rp542
sg22
g12
(g13
(S'S1'
p543
I0
I1
tp544
Rp545
(I3
S'|'
p546
NNNI1
I1
I0
tp547
bg28
tp548
Rp549
sg31
g12
(g13
(S'S43'
p550
I0
I1
tp551
Rp552
(I3
S'|'
p553
NNNI43
I1
I0
tp554
bS'bratislavsky kraj, bratislava - karlova ves'
p555
tp556
Rp557
sg40
g12
(g13
(S'S41'
p558
I0
I1
tp559
Rp560
(I3
S'|'
p561
NNNI41
I1
I0
tp562
bS'zdielam s mojimi priatelmi....to je jedno'
p563
tp564
Rp565
sg49
I0
sg50
I0
sg51
g12
(g13
(S'S2'
p566
I0
I1
tp567
Rp568
(I3
S'|'
p569
NNNI2
I1
I0
tp570
bS'25'
p571
tp572
Rp573
sg60
g12
(g13
(S'S16'
p574
I0
I1
tp575
Rp576
(I3
S'|'
p577
NNNI16
I1
I0
tp578
bS'stredoskolske, .'
p579
tp580
Rp581
sg69
g12
(g13
(S'S22'
p582
I0
I1
tp583
Rp584
(I3
S'|'
p585
NNNI22
I1
I0
tp586
bS'ked som hladnaaa...;))'
p587
tp588
Rp589
sg78
g12
(g13
(S'S4'
p590
I0
I1
tp591
Rp592
(I3
S'|'
p593
NNNI4
I1
I0
tp594
bS'null'
p595
tp596
Rp597
sg87
g12
(g13
(S'S1'
p598
I0
I1
tp599
Rp600
(I3
S'|'
p601
NNNI1
I1
I0
tp602
bg93
tp603
Rp604
ssS'1128333'
p605
(dp606
g10
I0
sg11
g12
(g13
(S'S4'
p607
I0
I1
tp608
Rp609
(I3
S'|'
p610
NNNI4
I1
I0
tp611
bS'null'
p612
tp613
Rp614
sg22
g12
(g13
(S'S1'
p615
I0
I1
tp616
Rp617
(I3
S'|'
p618
NNNI1
I1
I0
tp619
bg93
tp620
Rp621
sg31
g12
(g13
(S'S43'
p622
I0
I1
tp623
Rp624
(I3
S'|'
p625
NNNI43
I1
I0
tp626
bS'bratislavsky kraj, bratislava - karlova ves'
p627
tp628
Rp629
sg40
g12
(g13
(S'S4'
p630
I0
I1
tp631
Rp632
(I3
S'|'
p633
NNNI4
I1
I0
tp634
bS'null'
p635
tp636
Rp637
sg49
I0
sg50
I0
sg51
g12
(g13
(S'S1'
p638
I0
I1
tp639
Rp640
(I3
S'|'
p641
NNNI1
I1
I0
tp642
bg28
tp643
Rp644
sg60
g12
(g13
(S'S4'
p645
I0
I1
tp646
Rp647
(I3
S'|'
p648
NNNI4
I1
I0
tp649
bS'null'
p650
tp651
Rp652
sg69
g12
(g13
(S'S4'
p653
I0
I1
tp654
Rp655
(I3
S'|'
p656
NNNI4
I1
I0
tp657
bS'null'
p658
tp659
Rp660
sg78
g12
(g13
(S'S4'
p661
I0
I1
tp662
Rp663
(I3
S'|'
p664
NNNI4
I1
I0
tp665
bS'null'
p666
tp667
Rp668
sg87
g12
(g13
(S'S1'
p669
I0
I1
tp670
Rp671
(I3
S'|'
p672
NNNI1
I1
I0
tp673
bg28
tp674
Rp675
sssS'node_dict_factory'
p676
c__builtin__
dict
p677
sS'edge_attr_dict_factory'
p678
g677
sS'edge'
p679
(dp680
g8
(dp681
g389
(dp682
sg533
(dp683
sg167
(dp684
ssg96
(dp685
g389
(dp686
ssg167
(dp687
S'218772'
p688
g684
sg389
(dp689
sg533
(dp690
ssg239
(dp691
g389
(dp692
ssg311
(dp693
g389
(dp694
ssg389
(dp695
g8
g682
sg96
g686
sg167
g689
sg239
g692
sg311
g694
sg461
(dp696
sg533
(dp697
sg605
(dp698
ssg461
(dp699
S'659996'
p700
g696
ssg533
(dp701
g688
g683
sg700
g697
sV292610
p702
g690
ssg605
(dp703
V659996
p704
g698
sssS'graph'
p705
(dp706
sS'adjlist_dict_factory'
p707
g677
sS'adj'
p708
g680
sb.