ccopy_reg
_reconstructor
p0
(cnetworkx.classes.graph
Graph
p1
c__builtin__
object
p2
Ntp3
Rp4
(dp5
S'node'
p6
(dp7
cnumpy.core.multiarray
scalar
p8
(cnumpy
dtype
p9
(S'S6'
p10
I0
I1
tp11
Rp12
(I3
S'|'
p13
NNNI6
I1
I0
tp14
bS'609674'
p15
tp16
Rp17
(dp18
S'is_target'
p19
I0
sS'language'
p20
g8
(g9
(S'S4'
p21
I0
I1
tp22
Rp23
(I3
S'|'
p24
NNNI4
I1
I0
tp25
bS'null'
p26
tp27
Rp28
sS'gender'
p29
g8
(g9
(S'S1'
p30
I0
I1
tp31
Rp32
(I3
S'|'
p33
NNNI1
I1
I0
tp34
bS'0'
p35
tp36
Rp37
sS'region'
p38
g8
(g9
(S'S43'
p39
I0
I1
tp40
Rp41
(I3
S'|'
p42
NNNI43
I1
I0
tp43
bS'bratislavsky kraj, bratislava - karlova ves'
p44
tp45
Rp46
sS'hobbies'
p47
g8
(g9
(S'S145'
p48
I0
I1
tp49
Rp50
(I3
S'|'
p51
NNNI145
I1
I0
tp52
bS'sportovanie, fotografovanie, cestovanie, surfovanie po webe, citanie, pocuvanie hudby, pozeranie filmov, tancovanie, kupalisko, priatelia, spanie'
p53
tp54
Rp55
sS'is_start'
p56
I1
sS'public_rand'
p57
I1
sS'age'
p58
g8
(g9
(S'S2'
p59
I0
I1
tp60
Rp61
(I3
S'|'
p62
NNNI2
I1
I0
tp63
bS'24'
p64
tp65
Rp66
sS'comp_edu'
p67
g8
(g9
(S'S26'
p68
I0
I1
tp69
Rp70
(I3
S'|'
p71
NNNI26
I1
I0
tp72
bS'stredoskolske, s maturitou'
p73
tp74
Rp75
sS'pets'
p76
g8
(g9
(S'S4'
p77
I0
I1
tp78
Rp79
(I3
S'|'
p80
NNNI4
I1
I0
tp81
bS'null'
p82
tp83
Rp84
sS'edu'
p85
g8
(g9
(S'S4'
p86
I0
I1
tp87
Rp88
(I3
S'|'
p89
NNNI4
I1
I0
tp90
bS'null'
p91
tp92
Rp93
sS'public'
p94
g8
(g9
(S'S1'
p95
I0
I1
tp96
Rp97
(I3
S'|'
p98
NNNI1
I1
I0
tp99
bS'1'
p100
tp101
Rp102
ssS'228258'
p103
(dp104
g19
I1
sg20
g8
(g9
(S'S8'
p105
I0
I1
tp106
Rp107
(I3
S'|'
p108
NNNI8
I1
I0
tp109
bS'anglicky'
p110
tp111
Rp112
sg29
g8
(g9
(S'S1'
p113
I0
I1
tp114
Rp115
(I3
S'|'
p116
NNNI1
I1
I0
tp117
bg100
tp118
Rp119
sg38
g8
(g9
(S'S43'
p120
I0
I1
tp121
Rp122
(I3
S'|'
p123
NNNI43
I1
I0
tp124
bS'bratislavsky kraj, bratislava - karlova ves'
p125
tp126
Rp127
sg47
g8
(g9
(S'S117'
p128
I0
I1
tp129
Rp130
(I3
S'|'
p131
NNNI117
I1
I0
tp132
bS'sportovanie, cestovanie, praca s pc, surfovanie po webe, pocuvanie hudby, pozeranie filmov, kupalisko, sex, turistika'
p133
tp134
Rp135
sg56
I0
sg57
I0
sg58
g8
(g9
(S'S2'
p136
I0
I1
tp137
Rp138
(I3
S'|'
p139
NNNI2
I1
I0
tp140
bS'25'
p141
tp142
Rp143
sg67
g8
(g9
(S'S13'
p144
I0
I1
tp145
Rp146
(I3
S'|'
p147
NNNI13
I1
I0
tp148
bS'stredoskolske'
p149
tp150
Rp151
sg76
g8
(g9
(S'S42'
p152
I0
I1
tp153
Rp154
(I3
S'|'
p155
NNNI42
I1
I0
tp156
bS'pri telke, v dobrej restauracii, v posteli'
p157
tp158
Rp159
sg85
g8
(g9
(S'S4'
p160
I0
I1
tp161
Rp162
(I3
S'|'
p163
NNNI4
I1
I0
tp164
bS'null'
p165
tp166
Rp167
sg94
g8
(g9
(S'S1'
p168
I0
I1
tp169
Rp170
(I3
S'|'
p171
NNNI1
I1
I0
tp172
bg100
tp173
Rp174
ssS'530936'
p175
(dp176
g19
I0
sg20
g8
(g9
(S'S17'
p177
I0
I1
tp178
Rp179
(I3
S'|'
p180
NNNI17
I1
I0
tp181
bS'anglicky, nemecky'
p182
tp183
Rp184
sg29
g8
(g9
(S'S1'
p185
I0
I1
tp186
Rp187
(I3
S'|'
p188
NNNI1
I1
I0
tp189
bg100
tp190
Rp191
sg38
g8
(g9
(S'S43'
p192
I0
I1
tp193
Rp194
(I3
S'|'
p195
NNNI43
I1
I0
tp196
bS'bratislavsky kraj, bratislava - karlova ves'
p197
tp198
Rp199
sg47
g8
(g9
(S'S56'
p200
I0
I1
tp201
Rp202
(I3
S'|'
p203
NNNI56
I1
I0
tp204
bS'sportovanie, cestovanie, turistika, varenie, nakupovanie'
p205
tp206
Rp207
sg56
I0
sg57
I0
sg58
g8
(g9
(S'S2'
p208
I0
I1
tp209
Rp210
(I3
S'|'
p211
NNNI2
I1
I0
tp212
bS'28'
p213
tp214
Rp215
sg67
g8
(g9
(S'S25'
p216
I0
I1
tp217
Rp218
(I3
S'|'
p219
NNNI25
I1
I0
tp220
bS'bakalarske, vysokoskolske'
p221
tp222
Rp223
sg76
g8
(g9
(S'S9'
p224
I0
I1
tp225
Rp226
(I3
S'|'
p227
NNNI9
I1
I0
tp228
bS'pri telke'
p229
tp230
Rp231
sg85
g8
(g9
(S'S4'
p232
I0
I1
tp233
Rp234
(I3
S'|'
p235
NNNI4
I1
I0
tp236
bS'null'
p237
tp238
Rp239
sg94
g8
(g9
(S'S1'
p240
I0
I1
tp241
Rp242
(I3
S'|'
p243
NNNI1
I1
I0
tp244
bg100
tp245
Rp246
ssV649246
p247
(dp248
g19
I0
sg20
g8
(g9
(S'S4'
p249
I0
I1
tp250
Rp251
(I3
S'|'
p252
NNNI4
I1
I0
tp253
bS'null'
p254
tp255
Rp256
sg29
g8
(g9
(S'S1'
p257
I0
I1
tp258
Rp259
(I3
S'|'
p260
NNNI1
I1
I0
tp261
bg100
tp262
Rp263
sg38
g8
(g9
(S'S43'
p264
I0
I1
tp265
Rp266
(I3
S'|'
p267
NNNI43
I1
I0
tp268
bS'bratislavsky kraj, bratislava - karlova ves'
p269
tp270
Rp271
sg47
g8
(g9
(S'S151'
p272
I0
I1
tp273
Rp274
(I3
S'|'
p275
NNNI151
I1
I0
tp276
bS'sportovanie, fotografovanie, cestovanie, turistika, praca s pc, pc hry, citanie, pozeranie filmov, priatelia, nakupovanie, sex, stanovanie a prechadzky'
p277
tp278
Rp279
sg56
I0
sg57
I0
sg58
g8
(g9
(S'S2'
p280
I0
I1
tp281
Rp282
(I3
S'|'
p283
NNNI2
I1
I0
tp284
bS'34'
p285
tp286
Rp287
sg67
g8
(g9
(S'S21'
p288
I0
I1
tp289
Rp290
(I3
S'|'
p291
NNNI21
I1
I0
tp292
bS'stredoskolske .......'
p293
tp294
Rp295
sg76
g8
(g9
(S'S25'
p296
I0
I1
tp297
Rp298
(I3
S'|'
p299
NNNI25
I1
I0
tp300
bS'pri svieckach s partnerom'
p301
tp302
Rp303
sg85
g8
(g9
(S'S4'
p304
I0
I1
tp305
Rp306
(I3
S'|'
p307
NNNI4
I1
I0
tp308
bS'null'
p309
tp310
Rp311
sg94
g8
(g9
(S'S1'
p312
I0
I1
tp313
Rp314
(I3
S'|'
p315
NNNI1
I1
I0
tp316
bg35
tp317
Rp318
ssV1102463
p319
(dp320
g19
I0
sg20
g8
(g9
(S'S27'
p321
I0
I1
tp322
Rp323
(I3
S'|'
p324
NNNI27
I1
I0
tp325
bS'anglicky, nemecky, madarsky'
p326
tp327
Rp328
sg29
g8
(g9
(S'S1'
p329
I0
I1
tp330
Rp331
(I3
S'|'
p332
NNNI1
I1
I0
tp333
bg100
tp334
Rp335
sg38
g8
(g9
(S'S43'
p336
I0
I1
tp337
Rp338
(I3
S'|'
p339
NNNI43
I1
I0
tp340
bS'bratislavsky kraj, bratislava - karlova ves'
p341
tp342
Rp343
sg47
g8
(g9
(S'S67'
p344
I0
I1
tp345
Rp346
(I3
S'|'
p347
NNNI67
I1
I0
tp348
bS'sportovanie, praca s pc, citanie, pocuvanie hudby, jedlo, priatelia'
p349
tp350
Rp351
sg56
I0
sg57
I0
sg58
g8
(g9
(S'S2'
p352
I0
I1
tp353
Rp354
(I3
S'|'
p355
NNNI2
I1
I0
tp356
bS'26'
p357
tp358
Rp359
sg67
g8
(g9
(S'S13'
p360
I0
I1
tp361
Rp362
(I3
S'|'
p363
NNNI13
I1
I0
tp364
bS'stredoskolske'
p365
tp366
Rp367
sg76
g8
(g9
(S'S9'
p368
I0
I1
tp369
Rp370
(I3
S'|'
p371
NNNI9
I1
I0
tp372
bS'pri telke'
p373
tp374
Rp375
sg85
g8
(g9
(S'S4'
p376
I0
I1
tp377
Rp378
(I3
S'|'
p379
NNNI4
I1
I0
tp380
bS'null'
p381
tp382
Rp383
sg94
g8
(g9
(S'S1'
p384
I0
I1
tp385
Rp386
(I3
S'|'
p387
NNNI1
I1
I0
tp388
bg100
tp389
Rp390
ssV579963
p391
(dp392
g19
I0
sg20
g8
(g9
(S'S87'
p393
I0
I1
tp394
Rp395
(I3
S'|'
p396
NNNI87
I1
I0
tp397
bS'anglicky, nemecky, madarsky, spanielsky, ...ale nemam problem sa dohovorit s hocikym...'
p398
tp399
Rp400
sg29
g8
(g9
(S'S1'
p401
I0
I1
tp402
Rp403
(I3
S'|'
p404
NNNI1
I1
I0
tp405
bg35
tp406
Rp407
sg38
g8
(g9
(S'S43'
p408
I0
I1
tp409
Rp410
(I3
S'|'
p411
NNNI43
I1
I0
tp412
bS'bratislavsky kraj, bratislava - karlova ves'
p413
tp414
Rp415
sg47
g8
(g9
(S'S44'
p416
I0
I1
tp417
Rp418
(I3
S'|'
p419
NNNI44
I1
I0
tp420
bS'sex, jedlo, nakupovanie,...v tomto poradi...'
p421
tp422
Rp423
sg56
I0
sg57
I0
sg58
g8
(g9
(S'S2'
p424
I0
I1
tp425
Rp426
(I3
S'|'
p427
NNNI2
I1
I0
tp428
bS'24'
p429
tp430
Rp431
sg67
g8
(g9
(S'S10'
p432
I0
I1
tp433
Rp434
(I3
S'|'
p435
NNNI10
I1
I0
tp436
bS'bakalarske'
p437
tp438
Rp439
sg76
g8
(g9
(S'S4'
p440
I0
I1
tp441
Rp442
(I3
S'|'
p443
NNNI4
I1
I0
tp444
bS'null'
p445
tp446
Rp447
sg85
g8
(g9
(S'S4'
p448
I0
I1
tp449
Rp450
(I3
S'|'
p451
NNNI4
I1
I0
tp452
bS'null'
p453
tp454
Rp455
sg94
g8
(g9
(S'S1'
p456
I0
I1
tp457
Rp458
(I3
S'|'
p459
NNNI1
I1
I0
tp460
bg35
tp461
Rp462
sssS'node_dict_factory'
p463
c__builtin__
dict
p464
sS'edge_attr_dict_factory'
p465
g464
sS'edge'
p466
(dp467
g17
(dp468
g319
(dp469
sg103
(dp470
sg175
(dp471
sg391
(dp472
sg247
(dp473
ssg103
(dp474
V609674
p475
g470
ssg175
(dp476
V609674
p477
g471
ssg247
(dp478
S'609674'
p479
g473
ssg319
(dp480
g479
g469
ssg391
(dp481
g479
g472
sssS'graph'
p482
(dp483
sS'adjlist_dict_factory'
p484
g464
sS'adj'
p485
g467
sb.